; 'Super Mario Bros NES' R.Eng project.  By F.H <fhughes@usa.net>
; -----------------------------------------------------------------

; Hello!  What you see here is my attempt to reverse engineer the NES
; game code of 'Super Mario Bros'.  I did this in order to try to learn
; more about NES programming; relearn some 6502 (which I'd forgotten doing
; 65816 all the time :) ; learn more about how this classic game 'ticks',
; and the possibility of converting it to the S-NES.
; All of this was done through disassembly - I couldn't find an emu'
; which had a decent debugger! :P
; The reason I'm releasing it is due to lack of time to *ever* work on
; this again.  Plus, I'd be interested in whether a few people could
; 'fill the gaps' that I'd left in my comments!


; Apologies for the non-6502 codes that crop up in the extraneous data!
; That's all due to my using a modified 65816 disassembler for use with
; NES games! =p
; It would be nice to get credit if you use this (some person decided not
; to on my last doc, so I guess I'm prepared for that this time...).

; Disclaimer:
;------------
; This file should be used for education purposes only.  I take no
; responsibility for misuse of the information contained herein.
; Any modifications should be sent to me, so I can update the document for
; all.  Please don't "modify" my name, and release it - I'm releasing this
; for *nothing*, please respect that.
; I will remove this document if there is any objection to this information
; being open to public consumption.
; 'Super Mario Bros' and 'Nintendo' are copyrights of Nintendo Co., and
; their respective companies.
; Play 'Silent Hill'... =)
;
; Anyway, hope you get something from this! :)
; FH  -- 7/15/00 7.04PM.
; -------------------------------------------------------------------------


008000 78            SEI      
008001 d8            CLD      
008002 a9 40         LDA #$40           ; NMI sprite hit enabled.
008004 8d 00 20      STA $2000     	; PPU Control Register #1 (vhzcpwNN)
008007 a2 ff         LDX #$ff     
008009 9a            TXS
;wait 2 vbls.
00800a ad 02 20      LDA $2002     	; PPU Status Register (vhsW----)
00800d 10 fb         BPL $800a     
00800f ad 02 20      LDA $2002     	; PPU Status Register (vhsW----)
008012 10 fb         BPL $800f


008014 a0 fe         LDY #$fe           ;preload RAMTOP here.

;check if each integer of the score is within 0~9.
008016 a2 05         LDX #$05
008018 bd d7 07      LDA $07d7,X     
00801b c9 0a         CMP #$0a     
00801d b0 0c         BCS $802b          ; Score error, zero memory.
00801f ca            DEX      
008020 10 f6         BPL $8018

008022 ad ff 07      LDA $07ff          ; check ram flag.
008025 c9 a5         CMP #$a5     
008027 d0 02         BNE $802b          ; if not #$a5, then zero from $07fe.
008029 a0 d6         LDY #$d6           ; start at $07d6.

00802b 20 cc 90      JSR $90cc          ; zero RAM section.

;subroutine returns a=0.
00802e 8d 11 40      STA $4011     	; PCM Volume Control Register (vvvvvvvv)
008031 8d 70 07      STA $0770          ; new points?

008034 a9 a5         LDA #$a5           ; flag ram init.
008036 8d ff 07      STA $07ff     	; 
008039 8d a7 07      STA $07a7     	;

00803c a9 0f         LDA #$0f           ; Enable 4 sound channels.
00803e 8d 15 40      STA $4015     	; Sound Control Register (---abcde)

008041 a9 06         LDA #$06           ; show full sprites & enable all pcs.
008043 8d 01 20      STA $2001     	; PPU Control Register #2 (fffpcSIt)

008046 20 20 82      JSR $8220          ; setup Y-positions in sprite buffer to #$f8.
008049 20 19 8e      JSR $8e19          ; Init sections of VRAM.
00804c ee 74 07      INC $0774          ; set this flag?

00804f ad 78 07      LDA $0778          ; ppucnt0 hold
008052 09 80         ORA #$80           ; Enable NMI on VBL.
008054 20 ed 8e      JSR $8eed          ; ppucnt0 & ppucnt0hold update
008057 4c 57 80      JMP $8057          ; Idle loop???


00805a 01 a4         ORA ($a4,X)     
00805c c8            INY      
00805d ec 10 00      CPX $0010     
008060 41 41         EOR ($41,X)     
008062 4c 34 3c      JMP $3c34     	; 
008065 44 54 68      MVP $54,$68     
008068 7c a8 bf      JMP ($bfa8,X)     
00806b de ef 03      DEC $03ef,X     
00806e 8c 8c 8c      STY $8c8c     	; 
008071 8d 03 03      STA $0303     	; 
008074 03 8d         ORA $8d,S     
008076 8d 8d 8d      STA $8d8d     	; 
008079 8d 8d 8d      STA $8d8d     	; 
00807c 8d 8d 8d      STA $8d8d     	;

00807f 8d
;008080
.db $00, $40            ; used for index.
.db $40


;************ NMI ************
008082 ad 78 07      LDA $0778          ; ppucnt0hold.          ; 
008085 29 7f         AND #$7f           ; disable nmi
008087 8d 78 07      STA $0778          ; ppucnt0hold.
00808a 29 7e         AND #$7e           ; point hware reg to name table #0.
00808c 8d 00 20      STA $2000     	; PPU Control Register #1 (vhzcpwNN)
00808f ad 79 07      LDA $0779          ; ppucnt1hold.          ; 
008092 29 e6         AND #$e6           ; preload with disable sprites,non-clip and coldisp.
008094 ac 74 07      LDY $0774          ; check this value.
008097 d0 05         BNE $809e          ; if it's not zero then use disabled stuff.
008099 ad 79 07      LDA $0779          ; ppucnt1hold.
00809c 09 1e         ORA #$1e           ; Urm, screen enabling of a lot of stuff! :p
00809e 8d 79 07      STA $0779          ; ppucnt1hold.
0080a1 29 e7         AND #$e7     
0080a3 8d 01 20      STA $2001     	; PPU Control Register #2 (fffpcSIt)
;read reset.
0080a6 ae 02 20      LDX $2002     	; PPU Status Register (vhsW----)
0080a9 a9 00         LDA #$00           ; set scroll registers to 0.
0080ab 20 e6 8e      JSR $8ee6          ; Write to scroll registers
;set sprite address to $0000.
0080ae 8d 03 20      STA $2003     	; Sprite Memory Address (aaaaaaaa)
0080b1 a9 02         LDA #$02           ; A Address is $0200.
0080b3 8d 14 40      STA $4014     	; Sprite DMA Register

0080b6 ae 73 07      LDX $0773          ; Index to PPU data pointers.
0080b9 bd 5a 80      LDA $805a,X        ; fetch low-byte of ponter.
0080bc 85 00         STA $00            ; store here.
0080be bd 6d 80      LDA $806d,X        ; fetch high-byte of pointer.
0080c1 85 01         STA $01            ; store here.
0080c3 20 dd 8e      JSR $8edd          ; PPU Data Place.

0080c6 a0 00         LDY #$00           ; preload Y with 0.
0080c8 ae 73 07      LDX $0773          ; get ready to check Index.
0080cb e0 06         CPX #$06           ; Is it 6?
0080cd d0 01         BNE $80d0          ; branch if no.
0080cf c8            INY                ; Condition load Y with 1.
0080d0 be 80 80      LDX $8080,Y        ; either #$00 or #$40.

0080d3 a9 00         LDA #$00           ; 
0080d5 9d 00 03      STA $0300,X     
0080d8 9d 01 03      STA $0301,X

0080db 8d 73 07      STA $0773          ; Init this?

0080de ad 79 07      LDA $0779          ; ppucnt1hold.
0080e1 8d 01 20      STA $2001     	; PPU Control Register #2 (fffpcSIt)
0080e4 20 d0 f2      JSR $f2d0          ; $4015 write.
0080e7 20 5c 8e      JSR $8e5c          ; Joyport Read.
0080ea 20 82 81      JSR $8182          ; I don't know...
0080ed 20 97 8f      JSR $8f97     	; 
0080f0 ad 76 07      LDA $0776     	; 
0080f3 4a            LSR      
0080f4 b0 25         BCS $811b     
0080f6 ad 47 07      LDA $0747     	; 
0080f9 f0 05         BEQ $8100     
0080fb ce 47 07      DEC $0747     	; 
0080fe d0 19         BNE $8119     
008100 a2 14         LDX #$14     
008102 ce 7f 07      DEC $077f     	; 
008105 10 07         BPL $810e     
008107 a9 14         LDA #$14     
008109 8d 7f 07      STA $077f     	; 
00810c a2 23         LDX #$23     
00810e bd 80 07      LDA $0780,X     
008111 f0 03         BEQ $8116     
008113 de 80 07      DEC $0780,X     
008116 ca            DEX      
008117 10 f5         BPL $810e     
008119 e6 09         INC $09     
00811b a2 00         LDX #$00     
00811d a0 07         LDY #$07     
00811f ad a7 07      LDA $07a7     	; 
008122 29 02         AND #$02     
008124 85 00         STA $00     
008126 ad a8 07      LDA $07a8     	; 
008129 29 02         AND #$02     
00812b 45 00         EOR $00     
00812d 18            CLC      
00812e f0 01         BEQ $8131     
008130 38            SEC      
008131 7e a7 07      ROR $07a7,X     
008134 e8            INX      
008135 88            DEY      
008136 d0 f9         BNE $8131     
008138 ad 22 07      LDA $0722     	; 
00813b f0 1f         BEQ $815c     
00813d ad 02 20      LDA $2002     	; PPU Status Register (vhsW----)
008140 29 40         AND #$40     
008142 d0 f9         BNE $813d     
008144 ad 76 07      LDA $0776     	; 
008147 4a            LSR      
008148 b0 06         BCS $8150     
00814a 20 23 82      JSR $8223     	; 
00814d 20 c6 81      JSR $81c6     	;

008150 ad 02 20      LDA $2002     	; PPU Status Register (vhsW----)
008153 29 40         AND #$40     
008155 f0 f9         BEQ $8150     
008157 a0 14         LDY #$14     
008159 88            DEY      
00815a d0 fd         BNE $8159     
00815c ad 3f 07      LDA $073f          ; BGSCROL Horizontal hold.          ; 
00815f 8d 05 20      STA $2005     	; Background Scroll Address (dddddddd)
008162 ad 40 07      LDA $0740          ; BGSCROL Vertical hold.          ; 
008165 8d 05 20      STA $2005     	; Background Scroll Address (dddddddd)
008168 ad 78 07      LDA $0778          ; ppucnt0hold.          ; 
00816b 48            PHA      
00816c 8d 00 20      STA $2000     	; PPU Control Register #1 (vhzcpwNN)
00816f ad 76 07      LDA $0776     	; 
008172 4a            LSR      
008173 b0 03         BCS $8178     
008175 20 12 82      JSR $8212     	; 
008178 ad 02 20      LDA $2002     	; PPU Status Register (vhsW----)
00817b 68            PLA      
00817c 09 80         ORA #$80     
00817e 8d 00 20      STA $2000     	; PPU Control Register #1 (vhzcpwNN)
008181 40            RTI


008182 ad 70 07      LDA $0770     	; 
008185 c9 02         CMP #$02     
008187 f0 0b         BEQ $8194     
008189 c9 01         CMP #$01     
00818b d0 38         BNE $81c5          ; Return if not #1.
00818d ad 72 07      LDA $0772     	; 
008190 c9 03         CMP #$03     
008192 d0 31         BNE $81c5          ; Return if not #3.

;here if $0770=2,
008194 ad 77 07      LDA $0777     	; 
008197 f0 04         BEQ $819d          ; branch if zero.
008199 ce 77 07      DEC $0777          ; not zero: dec and return.
00819c 60            RTS

00819d ad fc 06      LDA $06fc          ; Load pad0.
0081a0 29 10         AND #$10           ; Check for 'Start'.
0081a2 f0 19         BEQ $81bd          ; Branch if no.

0081a4 ad 76 07      LDA $0776     	; 
0081a7 29 80         AND #$80     
0081a9 d0 1a         BNE $81c5     
0081ab a9 2b         LDA #$2b     
0081ad 8d 77 07      STA $0777     	; 
0081b0 ad 76 07      LDA $0776     	; 
0081b3 a8            TAY      
0081b4 c8            INY      
0081b5 84 fa         STY $fa     
0081b7 49 01         EOR #$01     
0081b9 09 80         ORA #$80     
0081bb d0 05         BNE $81c2

0081bd ad 76 07      LDA $0776     	; 
0081c0 29 7f         AND #$7f

0081c2 8d 76 07      STA $0776     	; 
0081c5 60            RTS

0081c6 ac 4e 07      LDY $074e     	; 
0081c9 a9 28         LDA #$28     
0081cb 85 00         STA $00     
0081cd a2 0e         LDX #$0e     
0081cf bd e4 06      LDA $06e4,X     
0081d2 c5 00         CMP $00     
0081d4 90 0f         BCC $81e5     
0081d6 ac e0 06      LDY $06e0     	; 
0081d9 18            CLC      
0081da 79 e1 06      ADC $06e1,Y     
0081dd 90 03         BCC $81e2     
0081df 18            CLC      
0081e0 65 00         ADC $00     
0081e2 9d e4 06      STA $06e4,X     
0081e5 ca            DEX      
0081e6 10 e7         BPL $81cf     
0081e8 ae e0 06      LDX $06e0     	; 
0081eb e8            INX      
0081ec e0 03         CPX #$03     
0081ee d0 02         BNE $81f2     
0081f0 a2 00         LDX #$00     
0081f2 8e e0 06      STX $06e0     	; 
0081f5 a2 08         LDX #$08     
0081f7 a0 02         LDY #$02     
0081f9 b9 e9 06      LDA $06e9,Y     
0081fc 9d f1 06      STA $06f1,X     
0081ff 18            CLC      
008200 69 08         ADC #$08     
008202 9d f2 06      STA $06f2,X     
008205 18            CLC      
008206 69 08         ADC #$08     
008208 9d f3 06      STA $06f3,X     
00820b ca            DEX      
00820c ca            DEX      
00820d ca            DEX      
00820e 88            DEY      
00820f 10 e8         BPL $81f9     
008211 60            RTS

008212 ad 70 07      LDA $0770          ; use as jump index.
008215 20 04 8e      JSR $8e04          ; Jump table right after this.

;jump table.
008218 31 82            ; $8231
00821a dc ae            ; $aedc
00821c 8b 83            ; $838b
00821e 18 92            ; $9218


;*** force all y-positions to #$f8.
008220 a0 00         LDY #$00
008222 2c a0 04      BIT $04a0          ; ????
008225 a9 f8         LDA #$f8

008227 99 00 02      STA $0200,Y     
00822a c8            INY      
00822b c8            INY      
00822c c8            INY      
00822d c8            INY      
00822e d0 f7         BNE $8227     
008230 60            RTS


008231 ad 72 07      LDA $0772     	; 
008234 20 04 8e      JSR $8e04          ; jump table.

;jump table.
008237 cf 8f
008239 67 85 
00823b 61 90
00823d 45 82

00823f 04 20         TSB $20     
008241 73 01         ADC ($01,S),Y     
008243 00 00         BRK $00

;I think this is data connected with the Mushroom on the title screen.
.db $04,$20,$73,$01,$00,$00


008245 a0 00         LDY #$00

;aahhhh, this must be the start of the game (or continue).
008247 ad fc 06      LDA $06fc          ; pad0
00824a 0d fd 06      ORA $06fd          ; merge with pad1.
00824d c9 10         CMP #$10           ; check for 'start'.
00824f f0 04         BEQ $8255          
008251 c9 90         CMP #$90           ; look for A+start (???)
008253 d0 03         BNE $8258          ; branch if no...

008255 4c d8 82      JMP $82d8          ; A start of sorts has been pressed.


008258 c9 20         CMP #$20           ; check for select.
00825a f0 1a         BEQ $8276          ; branch if yes.

00825c ae a2 07      LDX $07a2     	; 
00825f d0 0b         BNE $826c     
008261 8d 80 07      STA $0780          ; Store combined pad here.
008264 20 6b 83      JSR $836b     	; 
008267 b0 60         BCS $82c9     
008269 4c c0 82      JMP $82c0     	;

00826c a2 01         LDX #$01     
00826e ea            NOP      
00826f f0 4a         BEQ $82bb     
008271 c9 40         CMP #$40     
008273 ea            NOP      
008274 ea            NOP      
008275 c8            INY

;here when select pressed.
008276 ad a2 07      LDA $07a2     	; 
008279 f0 4e         BEQ $82c9

00827b a9 18         LDA #$18           ; void code???
00827d ea            NOP      
00827e ea            NOP      
00827f ea            NOP

008280 ad 80 07      LDA $0780          ; Check combined pad.
008283 d0 36         BNE $82bb          ; Branch if buttons to process.

008285 a9 10         LDA #$10           ; Pad is clear, default this value.
008287 8d 80 07      STA $0780     	; 
00828a c0 01         CPY #$01     
00828c f0 0e         BEQ $829c

00828e ad 7a 07      LDA $077a     	; 
008291 49 01         EOR #$01           ; this toggles the 1/2 player thing.
008293 8d 7a 07      STA $077a     	;

008296 20 25 83      JSR $8325     	; 
008299 4c bb 82      JMP $82bb     	;

00829c ae 6b 07      LDX $076b     	; 
00829f ad 3e 01      LDA $013e     	; 
0082a2 ea            NOP      
0082a3 20 ea ff      JSR $ffea     	; 
0082a6 20 0e 83      JSR $830e          ; Urm, don't know... returns x=0.

0082a9 bd 3f 82      LDA $823f,X        ; always same table?
0082ac 9d 00 03      STA $0300,X        ; store in attrib table.
0082af e8            INX      
0082b0 e0 06         CPX #$06     
0082b2 30 f5         BMI $82a9

0082b4 ac 5f 07      LDY $075f     	; 
0082b7 c8            INY      
0082b8 8c 04 03      STY $0304          ; something connected with map data.

0082bb a9 00         LDA #$00           ; Zero this location. (connected..
0082bd 8d fc 06      STA $06fc          ; with Mario demo animation).

0082c0 20 ea ae      JSR $aeea     	; 
0082c3 a5 0e         LDA $0e     
0082c5 c9 06         CMP #$06     
0082c7 d0 44         BNE $830d

0082c9 a9 00         LDA #$00     
0082cb 8d 70 07      STA $0770     	; 
0082ce 8d 72 07      STA $0772     	; 
0082d1 8d 22 07      STA $0722     	; 
0082d4 ee 74 07      INC $0774     	; 
0082d7 60            RTS


; a start of sorts has been pressed.
0082d8 ac a2 07      LDY $07a2     	; 
0082db f0 ec         BEQ $82c9     
0082dd 0a            ASL      
0082de 90 06         BCC $82e6     
0082e0 ad fd 07      LDA $07fd     	;

0082e3 20 0e 83      JSR $830e     	; 
0082e6 20 03 9c      JSR $9c03     	;

0082e9 ee 5d 07      INC $075d     	; 
0082ec ee 64 07      INC $0764     	; 
0082ef ee 57 07      INC $0757     	; 
0082f2 ee 70 07      INC $0770     	;

0082f5 ad fc 07      LDA $07fc     	; 
0082f8 8d 6a 07      STA $076a     	;

0082fb a9 00         LDA #$00     
0082fd 8d 72 07      STA $0772     	; 
008300 8d a2 07      STA $07a2     	;

;Zero score and high score.
008303 a2 17         LDX #$17     
008305 a9 00         LDA #$00     
008307 9d dd 07      STA $07dd,X     
00830a ca            DEX      
00830b 10 fa         BPL $8307     
00830d 60            RTS


;Set ???? for each player??
00830e 8d 5f 07      STA $075f     	; 
008311 8d 66 07      STA $0766     	;

;Set stages for each player???
008314 a2 00         LDX #$00           ; Both start at stage 1.
008316 8e 60 07      STX $0760     	; 
008319 8e 67 07      STX $0767     	;

00831c 60            RTS

00831d 07 22         ORA [$22]     
00831f 49 83         EOR #$83     
008321 ce 24 24      DEC $2424     	;
008324 00
.db $07,$22,$49,$83,$ce,$24,$24,$00
;.......(voff)......(msh)...(ws)



008325 a0 07         LDY #$07
008327 b9 1d 83      LDA $831d,Y
008e2a ?? 00 03      STA $0300,Y
00832d 88            DEY      
00832e 10 f7         BPL $8327

008330 ad 7a 07      LDA $077a          ; Load 1~2 Player flag.
008333 f0 0a         BEQ $833f     
008335 a9 24         LDA #$24           ; put whitespace at 1P Mushroom pos.
008337 8d 04 03      STA $0304     	; 
00833a a9 ce         LDA #$ce     
00833c 8d 06 03      STA $0306          ; put Mushroom on 2-player pos.
00833f 60            RTS

008340 01 80         ORA ($80,X)     
008342 02 81         COP $81     
008344 41 80         EOR ($80,X)     
008346 01 42         ORA ($42,X)     
008348 c2 02         REP #$02     
00834a 80 41         BRA $838d     
00834c c1 41         CMP ($41,X)     
00834e c1 01         CMP ($01,X)     
008350 c1 01         CMP ($01,X)     
008352 02 80         COP $80     
008354 00 9b         BRK $9b     
008356 10 18         BPL $8370     
008358 05 2c         ORA $2c     
00835a 20 24 15      JSR $1524     	; 
00835d 5a            PHY      
00835e 10 20         BPL $8380     
008360 28            PLP      
008361 30 20         BMI $8383     
008363 10 80         BPL $82e5     
008365 20 30 30      JSR $3030     	; 
008368 01 ff         ORA ($ff,X)
00836a 00



00836b ae 17 07      LDX $0717
00836e ad 18 07      LDA $0718     	; 
008371 d0 0d         BNE $8380     
008373 e8            INX      
008374 ee 17 07      INC $0717     	; 
008377 38            SEC      
008378 bd 54 83      LDA $8354,X     
00837b 8d 18 07      STA $0718     	; 
00837e f0 0a         BEQ $838a

008380 bd 3f 83      LDA $833f,X     
008383 8d fc 06      STA $06fc     	; 
008386 ce 18 07      DEC $0718     	; 
008389 18            CLC

00838a 60            RTS


00838b 20 a0 83      JSR $83a0     	; 
00838e ad 72 07      LDA $0772     	; 
008391 f0 07         BEQ $839a     
008393 a2 00         LDX #$00     
008395 86 08         STX $08     
008397 20 47 c0      JSR $c047     	; 
00839a 20 2a f1      JSR $f12a     	; 
00839d 4c e9 ee      JMP $eee9     	;

0083a0 ad 72 07      LDA $0772     	; 
0083a3 20 04 8e      JSR $8e04     	;

0083a6 ec cf
b0 83           ; $83b0
bd 83           ; $83bd
f6 83           ; $83f6
61 84           ; $8461

0083b0 ae 1b 07      LDX $071b
0083b3 e8            INY
0083b4 86 34         STX $34     
0083b6 a9 08         LDA #$08     
0083b8 85 fc         STA $fc     
0083ba 4c 4e 87      JMP $874e     	;

0083bd a0 00         LDY #$00     
0083bf 84 35         STY $35     
0083c1 a5 6d         LDA $6d     
0083c3 c5 34         CMP $34     
0083c5 d0 06         BNE $83cd     
0083c7 a5 86         LDA $86     
0083c9 c9 60         CMP #$60     
0083cb b0 03         BCS $83d0     
0083cd e6 35         INC $35     
0083cf c8            INY      
0083d0 98            TYA      
0083d1 20 e6 b0      JSR $b0e6     	; 
0083d4 ad 1a 07      LDA $071a     	; 
0083d7 c5 34         CMP $34     
0083d9 f0 16         BEQ $83f1     
0083db ad 68 07      LDA $0768     	; 
0083de 18            CLC      
0083df 69 80         ADC #$80     
0083e1 8d 68 07      STA $0768     	; 
0083e4 a9 01         LDA #$01     
0083e6 69 00         ADC #$00     
0083e8 a8            TAY      
0083e9 20 c4 af      JSR $afc4     	; 
0083ec 20 6f af      JSR $af6f     	; 
0083ef e6 35         INC $35     
0083f1 a5 35         LDA $35     
0083f3 f0 68         BEQ $845d     
0083f5 60            RTS

0083f6 ad 49 07      LDA $0749     	; 
0083f9 d0 48         BNE $8443     
0083fb ad 19 07      LDA $0719     	; 
0083fe f0 18         BEQ $8418     
008400 c9 09         CMP #$09     
008402 b0 3f         BCS $8443     
008404 ac 5f 07      LDY $075f     	; 
008407 c0 07         CPY #$07     
008409 d0 09         BNE $8414     
00840b c9 03         CMP #$03     
00840d 90 34         BCC $8443     
00840f e9 01         SBC #$01     
008411 4c 18 84      JMP $8418     	; 
008414 c9 02         CMP #$02     
008416 90 2b         BCC $8443     
008418 a8            TAY      
008419 d0 08         BNE $8423     
00841b ad 53 07      LDA $0753     	; 
00841e f0 14         BEQ $8434     
008420 c8            INY      
008421 d0 11         BNE $8434     
008423 c8            INY      
008424 ad 5f 07      LDA $075f     	; 
008427 c9 07         CMP #$07     
008429 f0 09         BEQ $8434     
00842b 88            DEY      
00842c c0 04         CPY #$04     
00842e b0 26         BCS $8456     
008430 c0 03         CPY #$03     
008432 b0 0f         BCS $8443     
008434 c0 03         CPY #$03     
008436 d0 04         BNE $843c     
008438 a9 04         LDA #$04     
00843a 85 fc         STA $fc     
00843c 98            TYA      
00843d 18            CLC      
00843e 69 0c         ADC #$0c     
008440 8d 73 07      STA $0773     	; 
008443 ad 49 07      LDA $0749     	; 
008446 18            CLC      
008447 69 04         ADC #$04     
008449 8d 49 07      STA $0749     	; 
00844c ad 19 07      LDA $0719     	; 
00844f 69 00         ADC #$00     
008451 8d 19 07      STA $0719     	; 
008454 c9 07         CMP #$07     
008456 90 08         BCC $8460     
008458 a9 06         LDA #$06     
00845a 8d a1 07      STA $07a1     	; 
00845d ee 72 07      INC $0772     	; 
008460 60            RTS

008461 ad a1 07      LDA $07a1     	; 
008464 d0 20         BNE $8486     
008466 ac 5f 07      LDY $075f     	; 
008469 c0 07         CPY #$07     
00846b b0 1a         BCS $8487     
00846d a9 00         LDA #$00     
00846f 8d 60 07      STA $0760          ; Start on Stage 1.
008472 8d 5c 07      STA $075c     	; 
008475 8d 72 07      STA $0772     	; 
008478 ee 5f 07      INC $075f     	; 
00847b 20 03 9c      JSR $9c03     	; 
00847e ee 57 07      INC $0757     	; 
008481 a9 01         LDA #$01     
008483 8d 70 07      STA $0770     	; 
008486 60            RTS

008487 ad fc 06      LDA $06fc     	; 
00848a 0d fd 06      ORA $06fd     	; 
00848d 29 40         AND #$40     
00848f f0 0d         BEQ $849e     
008491 a9 01         LDA #$01     
008493 8d fc 07      STA $07fc     	; 
008496 a9 ff         LDA #$ff     
008498 8d 5a 07      STA $075a          ; Number of lives.
00849b 20 48 92      JSR $9248     	; 
00849e 60            RTS

00849f ff ff f6 fb   SBC $fbf6ff,X     
0084a3 f7 fb         SBC [$fb],Y     
0084a5 f8            SED      
0084a6 fb            XCE      
0084a7 f9 fb fa      SBC $fafb,Y     
0084aa fb            XCE      
0084ab f6 50         INC $50,X     
0084ad f7 50         SBC [$50],Y     
0084af f8            SED      
0084b0 50 f9         BVC $84ab     
0084b2 50 fa         BVC $84ae     
0084b4 50 fd         BVC $84b3     
0084b6 fe

;score table?
0084b7 ff 41      INC $41ff,X
0084b9 42 44         WDM $44     
0084bb 45 48         EOR $48     
0084bd 31 32         AND ($32),Y     
0084bf 34 35         BIT $35,X     
0084c1 38            SEC      
0084c2 00                               ; <--- 1up?

0084c3 bd 10 01      LDA $0110,X
0084c6 f0 be         BEQ $8486          ; branch (out?) if no score to add.
0084c8 c9 0b         CMP #$0b     
0084ca 90 05         BCC $84d1          ; if <#$0b, it's ok - so branch.

0084cc a9 0b         LDA #$0b           ; set to max score (1up??)
0084ce 9d 10 01      STA $0110,X        ; store index.

0084d1 a8            TAY                ; pass to Y.
0084d2 bd 2c 01      LDA $012c,X        ;
0084d5 d0 04         BNE $84db          ; only add score if this is not 0.
0084d7 9d 10 01      STA $0110,X        ; zero index.
0084da 60            RTS

0084db de 2c 01      DEC $012c,X        ; no idea.
0084de c9 2b         CMP #$2b           
0084e0 d0 1e         BNE $8500

0084e2 c0 0b         CPY #$0b     
0084e4 d0 07         BNE $84ed          
0084e6 ee 5a 07      INC $075a          ; Increase number of lives.
0084e9 a9 40         LDA #$40     
0084eb 85 fe         STA $fe


; here's how this works...
; $ab   a gives the power of 10
; b gives the number to place.
0084ed b9 b7 84      LDA $84b7,Y     
0084f0 4a            LSR      
0084f1 4a            LSR      
0084f2 4a            LSR      
0084f3 4a            LSR      
0084f4 aa            TAX      
0084f5 b9 b7 84      LDA $84b7,Y     
0084f8 29 0f         AND #$0f     
0084fa 9d 34 01      STA $0134,X

0084fd 20 27 bc      JSR $bc27     	;

008500 bc e5 06      LDY $06e5,X     
008503 b5 16         LDA $16,X     
008505 c9 12         CMP #$12     
008507 f0 22         BEQ $852b     
008509 c9 0d         CMP #$0d     
00850b f0 1e         BEQ $852b     
00850d c9 05         CMP #$05     
00850f f0 12         BEQ $8523     
008511 c9 0a         CMP #$0a     
008513 f0 16         BEQ $852b     
008515 c9 0b         CMP #$0b     
008517 f0 12         BEQ $852b     
008519 c9 09         CMP #$09     
00851b b0 06         BCS $8523     
00851d b5 1e         LDA $1e,X     
00851f c9 02         CMP #$02     
008521 b0 08         BCS $852b     
008523 ae ee 03      LDX $03ee     	; 
008526 bc ec 06      LDY $06ec,X     
008529 a6 08         LDX $08     
00852b bd 1e 01      LDA $011e,X     
00852e c9 18         CMP #$18     
008530 90 05         BCC $8537     
008532 e9 01         SBC #$01     
008534 9d 1e 01      STA $011e,X     
008537 bd 1e 01      LDA $011e,X     
00853a e9 08         SBC #$08     
00853c 20 c1 e5      JSR $e5c1     	; 
00853f bd 17 01      LDA $0117,X     
008542 99 03 02      STA $0203,Y     
008545 18            CLC      
008546 69 08         ADC #$08     
008548 99 07 02      STA $0207,Y     
00854b a9 02         LDA #$02     
00854d 99 02 02      STA $0202,Y     
008550 99 06 02      STA $0206,Y     
008553 bd 10 01      LDA $0110,X     
008556 0a            ASL      
008557 aa            TAX      
008558 bd 9f 84      LDA $849f,X     
00855b 99 01 02      STA $0201,Y     
00855e bd a0 84      LDA $84a0,X     
008561 99 05 02      STA $0205,Y     
008564 a6 08         LDX $08     
008566 60            RTS

008567 ad 3c 07      LDA $073c     	; 
00856a 20 04 8e      JSR $8e04     	; 
00856d 8b            PHB      
00856e 85 9b         STA $9b     
008570 85 52         STA $52     
008572 86 5a         STX $5a     
008574 86 93         STX $93     
008576 86 9d         STX $9d     
008578 88            DEY      
008579 a8            TAY      
00857a 86 9d         STX $9d     
00857c 88            DEY      
00857d e6 86         INC $86     
00857f bf 85 e3 85   LDA $85e385,X     
008583 43 86         EOR $86,S     
008585 ff 86 32 87   SBC $873286,X     
008589 49 87         EOR #$87     
00858b 20 20 82      JSR $8220          ; force all Y-pos' in oambuff to #$f8
00858e 20 19 8e      JSR $8e19     	; 
008591 ad 70 07      LDA $0770     	; 
008594 f0 32         BEQ $85c8     
008596 a2 03         LDX #$03     
008598 4c c5 85      JMP $85c5     	; 
00859b ad 44 07      LDA $0744     	; 
00859e 48            PHA      
00859f ad 56 07      LDA $0756     	; 
0085a2 48            PHA      
0085a3 a9 00         LDA #$00     
0085a5 8d 56 07      STA $0756     	; 
0085a8 a9 02         LDA #$02     
0085aa 8d 44 07      STA $0744     	; 
0085ad 20 f1 85      JSR $85f1     	; 
0085b0 68            PLA      
0085b1 8d 56 07      STA $0756     	; 
0085b4 68            PLA      
0085b5 8d 44 07      STA $0744     	; 
0085b8 4c 45 87      JMP $8745     	; 
0085bb 01 02         ORA ($02,X)     
0085bd 03 04         ORA $4,S     
0085bf ac 4e 07      LDY $074e     	; 
0085c2 be bb 85      LDX $85bb,Y     
0085c5 8e 73 07      STX $0773     	; 
0085c8 4c 45 87      JMP $8745     	; 
0085cb 00 09         BRK $09     
0085cd 0a            ASL      
0085ce 04 22         TSB $22     
0085d0 22 0f 0f 0f   JSL $0f0f0f     
0085d4 22 0f 0f 22   JSL $220f0f     
0085d8 16 27         ASL $27,X     
0085da 18            CLC      
0085db 22 30 27 19   JSL $192730     
0085df 22 37 27 16   JSL $162737     
0085e3 ac 44 07      LDY $0744     	; 
0085e6 f0 06         BEQ $85ee     
0085e8 b9 c7 85      LDA $85c7,Y     
0085eb 8d 73 07      STA $0773     	; 
0085ee ee 3c 07      INC $073c     	; 
0085f1 ae 00 03      LDX $0300     	; 
0085f4 a0 00         LDY #$00     
0085f6 ad 53 07      LDA $0753     	; 
0085f9 f0 02         BEQ $85fd     
0085fb a0 04         LDY #$04     
0085fd ad 56 07      LDA $0756     	; 
008600 c9 02         CMP #$02     
008602 d0 02         BNE $8606     
008604 a0 08         LDY #$08     
008606 a9 03         LDA #$03     
008608 85 00         STA $00     
00860a b9 d7 85      LDA $85d7,Y     
00860d 9d 04 03      STA $0304,X     
008610 c8            INY      
008611 e8            INX      
008612 c6 00         DEC $00     
008614 10 f4         BPL $860a     
008616 ae 00 03      LDX $0300     	; 
008619 ac 44 07      LDY $0744     	; 
00861c d0 03         BNE $8621     
00861e ac 4e 07      LDY $074e     	; 
008621 b9 cf 85      LDA $85cf,Y     
008624 9d 04 03      STA $0304,X     
008627 a9 3f         LDA #$3f     
008629 9d 01 03      STA $0301,X     
00862c a9 10         LDA #$10     
00862e 9d 02 03      STA $0302,X     
008631 a9 04         LDA #$04     
008633 9d 03 03      STA $0303,X     
008636 a9 00         LDA #$00     
008638 9d 08 03      STA $0308,X     
00863b 8a            TXA      
00863c 18            CLC      
00863d 69 07         ADC #$07     
00863f 8d 00 03      STA $0300     	; 
008642 60            RTS

008643 ad 33 07      LDA $0733     	; 
008646 c9 01         CMP #$01     
008648 d0 05         BNE $864f     
00864a a9 0b         LDA #$0b

00864c 8d 73 07      STA $0773     	; 
00864f 4c 45 87      JMP $8745     	; 
008652 a9 00         LDA #$00     
008654 20 08 88      JSR $8808     	; 
008657 4c 45 87      JMP $8745     	; 
00865a 20 30 bc      JSR $bc30     	;

00865d ae 00 03      LDX $0300     	; 
008660 a9 20         LDA #$20     
008662 9d 01 03      STA $0301,X     
008665 a9 73         LDA #$73     
008667 9d 02 03      STA $0302,X     
00866a a9 03         LDA #$03     
00866c 9d 03 03      STA $0303,X     
00866f ac 5f 07      LDY $075f     	; 
008672 c8            INY      
008673 98            TYA      
008674 9d 04 03      STA $0304,X     
008677 a9 28         LDA #$28     
008679 9d 05 03      STA $0305,X     
00867c ac 5c 07      LDY $075c     	; 
00867f c8            INY      
008680 98            TYA      
008681 9d 06 03      STA $0306,X     
008684 a9 00         LDA #$00     
008686 9d 07 03      STA $0307,X     
008689 8a            TXA      
00868a 18            CLC      
00868b 69 06         ADC #$06     
00868d 8d 00 03      STA $0300     	; 
008690 4c 45 87      JMP $8745     	;

008693 ad 59 07      LDA $0759     	; 
008696 f0 0a         BEQ $86a2     
008698 a9 00         LDA #$00     
00869a 8d 59 07      STA $0759     	; 
00869d a9 02         LDA #$02     
00869f 4c c7 86      JMP $86c7     	; 
0086a2 ee 3c 07      INC $073c     	; 
0086a5 4c 45 87      JMP $8745     	; 
0086a8 ad 70 07      LDA $0770     	; 
0086ab f0 33         BEQ $86e0     
0086ad c9 03         CMP #$03     
0086af f0 22         BEQ $86d3     
0086b1 ad 52 07      LDA $0752     	; 
0086b4 d0 2a         BNE $86e0     
0086b6 ac 4e 07      LDY $074e     	; 
0086b9 c0 03         CPY #$03     
0086bb f0 05         BEQ $86c2     
0086bd ad 69 07      LDA $0769     	; 
0086c0 d0 1e         BNE $86e0     
0086c2 20 a4 ef      JSR $efa4     	; 
0086c5 a9 01         LDA #$01     
0086c7 20 08 88      JSR $8808     	; 
0086ca 20 a5 88      JSR $88a5     	; 
0086cd a9 00         LDA #$00     
0086cf 8d 74 07      STA $0774     	; 
0086d2 60            RTS

0086d3 a9 12         LDA #$12     
0086d5 8d a0 07      STA $07a0     	; 
0086d8 a9 03         LDA #$03     
0086da 20 08 88      JSR $8808     	; 
0086dd 4c 4e 87      JMP $874e     	; 
0086e0 a9 08         LDA #$08     
0086e2 8d 3c 07      STA $073c     	; 
0086e5 60            RTS

0086e6 ee 74 07      INC $0774     	; 
0086e9 20 b0 92      JSR $92b0     	; 
0086ec ad 1f 07      LDA $071f     	; 
0086ef d0 f8         BNE $86e9     
0086f1 ce 1e 07      DEC $071e     	; 
0086f4 10 03         BPL $86f9     
0086f6 ee 3c 07      INC $073c     	; 
0086f9 a9 06         LDA #$06     
0086fb 8d 73 07      STA $0773     	; 
0086fe 60            RTS


;------------------------------------------------------
0086ff ad 70 07      LDA $0770     	; 
008702 d0 4a         BNE $874e

;**** copy part of vram data to $0300~$043b
;Vram addr: $1ec0.
008704 a9 1e         LDA #$1e     
008706 8d 06 20      STA $2006     	; PPU Memory Address (aaaaaaaa)
008709 a9 c0         LDA #$c0     
00870b 8d 06 20      STA $2006     	; PPU Memory Address (aaaaaaaa)

;setup pointer to $0300.
00870e a9 03         LDA #$03     
008710 85 01         STA $01     
008712 a0 00         LDY #$00     
008714 84 00         STY $00     
008716 ad 07 20      LDA $2007          ; PPU I/O Register
008719 ad 07 20      LDA $2007          ; PPU I/O Register
00871c 91 00         STA ($00),Y        ; Store here.
00871e c8            INY      
00871f d0 02         BNE $8723          
008721 e6 01         INC $01            ; Page adjustment.
008723 a5 01         LDA $01     
008725 c9 04         CMP #$04     
008727 d0 f0         BNE $8719

008729 c0 3a         CPY #$3a           ; do upto $043b.
00872b 90 ec         BCC $8719


00872d a9 05         LDA #$05     
00872f 4c 4c 86      JMP $864c     	;

;--------------------------------------------------


008732 ad 70 07      LDA $0770     	; 
008735 d0 17         BNE $874e     
008737 a2 00         LDX #$00     
008739 9d 00 03      STA $0300,X     
00873c 9d 00 04      STA $0400,X     
00873f ca            DEX      
008740 d0 f7         BNE $8739     
008742 20 25 83      JSR $8325     	;

008745 ee 3c 07      INC $073c     	; 
008748 60            RTS

008749 a9 fa         LDA #$fa     
00874b 20 36 bc      JSR $bc36     	; 
00874e ee 72 07      INC $0772     	; 
008751 60            RTS



008752 20 43 05      JSR $0543     	; 
008755 16 0a         ASL $0a,X     
008757 1b            TCS      
008758 12 18         ORA ($18)     
00875a 20 52 0b      JSR $0b52     	; 
00875d 20 18 1b      JSR $1b18     	; 
008760 15 0d         ORA $0d,X     
008762 24 24         BIT $24     
008764 1d 12 16      ORA $1612,X     
008767 0e 20 68      ASL $6820     	; 
00876a 05 00         ORA $00     
00876c 24 24         BIT $24     
00876e 2e 29 23      ROL $2329     	; 
008771 c0 7f         CPY #$7f     
008773 aa            TAX      
008774 23 c2         AND $c2,S     
008776 01 ea         ORA ($ea,X)     
008778 ff 21 cd 07   SBC $07cd21,X     
00877c 24 24         BIT $24     
00877e 29 24         AND #$24     
008780 24 24         BIT $24     
008782 24 21         BIT $21     
008784 4b            PHK      
008785 09 20         ORA #$20     
008787 18            CLC      
008788 1b            TCS      
008789 15 0d         ORA $0d,X     
00878b 24 24         BIT $24     
00878d 28            PLP      
00878e 24 22         BIT $22     
008790 0c 47 24      TSB $2447     	; 
008793 23 dc         AND $dc,S     
008795 01 ba         ORA ($ba,X)     
008797 ff 21 cd 05   SBC $05cd21,X     
00879b 16 0a         ASL $0a,X     
00879d 1b            TCS      
00879e 12 18         ORA ($18)     
0087a0 22 0c 07 1d   JSL $1d070c     
0087a4 12 16         ORA ($16)     
0087a6 0e 24 1e      ASL $1e24     	; 
0087a9 19 ff 21      ORA $21ff,Y     
0087ac cd 05 16      CMP $1605     	; 
0087af 0a            ASL      
0087b0 1b            TCS      
0087b1 12 18         ORA ($18)     
0087b3 22 0b 09 10   JSL $10090b     
0087b7 0a            ASL      
0087b8 16 0e         ASL $0e,X     
0087ba 24 18         BIT $18     
0087bc 1f 0e 1b ff   ORA $ff1b0e,X     
0087c0 25 84         AND $84     
0087c2 15 20         ORA $20,X     
0087c4 0e 15 0c      ASL $0c15     	; 
0087c7 18            CLC      
0087c8 16 0e         ASL $0e,X     
0087ca 24 1d         BIT $1d     
0087cc 18            CLC      
0087cd 24 20         BIT $20     
0087cf 0a            ASL      
0087d0 1b            TCS      
0087d1 19 24 23      ORA $2324,Y     
0087d4 18            CLC      
0087d5 17 0e         ORA [$0e],Y     
0087d7 2b            PLD      
0087d8 26 25         ROL $25     
0087da 01 24         ORA ($24,X)     
0087dc 26 2d         ROL $2d     
0087de 01 24         ORA ($24,X)     
0087e0 26 35         ROL $35     
0087e2 01 24         ORA ($24,X)     
0087e4 27 d9         AND [$d9]     
0087e6 46 aa         LSR $aa     
0087e8 27 e1         AND [$e1]     
0087ea 45 aa         EOR $aa     
0087ec ff 15 1e 12   SBC $121e15,X     
0087f0 10 12         BPL $8804     
0087f2 04 03         TSB $03     
0087f4 02 00         COP $00     
0087f6 24 05         BIT $05     
0087f8 24 00         BIT $00     
0087fa 08            PHP      
0087fb 07 06         ORA [$06]     
0087fd 00 00         BRK $00     
0087ff 00 27         BRK $27     
008801 27 46         AND [$46]     
008803 4e 59 61      LSR $6159     	; 
008806 6e 6e         ROR #$6e



008808 48            PHA      
008809 0a            ASL      
00880a a8            TAY      
00880b c0 04         CPY #$04     
00880d 90 0c         BCC $881b     
00880f c0 08         CPY #$08     
008811 90 02         BCC $8815     
008813 a0 08         LDY #$08     
008815 ad 7a 07      LDA $077a          ; 1~2 player flag.
008818 d0 01         BNE $881b          ; Branch if 2-player game.
00881a c8            INY      
00881b be fe 87      LDX $87fe,Y     
00881e a0 00         LDY #$00     
008820 bd 52 87      LDA $8752,X     
008823 c9 ff         CMP #$ff     
008825 f0 07         BEQ $882e     
008827 99 01 03      STA $0301,Y     
00882a e8            INX      
00882b c8            INY      
00882c d0 f2         BNE $8820     
00882e a9 00         LDA #$00     
008830 99 01 03      STA $0301,Y     
008833 68            PLA      
008834 aa            TAX      
008835 c9 04         CMP #$04     
008837 b0 49         BCS $8882     
008839 ca            DEX      
00883a d0 23         BNE $885f

00883c ad 5a 07      LDA $075a          ; Load number of lives.
00883f 18            CLC      
008840 69 01         ADC #$01           ; Adjust by one.
008842 c9 0a         CMP #$0a           ; is it >= 10?
008844 90 07         BCC $884d          ; branch if no.
008846 e9 0a         SBC #$0a           ; yes: adjust by 10.
008848 a0 9f         LDY #$9f           ; set $0308 to this value.
00884a 8c 08 03      STY $0308     	; 
00884d 8d 09 03      STA $0309          ; store adjusted numlives here.
008850 ac 5f 07      LDY $075f     	; 
008853 c8            INY      
008854 8c 14 03      STY $0314     	; 
008857 ac 5c 07      LDY $075c     	; 
00885a c8            INY      
00885b 8c 16 03      STY $0316     	; 
00885e 60            RTS

00885f ad 7a 07      LDA $077a     	; 
008862 f0 1d         BEQ $8881     
008864 ad 53 07      LDA $0753     	; 
008867 ca            DEX      
008868 d0 09         BNE $8873     
00886a ac 70 07      LDY $0770     	; 
00886d c0 03         CPY #$03     
00886f f0 02         BEQ $8873     
008871 49 01         EOR #$01     
008873 4a            LSR      
008874 90 0b         BCC $8881     
008876 a0 04         LDY #$04     
008878 b9 ed 87      LDA $87ed,Y     
00887b 99 04 03      STA $0304,Y     
00887e 88            DEY      
00887f 10 f7         BPL $8878     
008881 60            RTS      
008882 e9 04         SBC #$04     
008884 0a            ASL      
008885 0a            ASL      
008886 aa            TAX      
008887 a0 00         LDY #$00     
008889 bd f2 87      LDA $87f2,X     
00888c 99 1c 03      STA $031c,Y     
00888f e8            INX      
008890 c8            INY      
008891 c8            INY      
008892 c8            INY      
008893 c8            INY      
008894 c0 0c         CPY #$0c     
008896 90 f1         BCC $8889     
008898 a9 2c         LDA #$2c     
00889a 4c 3f 86      JMP $863f     	; 
00889d ad a0 07      LDA $07a0     	; 
0088a0 d0 0b         BNE $88ad     
0088a2 20 20 82      JSR $8220          ; ypos' in oambuff to #$f8.
0088a5 a9 07         LDA #$07     
0088a7 8d a0 07      STA $07a0     	; 
0088aa ee 3c 07      INC $073c     	; 
0088ad 60            RTS      
0088ae ad 26 07      LDA $0726     	; 
0088b1 29 01         AND #$01     
0088b3 85 05         STA $05     
0088b5 ac 40 03      LDY $0340     	; 
0088b8 84 00         STY $00     
0088ba ad 21 07      LDA $0721     	; 
0088bd 99 42 03      STA $0342,Y     
0088c0 ad 20 07      LDA $0720     	; 
0088c3 99 41 03      STA $0341,Y     
0088c6 a9 9a         LDA #$9a     
0088c8 99 43 03      STA $0343,Y     
0088cb a9 00         LDA #$00     
0088cd 85 04         STA $04     
0088cf aa            TAX      
0088d0 86 01         STX $01     
0088d2 bd a1 06      LDA $06a1,X     
0088d5 29 c0         AND #$c0     
0088d7 85 03         STA $03     
0088d9 0a            ASL      
0088da 2a            ROL      
0088db 2a            ROL      
0088dc a8            TAY      
0088dd b9 08 8b      LDA $8b08,Y     
0088e0 85 06         STA $06     
0088e2 b9 0c 8b      LDA $8b0c,Y     
0088e5 85 07         STA $07     
0088e7 bd a1 06      LDA $06a1,X     
0088ea 0a            ASL      
0088eb 0a            ASL      
0088ec 85 02         STA $02     
0088ee ad 1f 07      LDA $071f     	; 
0088f1 29 01         AND #$01     
0088f3 49 01         EOR #$01     
0088f5 0a            ASL      
0088f6 65 02         ADC $02     
0088f8 a8            TAY      
0088f9 a6 00         LDX $00     
0088fb b1 06         LDA ($06),Y     
0088fd 9d 44 03      STA $0344,X     
008900 c8            INY      
008901 b1 06         LDA ($06),Y     
008903 9d 45 03      STA $0345,X     
008906 a4 04         LDY $04     
008908 a5 05         LDA $05     
00890a d0 0e         BNE $891a     
00890c a5 01         LDA $01     
00890e 4a            LSR      
00890f b0 19         BCS $892a     
008911 26 03         ROL $03     
008913 26 03         ROL $03     
008915 26 03         ROL $03     
008917 4c 30 89      JMP $8930     	; 
00891a a5 01         LDA $01     
00891c 4a            LSR      
00891d b0 0f         BCS $892e     
00891f 46 03         LSR $03     
008921 46 03         LSR $03     
008923 46 03         LSR $03     
008925 46 03         LSR $03     
008927 4c 30 89      JMP $8930     	; 
00892a 46 03         LSR $03     
00892c 46 03         LSR $03     
00892e e6 04         INC $04     
008930 b9 f9 03      LDA $03f9,Y     
008933 05 03         ORA $03     
008935 99 f9 03      STA $03f9,Y     
008938 e6 00         INC $00     
00893a e6 00         INC $00     
00893c a6 01         LDX $01     
00893e e8            INX      
00893f e0 0d         CPX #$0d     
008941 90 8d         BCC $88d0     
008943 a4 00         LDY $00     
008945 c8            INY      
008946 c8            INY      
008947 c8            INY      
008948 a9 00         LDA #$00     
00894a 99 41 03      STA $0341,Y     
00894d 8c 40 03      STY $0340     	; 
008950 ee 21 07      INC $0721     	; 
008953 ad 21 07      LDA $0721     	; 
008956 29 1f         AND #$1f     
008958 d0 0d         BNE $8967     
00895a a9 80         LDA #$80     
00895c 8d 21 07      STA $0721     	; 
00895f ad 20 07      LDA $0720     	; 
008962 49 04         EOR #$04     
008964 8d 20 07      STA $0720     	; 
008967 4c bd 89      JMP $89bd     	; 
00896a ad 21 07      LDA $0721     	; 
00896d 29 1f         AND #$1f     
00896f 38            SEC      
008970 e9 04         SBC #$04     
008972 29 1f         AND #$1f     
008974 85 01         STA $01     
008976 ad 20 07      LDA $0720     	; 
008979 b0 02         BCS $897d     
00897b 49 04         EOR #$04     
00897d 29 04         AND #$04     
00897f 09 23         ORA #$23     
008981 85 00         STA $00     
008983 a5 01         LDA $01     
008985 4a            LSR      
008986 4a            LSR      
008987 69 c0         ADC #$c0     
008989 85 01         STA $01     
00898b a2 00         LDX #$00     
00898d ac 40 03      LDY $0340     	; 
008990 a5 00         LDA $00     
008992 99 41 03      STA $0341,Y     
008995 a5 01         LDA $01     
008997 18            CLC      
008998 69 08         ADC #$08     
00899a 99 42 03      STA $0342,Y     
00899d 85 01         STA $01     
00899f bd f9 03      LDA $03f9,X     
0089a2 99 44 03      STA $0344,Y     
0089a5 a9 01         LDA #$01     
0089a7 99 43 03      STA $0343,Y     
0089aa 4a            LSR      
0089ab 9d f9 03      STA $03f9,X     
0089ae c8            INY      
0089af c8            INY      
0089b0 c8            INY      
0089b1 c8            INY      
0089b2 e8            INX      
0089b3 e0 07         CPX #$07     
0089b5 90 d9         BCC $8990     
0089b7 99 41 03      STA $0341,Y     
0089ba 8c 40 03      STY $0340     	; 
0089bd a9 06         LDA #$06     
0089bf 8d 73 07      STA $0773     	; 
0089c2 60            RTS




0089c3 27 27         AND [$27]     
0089c5 27 17         AND [$17]     
0089c7 07 17         ORA [$17]     
0089c9 3f 0c 04 ff   AND $ff040c,X     
0089cd ff ff ff 00   SBC $00ffff,X     
0089d1 0f 07 12 0f   ORA $0f1207     
0089d5 0f 07 17 0f   ORA $0f1707     
0089d9 0f 07 17 1c   ORA $1c1707     
0089dd 0f 07 17 00   ORA $001707



0089e1 a5 09         LDA $09     
0089e3 29 07         AND #$07     
0089e5 d0 51         BNE $8a38     
0089e7 ae 00 03      LDX $0300     	; 
0089ea e0 31         CPX #$31     
0089ec b0 4a         BCS $8a38     
0089ee a8            TAY      
0089ef b9 c9 89      LDA $89c9,Y     
0089f2 9d 01 03      STA $0301,X     
0089f5 e8            INX      
0089f6 c8            INY      
0089f7 c0 08         CPY #$08     
0089f9 90 f4         BCC $89ef     
0089fb ae 00 03      LDX $0300     	; 
0089fe a9 03         LDA #$03     
008a00 85 00         STA $00     
008a02 ad 4e 07      LDA $074e     	; 
008a05 0a            ASL      
008a06 0a            ASL      
008a07 a8            TAY      
008a08 b9 d1 89      LDA $89d1,Y     
008a0b 9d 04 03      STA $0304,X     
008a0e c8            INY      
008a0f e8            INX      
008a10 c6 00         DEC $00     
008a12 10 f4         BPL $8a08     
008a14 ae 00 03      LDX $0300     	; 
008a17 ac d4 06      LDY $06d4     	; 
008a1a b9 c3 89      LDA $89c3,Y     
008a1d 9d 05 03      STA $0305,X     
008a20 ad 00 03      LDA $0300     	; 
008a23 18            CLC      
008a24 69 07         ADC #$07     
008a26 8d 00 03      STA $0300     	; 
008a29 ee d4 06      INC $06d4     	; 
008a2c ad d4 06      LDA $06d4     	; 
008a2f c9 06         CMP #$06     
008a31 90 05         BCC $8a38     
008a33 a9 00         LDA #$00     
008a35 8d d4 06      STA $06d4     	; 
008a38 60            RTS





008a39 45 45         EOR $45     
008a3b 47 47         EOR [$47]     
008a3d 47 47         EOR [$47]     
008a3f 47 47         EOR [$47]     
008a41 57 58         EOR [$58],Y     
008a43 59 5a 24      EOR $245a,Y     
008a46 24 24         BIT $24     
008a48 24 26         BIT $26     
008a4a 26 26         ROL $26     
008a4c 26 a0         ROL $a0     
008a4e 41 a9         EOR ($a9,X)     
008a50 03 ae         ORA $ae,S     
008a52 4e 07 d0      LSR $d007     	; 
008a55 02 a9         COP $a9     
008a57 04 20         TSB $20


008a59 97 8a         STA [$8a],Y     
008a5b a9 06         LDA #$06     
008a5d 8d 73 07      STA $0773     	; 
008a60 60            RTS


008a61 20 6d 8a      JSR $8a6d     	; 
008a64 ee f0 03      INC $03f0     	; 
008a67 de ec 03      DEC $03ec,X     
008a6a 60            RTS

008a6b a9 00         LDA #$00     
008a6d a0 03         LDY #$03     
008a6f c9 00         CMP #$00     
008a71 f0 14         BEQ $8a87     
008a73 a0 00         LDY #$00     
008a75 c9 58         CMP #$58     
008a77 f0 0e         BEQ $8a87     
008a79 c9 51         CMP #$51     
008a7b f0 0a         BEQ $8a87     
008a7d c8            INY      
008a7e c9 5d         CMP #$5d     
008a80 f0 05         BEQ $8a87     
008a82 c9 52         CMP #$52     
008a84 f0 01         BEQ $8a87     
008a86 c8            INY      
008a87 98            TYA      
008a88 ac 00 03      LDY $0300     	; 
008a8b c8            INY      
008a8c 20 97 8a      JSR $8a97     	; 
008a8f 88            DEY      
008a90 98            TYA      
008a91 18            CLC      
008a92 69 0a         ADC #$0a     
008a94 4c 3f 86      JMP $863f     	; 
008a97 86 00         STX $00     
008a99 84 01         STY $01     
008a9b 0a            ASL      
008a9c 0a            ASL      
008a9d aa            TAX      
008a9e a0 20         LDY #$20     
008aa0 a5 06         LDA $06     
008aa2 c9 d0         CMP #$d0     
008aa4 90 02         BCC $8aa8     
008aa6 a0 24         LDY #$24     
008aa8 84 03         STY $03     
008aaa 29 0f         AND #$0f     
008aac 0a            ASL      
008aad 85 04         STA $04     
008aaf a9 00         LDA #$00     
008ab1 85 05         STA $05     
008ab3 a5 02         LDA $02     
008ab5 18            CLC      
008ab6 69 20         ADC #$20     
008ab8 0a            ASL      
008ab9 26 05         ROL $05     
008abb 0a            ASL      
008abc 26 05         ROL $05     
008abe 65 04         ADC $04     
008ac0 85 04         STA $04     
008ac2 a5 05         LDA $05     
008ac4 69 00         ADC #$00     
008ac6 18            CLC      
008ac7 65 03         ADC $03     
008ac9 85 05         STA $05     
008acb a4 01         LDY $01     
008acd bd 39 8a      LDA $8a39,X     
008ad0 99 03 03      STA $0303,Y     
008ad3 bd 3a 8a      LDA $8a3a,X     
008ad6 99 04 03      STA $0304,Y     
008ad9 bd 3b 8a      LDA $8a3b,X     
008adc 99 08 03      STA $0308,Y     
008adf bd 3c 8a      LDA $8a3c,X     
008ae2 99 09 03      STA $0309,Y     
008ae5 a5 04         LDA $04     
008ae7 99 01 03      STA $0301,Y     
008aea 18            CLC      
008aeb 69 20         ADC #$20     
008aed 99 06 03      STA $0306,Y     
008af0 a5 05         LDA $05     
008af2 99 00 03      STA $0300,Y     
008af5 99 05 03      STA $0305,Y     
008af8 a9 02         LDA #$02     
008afa 99 02 03      STA $0302,Y     
008afd 99 07 03      STA $0307,Y     
008b00 a9 00         LDA #$00     
008b02 99 0a 03      STA $030a,Y     
008b05 a6 00         LDX $00     
008b07 60            RTS


008b08 10 ac         BPL $8ab6     
008b0a 64 8c         STZ $8c     
008b0c 8b            PHB      
008b0d 8b            PHB      
008b0e 8c 8c 24      STY $248c     	; 
008b11 24 24         BIT $24     
008b13 24 27         BIT $27     
008b15 27 27         AND [$27]     
008b17 27 24         AND [$24]     
008b19 24 24         BIT $24     
008b1b 35 36         AND $36,X     
008b1d 25 37         AND $37     
008b1f 25 24         AND $24     
008b21 38            SEC      
008b22 24 24         BIT $24     
008b24 24 30         BIT $30     
008b26 30 26         BMI $8b4e     
008b28 26 26         ROL $26     
008b2a 34 26         BIT $26,X     
008b2c 24 31         BIT $31     
008b2e 24 32         BIT $32     
008b30 33 26         AND ($26,S),Y     
008b32 24 33         BIT $33     
008b34 34 26         BIT $26,X     
008b36 26 26         ROL $26     
008b38 26 26         ROL $26     
008b3a 26 26         ROL $26     
008b3c 24 c0         BIT $c0     
008b3e 24 c0         BIT $c0     
008b40 24 7f         BIT $7f     
008b42 7f 24 b8 ba   ADC $bab824,X     
008b46 b9 bb b8      LDA $b8bb,Y     
008b49 bc b9 bd      LDY $bdb9,X     
008b4c ba            TSX      
008b4d bc bb bd      LDY $bdbb,X     
008b50 60            RTS      
008b51 64 61         STZ $61     
008b53 65 62         ADC $62     
008b55 66 63         ROR $63     
008b57 67 60         ADC [$60]     
008b59 64 61         STZ $61     
008b5b 65 62         ADC $62     
008b5d 66 63         ROR $63     
008b5f 67 68         ADC [$68]     
008b61 68            PLA      
008b62 69 69         ADC #$69     
008b64 26 26         ROL $26     
008b66 6a            ROR      
008b67 6a            ROR      
008b68 4b            PHK      
008b69 4c 4d 4e      JMP $4e4d     	; 
008b6c 4d 4f 4d      EOR $4d4f     	; 
008b6f 4f 4d 4e 50   EOR $504e4d     
008b73 51 6b         EOR ($6b),Y     
008b75 70 2c         BVS $8ba3     
008b77 2d 6c 71      AND $716c     	; 
008b7a 6d 72 6e      ADC $6e72     	; 
008b7d 73 6f         ADC ($6f,S),Y     
008b7f 74 86         STZ $86,X     
008b81 8a            TXA      
008b82 87 8b         STA [$8b]     
008b84 88            DEY      
008b85 8c 88 8c      STY $8c88     	; 
008b88 89 8d         BIT #$8d     
008b8a 69 69         ADC #$69     
008b8c 8e 91 8f      STX $8f91     	; 
008b8f 92 26         STA ($26)     
008b91 93 26         STA ($26,S),Y     
008b93 93 90         STA ($90,S),Y     
008b95 94 69         STY $69,X     
008b97 69 a4         ADC #$a4     
008b99 e9 ea         SBC #$ea     
008b9b eb            XBA      
008b9c 24 24         BIT $24     
008b9e 24 24         BIT $24     
008ba0 24 2f         BIT $2f     
008ba2 24 3d         BIT $3d     
008ba4 a2 a2         LDX #$a2     
008ba6 a3 a3         LDA $a3,S     
008ba8 24 24         BIT $24     
008baa 24 24         BIT $24     
008bac a2 a2         LDX #$a2     
008bae a3 a3         LDA $a3,S     
008bb0 99 24 99      STA $9924,Y     
008bb3 24 24         BIT $24     
008bb5 a2 3e         LDX #$3e     
008bb7 3f 5b 5c 24   AND $245c5b,X     
008bbb a3 24         LDA $24,S     
008bbd 24 24         BIT $24     
008bbf 24 9d         BIT $9d     
008bc1 47 9e         EOR [$9e]     
008bc3 47 47         EOR [$47]     
008bc5 47 27         EOR [$27]     
008bc7 27 47         AND [$47]     
008bc9 47 47         EOR [$47]     
008bcb 47 27         EOR [$27]     
008bcd 27 47         AND [$47]     
008bcf 47 a9         EOR [$a9]     
008bd1 47 aa         EOR [$aa]     
008bd3 47 9b         EOR [$9b]     
008bd5 27 9c         AND [$9c]     
008bd7 27 27         AND [$27]     
008bd9 27 27         AND [$27]     
008bdb 27 52         AND [$52]     
008bdd 52 52         EOR ($52)     
008bdf 52 80         EOR ($80)     
008be1 a0 81         LDY #$81     
008be3 a1 be         LDA ($be,X)     
008be5 be bf bf      LDX $bfbf,Y     
008be8 75 ba         ADC $ba,X     
008bea 76 bb         ROR $bb,X     
008bec ba            TSX      
008bed ba            TSX      
008bee bb            TYX      
008bef bb            TYX      
008bf0 45 47         EOR $47     
008bf2 45 47         EOR $47     
008bf4 47 47         EOR [$47]     
008bf6 47 47         EOR [$47]     
008bf8 45 47         EOR $47     
008bfa 45 47         EOR $47     
008bfc b4 b6         LDY $b6,X     
008bfe b5 b7         LDA $b7,X     
008c00 45 47         EOR $47     
008c02 45 47         EOR $47     
008c04 45 47         EOR $47     
008c06 45 47         EOR $47     
008c08 45 47         EOR $47     
008c0a 45 47         EOR $47     
008c0c 45 47         EOR $47     
008c0e 45 47         EOR $47     
008c10 45 47         EOR $47     
008c12 45 47         EOR $47     
008c14 47 47         EOR [$47]     
008c16 47 47         EOR [$47]     
008c18 47 47         EOR [$47]     
008c1a 47 47         EOR [$47]     
008c1c 47 47         EOR [$47]     
008c1e 47 47         EOR [$47]     
008c20 47 47         EOR [$47]     
008c22 47 47         EOR [$47]     
008c24 47 47         EOR [$47]     
008c26 47 47         EOR [$47]     
008c28 24 24         BIT $24     
008c2a 24 24         BIT $24     
008c2c 24 24         BIT $24     
008c2e 24 24         BIT $24     
008c30 ab            PLB      
008c31 ac ad ae      LDY $aead     	; 
008c34 5d 5e 5d      EOR $5d5e,X     
008c37 5e c1 24      LSR $24c1,X     
008c3a c1 24         CMP ($24,X)     
008c3c c6 c8         DEC $c8     
008c3e c7 c9         CMP [$c9]     
008c40 ca            DEX      
008c41 cc cb cd      CPY $cdcb     	; 
008c44 2a            ROL      
008c45 2a            ROL      
008c46 40            RTI      
008c47 40            RTI      
008c48 24 24         BIT $24     
008c4a 24 24         BIT $24     
008c4c 24 47         BIT $47     
008c4e 24 47         BIT $47     
008c50 82 83 84      BRL $0010d6     
008c53 85 24         STA $24     
008c55 47 24         EOR [$24]     
008c57 47 86         EOR [$86]     
008c59 8a            TXA      
008c5a 87 8b         STA [$8b]     
008c5c 8e 91 8f      STX $8f91     	; 
008c5f 92 24         STA ($24)     
008c61 2f 24 3d 24   AND $243d24     
008c65 24 24         BIT $24     
008c67 35 36         AND $36,X     
008c69 25 37         AND $37     
008c6b 25 24         AND $24     
008c6d 38            SEC      
008c6e 24 24         BIT $24     
008c70 24 24         BIT $24     
008c72 39 24 3a      AND $3a24,Y     
008c75 24 3b         BIT $3b     
008c77 24 3c         BIT $3c     
008c79 24 24         BIT $24     
008c7b 24 41         BIT $41     
008c7d 26 41         ROL $41     
008c7f 26 26         ROL $26     
008c81 26 26         ROL $26     
008c83 26 b0         ROL $b0     
008c85 b1 b2         LDA ($b2),Y     
008c87 b3 77         LDA ($77,S),Y     
008c89 79 77 79      ADC $7977,Y     
008c8c 53 55         EOR ($55,S),Y     
008c8e 54 56 53      MVN $56,$53     
008c91 55 54         EOR $54,X     
008c93 56 a5         LSR $a5,X     
008c95 a7 a6         LDA [$a6]     
008c97 a8            TAY      
008c98 c2 c4         REP #$c4     
008c9a c3 c5         CMP $c5,S     
008c9c 57 59         EOR [$59],Y     
008c9e 58            CLI      
008c9f 5a            PHY      
008ca0 7b            TDC      
008ca1 7d 7c 7e      ADC $7e7c,X     
008ca4 3f 00 20 0f   AND $0f2000,X     
008ca8 15 12         ORA $12,X     
008caa 25 0f         AND $0f     
008cac 3a            DEC      
008cad 1a            INC      
008cae 0f 0f 30 12   ORA $12300f     
008cb2 0f 0f 27 12   ORA $12270f     
008cb6 0f 22 16 27   ORA $271622     
008cba 18            CLC      
008cbb 0f 10 30 27   ORA $273010     
008cbf 0f 16 30 27   ORA $273016     
008cc3 0f 0f 30 10   ORA $10300f     
008cc7 00 3f         BRK $3f     
008cc9 00 20         BRK $20     
008ccb 0f 29 1a 0f   ORA $0f1a29     
008ccf 0f 36 17 0f   ORA $0f1736     
008cd3 0f 30 21 0f   ORA $0f2130     
008cd7 0f 27 17 0f   ORA $0f1727     
008cdb 0f 16 27 18   ORA $182716     
008cdf 0f 1a 30 27   ORA $27301a     
008ce3 0f 16 30 27   ORA $273016     
008ce7 0f 0f 36 17   ORA $17360f     
008ceb 00 3f         BRK $3f     
008ced 00 20         BRK $20     
008cef 0f 29 1a 09   ORA $091a29     
008cf3 0f 3c 1c 0f   ORA $0f1c3c     
008cf7 0f 30 21 1c   ORA $1c2130     
008cfb 0f 27 17 1c   ORA $1c1727     
008cff 0f 16 27 18   ORA $182716     
008d03 0f 1c 36 17   ORA $17361c     
008d07 0f 16 30 27   ORA $273016     
008d0b 0f 0c 3c 1c   ORA $1c3c0c     
008d0f 00 3f         BRK $3f     
008d11 00 20         BRK $20     
008d13 0f 30 10 00   ORA $001030     
008d17 0f 30 10 00   ORA $001030     
008d1b 0f 30 16 00   ORA $001630     
008d1f 0f 27 17 00   ORA $001727     
008d23 0f 16 27 18   ORA $182716     
008d27 0f 1c 36 17   ORA $17361c     
008d2b 0f 16 30 27   ORA $273016     
008d2f 0f 00 30 10   ORA $103000     
008d33 00 3f         BRK $3f     
008d35 00 04         BRK $04     
008d37 22 30 00 10   JSL $100030     
008d3b 00 3f         BRK $3f     
008d3d 00 04         BRK $04     
008d3f 0f 30 00 10   ORA $100030     
008d43 00 3f         BRK $3f     
008d45 00 04         BRK $04     
008d47 22 27 16 0f   JSL $0f1627     
008d4b 00 3f         BRK $3f     
008d4d 14 04         TRB $04     
008d4f 0f 1a 30 27   ORA $27301a     
008d53 00 25         BRK $25     
008d55 48            PHA      
008d56 10 1d         BPL $8d75     
008d58 11 0a         ORA ($0a),Y     
008d5a 17 14         ORA [$14],Y     
008d5c 24 22         BIT $22     
008d5e 18            CLC      
008d5f 1e 24 16      ASL $1624,X     
008d62 0a            ASL      
008d63 1b            TCS      
008d64 12 18         ORA ($18)     
008d66 2b            PLD      
008d67 00 25         BRK $25     
008d69 48            PHA      
008d6a 10 1d         BPL $8d89     
008d6c 11 0a         ORA ($0a),Y     
008d6e 17 14         ORA [$14],Y     
008d70 24 22         BIT $22     
008d72 18            CLC      
008d73 1e 24 15      ASL $1524,X     
008d76 1e 12 10      ASL $1012,X     
008d79 12 2b         ORA ($2b)     
008d7b 00 25         BRK $25     
008d7d c5 16         CMP $16     
008d7f 0b            PHD      
008d80 1e 1d 24      ASL $241d,X     
008d83 18            CLC      
008d84 1e 1b 24      ASL $241b,X     
008d87 19 1b 12      ORA $121b,Y     
008d8a 17 0c         ORA [$0c],Y     
008d8c 0e 1c 1c      ASL $1c1c     	; 
008d8f 24 12         BIT $12     
008d91 1c 24 12      TRB $1224     	; 
008d94 17 26         ORA [$26],Y     
008d96 05 0f         ORA $0f     
008d98 0a            ASL      
008d99 17 18         ORA [$18],Y     
008d9b 1d 11 0e      ORA $0e11,X     
008d9e 1b            TCS      
008d9f 24 0c         BIT $0c     
008da1 0a            ASL      
008da2 1c 1d 15      TRB $151d     	; 
008da5 0e 2b 00      ASL $002b     
008da8 25 a7         AND $a7     
008daa 13 22         ORA ($22,S),Y     
008dac 18            CLC      
008dad 1e 1b 24      ASL $241b,X     
008db0 1a            INC      
008db1 1e 0e 1c      ASL $1c0e,X     
008db4 1d 24 12      ORA $1224,X     
008db7 1c 24 18      TRB $1824     	; 
008dba 1f 0e 1b af   ORA $af1b0e,X     
008dbe 00 25         BRK $25     
008dc0 e3 1b         SBC $1b,S     
008dc2 20 0e 24      JSR $240e     	; 
008dc5 19 1b 0e      ORA $0e1b,Y     
008dc8 1c 0e 17      TRB $170e     	; 
008dcb 1d 24 22      ORA $2224,X     
008dce 18            CLC      
008dcf 1e 24 0a      ASL $0a24,X     
008dd2 24 17         BIT $17     
008dd4 0e 20 24      ASL $2420     	; 
008dd7 1a            INC      
008dd8 1e 0e 1c      ASL $1c0e,X     
008ddb 1d af 00      ORA $00af,X     
008dde 26 4a         ROL $4a     
008de0 0d 19 1e      ORA $1e19     	; 
008de3 1c 11 24      TRB $2411     	; 
008de6 0b            PHD      
008de7 1e 1d 1d      ASL $1d1d,X     
008dea 18            CLC      
008deb 17 24         ORA [$24],Y     
008ded 0b            PHD      
008dee 00 26         BRK $26     
008df0 88            DEY      
008df1 11 1d         ORA ($1d),Y     
008df3 18            CLC      
008df4 24 1c         BIT $1c     
008df6 0e 15 0e      ASL $0e15     	; 
008df9 0c 1d 24      TSB $241d     	; 
008dfc 0a            ASL      
008dfd 24 20         BIT $20     
008dff 18            CLC      
008e00 1b            TCS      
008e01 15 0d         ORA $0d,X     
008e03 00          BRK


;************ Jump Table routine ********************
;called with jump index in accum.
008e04 0a            ASL
008e05 a8            TAY      
008e06 68            PLA      
008e07 85 04         STA $04     
008e09 68            PLA      
008e0a 85 05         STA $05     
008e0c c8            INY      
008e0d b1 04         LDA ($04),Y     
008e0f 85 06         STA $06     
008e11 c8            INY      
008e12 b1 04         LDA ($04),Y     
008e14 85 07         STA $07     
008e16 6c 06 00      JMP ($0006)
;*************************************************


;read-reset ppu register.
008e19 ad 02 20      LDA $2002     	; PPU Status Register (vhsW----)
008e1c ad 78 07      LDA $0778          ; load ppucnt0hold.
008e1f 09 10         ORA #$10           ; force SPT addr to vram $1000.
008e21 29 f0         AND #$f0           ; force low nibble settings to 0.
008e23 20 ed 8e      JSR $8eed          ; ppucnt0 & ppucnt0hold update.

008e26 a9 24         LDA #$24           ; First pass value (vram addr: $2400)
008e28 20 2d 8e      JSR $8e2d          ; I love this technique! :)
008e2b a9 20         LDA #$20     
008e2d 8d 06 20      STA $2006     	; PPU Memory Address (aaaaaaaa)
008e30 a9 00         LDA #$00     
008e32 8d 06 20      STA $2006     	; PPU Memory Address (aaaaaaaa)

; set #$03c0 bytes of vram with #$24.
008e35 a2 04         LDX #$04           ; page count.
008e37 a0 c0         LDY #$c0           ; byte count.
008e39 a9 24         LDA #$24           ; write value.
008e3b 8d 07 20      STA $2007          ; PPU I/O Register
008e3e 88            DEY      
008e3f d0 fa         BNE $8e3b     
008e41 ca            DEX      
008e42 d0 f7         BNE $8e3b

;zero 64-bytes of vram.
008e44 a0 40         LDY #$40     
008e46 8a            TXA      
008e47 8d 00 03      STA $0300     	; 
008e4a 8d 01 03      STA $0301     	; 
008e4d 8d 07 20      STA $2007          ; PPU I/O Register
008e50 88            DEY      
008e51 d0 fa         BNE $8e4d

008e53 8d 3f 07      STA $073f          ; BGSCROL Horizontal hold.
008e56 8d 40 07      STA $0740          ; BGSCROL Vertical hold.
008e59 4c e6 8e      JMP $8ee6          ; Zero scroll and rts.
;-------------------------------------------------------------------


;----------------------------------------------------------------------
;JoyPort read.

008e5c a9 01         LDA #$01     
008e5e 8d 16 40      STA $4016     	; Serial JoyPort (In: D0=Joy0, D1=Joy2) (Out: 0,1,2)JoyPort #0 Register Reading:(???STeed) - Writing:(????eej)
008e61 4a            LSR                ; quick "0".
008e62 aa            TAX                ; Init X.
008e63 8d 16 40      STA $4016     	; Serial JoyPort (In: D0=Joy0, D1=Joy2) (Out: 0,1,2)JoyPort #0 Register Reading:(???STeed) - Writing:(????eej)
008e66 20 6a 8e      JSR $8e6a          ; wow, that's clever!
008e69 e8            INX                ; index Joyport1.

008e6a a0 08         LDY #$08           ; Setup count.
008e6c 48            PHA      
008e6d bd 16 40      LDA $4016,X        ; fetch port data.
008e70 85 00         STA $00            ; store in temp.
008e72 4a            LSR                ; shift port status to do the following...
008e73 05 00         ORA $00            ; merge port status with button press.
008e75 4a            LSR                ; shift in Carry
008e76 68            PLA                ; extract JoyPort parallel data.
008e77 2a            ROL                ; roll in portstatus/button press.
008e78 88            DEY                ; do for all buttons
008e79 d0 f1         BNE $8e6c

008e7b 9d fc 06      STA $06fc,X        ; $06fc=jp0,$06fd=jp1.

008e7e 48            PHA      
008e7f 29 30         AND #$30           ;look for sel  start press.
008e81 3d 4a 07      AND $074a,X        ; erm..... effective press?
008e84 f0 07         BEQ $8e8d          ;

008e86 68            PLA      
008e87 29 cf         AND #$cf           ;else, mask out select and start.
008e89 9d fc 06      STA $06fc,X     
008e8c 60            RTS

008e8d 68            PLA      
008e8e 9d 4a 07      STA $074a,X     
008e91 60            RTS

;------------------------------------------------------------------

008e92 8d 06 20      STA $2006     	; PPU Memory Address (aaaaaaaa)
008e95 c8            INY      
008e96 b1 00         LDA ($00),Y     
008e98 8d 06 20      STA $2006     	; PPU Memory Address (aaaaaaaa)
008e9b c8            INY      
008e9c b1 00         LDA ($00),Y     
008e9e 0a            ASL                ; bit7->C.
008e9f 48            PHA      
008ea0 ad 78 07      LDA $0778          ; ppucnt0hold.
008ea3 09 04         ORA #$04           ; force ppu addr R/W increment to 32.
008ea5 b0 02         BCS $8ea9          ; branch if bit7 was 1.
008ea7 29 fb         AND #$fb           ; 0:  so, ppu addr R/W inc to 1.
008ea9 20 ed 8e      JSR $8eed          ; ppucnt0 & ppucnt0hold update.
008eac 68            PLA                ; restore attribute byte.
008ead 0a            ASL                ; bit6->
008eae 90 03         BCC $8eb3          ; branch if bit6 was 1.
008eb0 09 02         ORA #$02     
008eb2 c8            INY

008eb3 4a            LSR      
008eb4 4a            LSR      
008eb5 aa            TAX

008eb6 b0 01         BCS $8eb9     
008eb8 c8            INY      
008eb9 b1 00         LDA ($00),Y        ; fetch PPU data.
008ebb 8d 07 20      STA $2007          ; PPU I/O Register
008ebe ca            DEX      
008ebf d0 f5         BNE $8eb6

008ec1 38            SEC                ;ahh.. get ready to add 1.
008ec2 98            TYA                ;pass y to a to add to pointer.
008ec3 65 00         ADC $00     
008ec5 85 00         STA $00            ;update low byte of pointer.
008ec7 a9 00         LDA #$00           ; add potential carry.
008ec9 65 01         ADC $01     
008ecb 85 01         STA $01            ;update high byte of pointer.

008ecd a9 3f         LDA #$3f     
008ecf 8d 06 20      STA $2006     	; PPU Memory Address (aaaaaaaa)
008ed2 a9 00         LDA #$00     
008ed4 8d 06 20      STA $2006     	; PPU Memory Address (aaaaaaaa)
008ed7 8d 06 20      STA $2006     	; PPU Memory Address (aaaaaaaa)
008eda 8d 06 20      STA $2006     	; PPU Memory Address (aaaaaaaa)

;load this to note for sprite hit or sprite max.
008edd ae 02 20      LDX $2002     	; PPU Status Register (vhsW----)
008ee0 a0 00         LDY #$00           ; init y.
008ee2 b1 00         LDA ($00),Y     
008ee4 d0 ac         BNE $8e92          ; back to the top if not 0.
;zero scroll address.
008ee6 8d 05 20      STA $2005     	; Background Scroll Address (dddddddd)
008ee9 8d 05 20      STA $2005     	; Background Scroll Address (dddddddd)
008eec 60            RTS

;----------------------------------------------------------------------
;ppucnt0 & ppucnt0hold update.
008eed 8d 00 20      STA $2000     	; PPU Control Register #1 (vhzcpwNN)
008ef0 8d 78 07      STA $0778          ; ppucnt0hold.          ; 
008ef3 60            RTS



008ef4 f0 06         BEQ $8efc     
008ef6 62 06 62      PER #$6206     
008ef9 06 6d         ASL $6d     
008efb 02 6d         COP $6d     
008efd 02 7a         COP $7a     
008eff 03


008f00 06        
008f01 0c 12 18      TSB $1812     	; 
008f04 1e 24 85      ASL $8524,X

008f07 00 20         BRK $20     
008f09 11 8f         ORA ($8f),Y


008f0b a5 00         LDA $00     
008f0d 4a            LSR      
008f0e 4a            LSR      
008f0f 4a            LSR      
008f10 4a            LSR      
008f11 18            CLC      
008f12 69 01         ADC #$01     
008f14 29 0f         AND #$0f     
008f16 c9 06         CMP #$06     
008f18 b0 44         BCS $8f5e     
008f1a 48            PHA      
008f1b 0a            ASL      
008f1c a8            TAY      
008f1d ae 00 03      LDX $0300     	; 
008f20 a9 20         LDA #$20     
008f22 c0 00         CPY #$00     
008f24 d0 02         BNE $8f28     
008f26 a9 22         LDA #$22     
008f28 9d 01 03      STA $0301,X     
008f2b b9 f4 8e      LDA $8ef4,Y

008f2e 9d 02 03      STA $0302,X     
008f31 b9 f5 8e      LDA $8ef5,Y

008f34 9d 03 03      STA $0303,X     
008f37 85 03         STA $03     
008f39 86 02         STX $02     
008f3b 68            PLA      
008f3c aa            TAX      
008f3d bd 00 8f      LDA $8f00,X     
008f40 38            SEC      
008f41 f9 f5 8e      SBC $8ef5,Y     
008f44 a8            TAY

;--------------------------------------------------
;Transfer Score to Map buffer.
008f45 a6 02         LDX $02     
008f47 b9 d7 07      LDA $07d7,Y     
008f4a 9d 04 03      STA $0304,X     
008f4d e8            INX      
008f4e c8            INY      
008f4f c6 03         DEC $03     
008f51 d0 f4         BNE $8f47
;--------------------------------------------------

008f53 a9 00         LDA #$00     
008f55 9d 04 03      STA $0304,X     
008f58 e8            INX      
008f59 e8            INX      
008f5a e8            INX      
008f5b 8e 00 03      STX $0300     	; 
008f5e 60            RTS

;it seems the numbers are added lowest=highest index... wierd..
008f5f ad 70 07      LDA $0770          ; 
008f62 c9 00         CMP #$00     
008f64 f0 16         BEQ $8f7c          ; skip the next section if 0.

;
008f66 a2 05         LDX #$05           ; setup index.
008f68 bd 34 01      LDA $0134,X        ; fetch integer from converted new points.
008f6b 18            CLC      
008f6c 79 d7 07      ADC $07d7,Y        ; add to integer score.
008f6f 30 16         BMI $8f87          ; if bit7 set, then score has clocked.
008f71 c9 0a         CMP #$0a           ; check if it exceeds 9.
008f73 b0 19         BCS $8f8e          ; branch if yes.

008f75 99 d7 07      STA $07d7,Y        ; store in score table.
008f78 88            DEY      
008f79 ca            DEX      
008f7a 10 ec         BPL $8f68          ; do for all integers.

;zero integer version of new points.
008f7c a9 00         LDA #$00     
008f7e a2 06         LDX #$06     
008f80 9d 33 01      STA $0133,X     
008f83 ca            DEX      
008f84 10 fa         BPL $8f80     
008f86 60            RTS                ; return.

;Clocked score: default "9".
008f87 de 33 01      DEC $0133,X        ; erm, I'm not sure...
008f8a a9 09         LDA #$09     
008f8c d0 e7         BNE $8f75

;here when a carry over is needed.
008f8e 38            SEC      
008f8f e9 0a         SBC #$0a           ; make value to place.
008f91 fe 33 01      INC $0133,X        ; add the carry-over.
008f94 4c 75 8f      JMP $8f75          ; branch back into loop.

;---------------------------------------------------------

;arghhh!!!!!!!!!!!!!!!!   I FORGOT!!!  IT'S DOING
;2-PLAYER AS WELL! =)
008f97 a2 05         LDX #$05     
008f99 20 9e 8f      JSR $8f9e     	;

;******* HIGH SCORE CALCULATION **************

008f9c a2 0b         LDX #$0b           ;
008f9e a0 05         LDY #$05     
008fa0 38            SEC      
008fa1 bd dd 07      LDA $07dd,X     
008fa4 f9 d7 07      SBC $07d7,Y     
008fa7 ca            DEX      
008fa8 88            DEY      
008fa9 10 f6         BPL $8fa1

008fab 90 0e         BCC $8fbb          ; if carry clear, then exit.
008fad e8            INX      
008fae c8            INY

;**** Place new high score ****
008faf bd dd 07      LDA $07dd,X     
008fb2 99 d7 07      STA $07d7,Y     
008fb5 e8            INX      
008fb6 c8            INY      
008fb7 c0 06         CPY #$06     
008fb9 90 f4         BCC $8faf     
008fbb 60            RTS

;----------------------------------------------------------
008fbc 04 30         TSB $30     
008fbe 48            PHA      
008fbf 60            RTS      
008fc0 78            SEI      
008fc1 90 a8         BCC $8f6b     
008fc3 c0 d8         CPY #$d8     
008fc5 e8            INX      
008fc6 24 f8         BIT $f8     
008fc8 fc 28 2c      JSR ($2c28,X)     
008fcb 18            CLC      
008fcc ff 23 58


008fcf a0 6f         LDY #$6f           ; $076f.
008fd1 20 cc 90      JSR $90cc          ; zero $0700~$0100
008fd4 a0 1f         LDY #$1f           ; $07cf~$07b0
008fd6 99 b0 07      STA $07b0,Y     
008fd9 88            DEY      
008fda 10 fa         BPL $8fd6

008fdc a9 18         LDA #$18     
008fde 8d a2 07      STA $07a2     	; 
008fe1 20 03 9c      JSR $9c03     	;

008fe4 a0 4b         LDY #$4b           ; $074b
008fe6 20 cc 90      JSR $90cc     	; 
008fe9 a2 21         LDX #$21     
008feb a9 00         LDA #$00     
008fed 9d 80 07      STA $0780,X        ; $07a1~$0780.
008ff0 ca            DEX      
008ff1 10 fa         BPL $8fed

008ff3 ad 5b 07      LDA $075b     	; 
008ff6 ac 52 07      LDY $0752     	; 
008ff9 f0 03         BEQ $8ffe     
008ffb ad 51 07      LDA $0751     	; 
008ffe 8d 1a 07      STA $071a     	; 
009001 8d 25 07      STA $0725     	; 
009004 8d 28 07      STA $0728     	; 
009007 20 38 b0      JSR $b038     	; 
00900a a0 20         LDY #$20     
00900c 29 01         AND #$01     
00900e f0 02         BEQ $9012     
009010 a0 24         LDY #$24     
009012 8c 20 07      STY $0720     	; 
009015 a0 80         LDY #$80     
009017 8c 21 07      STY $0721     	; 
00901a 0a            ASL      
00901b 0a            ASL      
00901c 0a            ASL      
00901d 0a            ASL      
00901e 8d a0 06      STA $06a0     	; 
009021 ce 30 07      DEC $0730     	; 
009024 ce 31 07      DEC $0731     	; 
009027 ce 32 07      DEC $0732     	; 
00902a a9 0b         LDA #$0b     
00902c 8d 1e 07      STA $071e     	; 
00902f 20 22 9c      JSR $9c22     	; 
009032 ad 6a 07      LDA $076a     	; 
009035 d0 10         BNE $9047     
009037 ad 5f 07      LDA $075f     	; 
00903a c9 04         CMP #$04     
00903c 90 0c         BCC $904a     
00903e d0 07         BNE $9047     
009040 ad 5c 07      LDA $075c     	; 
009043 c9 02         CMP #$02     
009045 90 03         BCC $904a     
009047 ee cc 06      INC $06cc     	; 
00904a ad 5b 07      LDA $075b     	; 
00904d f0 05         BEQ $9054     
00904f a9 02         LDA #$02     
009051 8d 10 07      STA $0710     	; 
009054 a9 80         LDA #$80           ; Default this tune number.
009056 85 fb         STA $fb            ; Tune number.
009058 a9 01         LDA #$01     
00905a 8d 74 07      STA $0774     	; 
00905d ee 72 07      INC $0772     	; 
009060 60            RTS      
009061 a9 01         LDA #$01     
009063 8d 57 07      STA $0757     	; 
009066 8d 54 07      STA $0754     	; 
009069 a9 02         LDA #$02           ; Default number of lives to 3.
00906b 8d 5a 07      STA $075a          ; Store in number of lives.
00906e 8d 61 07      STA $0761          ; Also for alternative player.

009071 a9 00         LDA #$00     
009073 8d 74 07      STA $0774     	; 
009076 a8            TAY      
009077 99 00 03      STA $0300,Y        ; zero $0300~$03ff.
00907a c8            INY      
00907b d0 fa         BNE $9077

00907d 8d 59 07      STA $0759     	; 
009080 8d 69 07      STA $0769     	; 
009083 8d 28 07      STA $0728     	; 
009086 a9 ff         LDA #$ff     
009088 8d a0 03      STA $03a0     	; 
00908b ad 1a 07      LDA $071a     	; 
00908e 4e 78 07      LSR $0778          ; ppucnt0hold.          ; 
009091 29 01         AND #$01     
009093 6a            ROR      
009094 2e 78 07      ROL $0778          ; ppucnt0hold.          ; 
009097 20 ed 90      JSR $90ed     	; 
00909a a9 38         LDA #$38     
00909c 8d e3 06      STA $06e3     	; 
00909f a9 48         LDA #$48     
0090a1 8d e2 06      STA $06e2     	; 
0090a4 a9 58         LDA #$58     
0090a6 8d e1 06      STA $06e1     	; 
0090a9 a2 0e         LDX #$0e     
0090ab bd bc 8f      LDA $8fbc,X     
0090ae 9d e4 06      STA $06e4,X     
0090b1 ca            DEX      
0090b2 10 f7         BPL $90ab     
0090b4 a0 03         LDY #$03     
0090b6 b9 cb 8f      LDA $8fcb,Y     
0090b9 99 00 02      STA $0200,Y     
0090bc 88            DEY      
0090bd 10 f7         BPL $90b6     
0090bf 20 af 92      JSR $92af     	; 
0090c2 20 aa 92      JSR $92aa     	; 
0090c5 ee 22 07      INC $0722     	; 
0090c8 ee 72 07      INC $0772     	; 
0090cb 60            RTS

;zero $0700~$0100
0090cc a2 07         LDX #$07           ; setup pointer to $0700
0090ce a9 00         LDA #$00     
0090d0 85 06         STA $06

0090d2 86 07         STX $07

0090d4 e0 01         CPX #$01     
0090d6 d0 04         BNE $90dc          ; branch if not on page 1 (stack).
0090d8 c0 30         CPY #$30           ; exclude write to $0130~$01ff.
0090da b0 02         BCS $90de          ; branch if Y >= $30.
0090dc 91 06         STA ($06),Y        ; store zero.

0090de 88            DEY      
0090df c0 ff         CPY #$ff           ; loop for the byte count in page.
0090e1 d0 f1         BNE $90d4

0090e3 ca            DEX                ; adjust pointer.
0090e4 10 ec         BPL $90d2          ; branch for all pages down to 0.
0090e6 60            RTS


;Tune numbers.
0090e7 02 01         COP $01     
0090e9 04 08         TSB $08
0090eb 10 20         BPL $910d

0090ed ad 70 07      LDA $0770     	; 
0090f0 f0 23         BEQ $9115     
0090f2 ad 52 07      LDA $0752          ; Tune Select.
0090f5 c9 02         CMP #$02     
0090f7 f0 0d         BEQ $9106     
0090f9 a0 05         LDY #$05           ; Tune #5 index
0090fb ad 10 07      LDA $0710     	; 
0090fe c9 06         CMP #$06     
009100 f0 0e         BEQ $9110     
009102 c9 07         CMP #$07     
009104 f0 0a         BEQ $9110     
009106 ac 4e 07      LDY $074e          ; Preload Y with Tune index.
009109 ad 43 07      LDA $0743     	; 
00910c f0 02         BEQ $9110     
00910e a0 04         LDY #$04           ; Load Tune #4.
009110 b9 e7 90      LDA $90e7,Y        ; Tune Table.
009113 85 fb         STA $fb            ; Tune Hold.
009115 60            RTS

009116 28            PLP      
009117 18            CLC      
009118 38            SEC      
009119 28            PLP      
00911a 08            PHP      
00911b 00 00         BRK $00     
00911d 20 b0 50      JSR $50b0     	; 
009120 00 00         BRK $00     
009122 b0 b0         BCS $90d4     
009124 f0 00         BEQ $9126     
009126 20 00 00      JSR $0000     
009129 00 00         BRK $00     
00912b 00 00         BRK $00
00912d 20

00912e 04 03 02                         ; Game Clock values for nXX.

009131 ad 1a 07      LDA $071a
009134 85 6d         STA $6d
009136 a9 28         LDA #$28
009138 8d 0a 07      STA $070a     	; 
00913b a9 01         LDA #$01     
00913d 85 33         STA $33     
00913f 85 b5         STA $b5     
009141 a9 00         LDA #$00     
009143 85 1d         STA $1d     
009145 ce 90 04      DEC $0490     	; 
009148 a0 00         LDY #$00     
00914a 8c 5b 07      STY $075b     	; 
00914d ad 4e 07      LDA $074e     	; 
009150 d0 01         BNE $9153     
009152 c8            INY      
009153 8c 04 07      STY $0704     	; 
009156 ae 10 07      LDX $0710     	;

009159 ac 52 07      LDY $0752     	; 
00915c f0 07         BEQ $9165          ; Branch if index is 0...
00915e c0 01         CPY #$01           
009160 f0 03         BEQ $9165          ; or index is 1.

009162 be 18 91      LDX $9118,Y        ; Y !=0 || !=1: fetch X index.

009165 b9 16 91      LDA $9116,Y     
009168 85 86         STA $86

00916a bd 1c 91      LDA $911c,X     
00916d 85 ce         STA $ce

00916f bd 25 91      LDA $9125,X     
009172 8d c4 03      STA $03c4     	;

009175 20 f1 85      JSR $85f1     	; 
009178 ac 15 07      LDY $0715          ; Load Game Clock index.
00917b f0 1a         BEQ $9197          ; Skip Clock build if 0.
00917d ad 57 07      LDA $0757     	; 
009180 f0 15         BEQ $9197          ; Skip Clock build if 0.
009182 b9 2d 91      LDA $912d,Y        ; Load nXX of Game Clock.
009185 8d f8 07      STA $07f8          ; Game Clock nXX
009188 a9 01         LDA #$01           ; Default XXn of Game Clock.
00918a 8d fa 07      STA $07fa          ; Game Clock XXn
00918d 4a            LSR                ; "Quick zero".
00918e 8d f9 07      STA $07f9          ; Game Clock XnX.

009191 8d 57 07      STA $0757     	; 
009194 8d 9f 07      STA $079f     	;

009197 ac 58 07      LDY $0758     	; 
00919a f0 14         BEQ $91b0     
00919c a9 03         LDA #$03     
00919e 85 1d         STA $1d     
0091a0 a2 00         LDX #$00     
0091a2 20 84 bd      JSR $bd84     	; 
0091a5 a9 f0         LDA #$f0     
0091a7 85 d7         STA $d7     
0091a9 a2 05         LDX #$05     
0091ab a0 00         LDY #$00     
0091ad 20 1e b9      JSR $b91e     	; 
0091b0 ac 4e 07      LDY $074e     	; 
0091b3 d0 03         BNE $91b8     
0091b5 20 0b b7      JSR $b70b     	; 
0091b8 a9 07         LDA #$07     
0091ba 85 0e         STA $0e     
0091bc 60            RTS


0091bd 56 40         LSR $40,X     
0091bf 65 70         ADC $70     
0091c1 66 40         ROR $40     
0091c3 66 40         ROR $40     
0091c5 66 40         ROR $40     
0091c7 66 60         ROR $60     
0091c9 65 70         ADC $70     
0091cb 00 00         BRK $00

0091cd ee 74 07      INC $0774     	; 
0091d0 a9 00         LDA #$00     
0091d2 8d 22 07      STA $0722     	; 
0091d5 a9 80         LDA #$80     
0091d7 85 fc         STA $fc     
0091d9 ce 5a 07      DEC $075a          ; Decrement the number of lives.
0091dc 10 0b         BPL $91e9          ; Branch if player still has lives.

0091de a9 00         LDA #$00           ; No lives.
0091e0 8d 72 07      STA $0772     	; 
0091e3 a9 03         LDA #$03     
0091e5 8d 70 07      STA $0770     	; 
0091e8 60            RTS

0091e9 ad 5f 07      LDA $075f     	; 
0091ec 0a            ASL      
0091ed aa            TAX      
0091ee ad 5c 07      LDA $075c     	; 
0091f1 29 02         AND #$02     
0091f3 f0 01         BEQ $91f6     
0091f5 e8            INX      
0091f6 bc bd 91      LDY $91bd,X     
0091f9 ad 5c 07      LDA $075c     	; 
0091fc 4a            LSR      
0091fd 98            TYA      
0091fe b0 04         BCS $9204     
009200 4a            LSR      
009201 4a            LSR      
009202 4a            LSR      
009203 4a            LSR      
009204 29 0f         AND #$0f     
009206 cd 1a 07      CMP $071a     	; 
009209 f0 04         BEQ $920f     
00920b 90 02         BCC $920f     
00920d a9 00         LDA #$00     
00920f 8d 5b 07      STA $075b     	; 
009212 20 82 92      JSR $9282     	; 
009215 4c 64 92      JMP $9264     	;

009218 ad 72 07      LDA $0772     	; 
00921b 20 04 8e      JSR $8e04     	; 
00921e 24 92         BIT $92     
009220 67 85         ADC [$85]     
009222 37 92         AND [$92],Y     
009224 a9 00         LDA #$00     
009226 8d 3c 07      STA $073c     	; 
009229 8d 22 07      STA $0722     	; 
00922c a9 02         LDA #$02     
00922e 85 fc         STA $fc     
009230 ee 74 07      INC $0774     	; 
009233 ee 72 07      INC $0772     	; 
009236 60            RTS

009237 a9 00         LDA #$00     
009239 8d 74 07      STA $0774     	; 
00923c ad fc 06      LDA $06fc          ; pad0.
00923f 29 10         AND #$10           ; check for 'start'.
009241 d0 05         BNE $9248          ; branch if no.
009243 ad a0 07      LDA $07a0     	; 
009246 d0 39         BNE $9281     
009248 a9 80         LDA #$80     
00924a 85 fc         STA $fc     
00924c 20 82 92      JSR $9282     	; 
00924f 90 13         BCC $9264     
009251 ad 5f 07      LDA $075f     	; 
009254 8d fd 07      STA $07fd     	; 
009257 a9 00         LDA #$00     
009259 0a            ASL      
00925a 8d 72 07      STA $0772     	; 
00925d 8d a0 07      STA $07a0     	; 
009260 8d 70 07      STA $0770     	; 
009263 60            RTS

009264 20 03 9c      JSR $9c03     	; 
009267 a9 01         LDA #$01     
009269 8d 54 07      STA $0754     	; 
00926c ee 57 07      INC $0757     	; 
00926f a9 00         LDA #$00     
009271 8d 47 07      STA $0747     	; 
009274 8d 56 07      STA $0756     	; 
009277 85 0e         STA $0e     
009279 8d 72 07      STA $0772     	; 
00927c a9 01         LDA #$01     
00927e 8d 70 07      STA $0770     	; 
009281 60            RTS

;K, I'm guessing here...  First is a check on whether it's 2-player.
;Then it checks if the other player has any lives left.
;Then it swaps the alterative player's data for the current player.
009282 38            SEC      
009283 ad 7a 07      LDA $077a     	; 
009286 f0 21         BEQ $92a9     
009288 ad 61 07      LDA $0761     	; 
00928b 30 1c         BMI $92a9     
00928d ad 53 07      LDA $0753     	; 
009290 49 01         EOR #$01     
009292 8d 53 07      STA $0753     	;

009295 a2 06         LDX #$06     
009297 bd 5a 07      LDA $075a,X     
00929a 48            PHA      
00929b bd 61 07      LDA $0761,X     
00929e 9d 5a 07      STA $075a,X     
0092a1 68            PLA      
0092a2 9d 61 07      STA $0761,X     
0092a5 ca            DEX      
0092a6 10 ef         BPL $9297     
0092a8 18            CLC      
0092a9 60            RTS

0092aa a9 ff         LDA #$ff     
0092ac 8d c9 06      STA $06c9     	; 
0092af 60            RTS      
0092b0 ac 1f 07      LDY $071f     	; 
0092b3 d0 05         BNE $92ba     
0092b5 a0 08         LDY #$08     
0092b7 8c 1f 07      STY $071f     	; 
0092ba 88            DEY      
0092bb 98            TYA      
0092bc 20 c8 92      JSR $92c8     	; 
0092bf ce 1f 07      DEC $071f     	; 
0092c2 d0 03         BNE $92c7     
0092c4 20 6a 89      JSR $896a     	; 
0092c7 60            RTS

0092c8 20 04 8e      JSR $8e04     	; 
0092cb db            STP      
0092cc 92 ae         STA ($ae)     
0092ce 88            DEY      
0092cf ae 88 fc      LDX $fc88     	; 
0092d2 93 db         STA ($db,S),Y     
0092d4 92 ae         STA ($ae)     
0092d6 88            DEY      
0092d7 ae 88 fc      LDX $fc88     	; 
0092da 93 ee         STA ($ee,S),Y     
0092dc 26 07         ROL $07     
0092de ad 26 07      LDA $0726     	; 
0092e1 29 0f         AND #$0f     
0092e3 d0 06         BNE $92eb     
0092e5 8d 26 07      STA $0726     	; 
0092e8 ee 25 07      INC $0725     	; 
0092eb ee a0 06      INC $06a0     	; 
0092ee ad a0 06      LDA $06a0     	; 
0092f1 29 1f         AND #$1f     
0092f3 8d a0 06      STA $06a0     	; 
0092f6 60            RTS      
0092f7 00 30         BRK $30     
0092f9 60            RTS      
0092fa 93 00         STA ($00,S),Y     
0092fc 00 11         BRK $11     
0092fe 12 12         ORA ($12)     
009300 13 00         ORA ($00,S),Y     
009302 00 51         BRK $51     
009304 52 53         EOR ($53)     
009306 00 00         BRK $00     
009308 00 00         BRK $00     
00930a 00 00         BRK $00     
00930c 01 02         ORA ($02,X)     
00930e 02 03         COP $03     
009310 00 00         BRK $00     
009312 00 00         BRK $00     
009314 00 00         BRK $00     
009316 91 92         STA ($92),Y     
009318 93 00         STA ($00,S),Y     
00931a 00 00         BRK $00     
00931c 00 51         BRK $51     
00931e 52 53         EOR ($53)     
009320 41 42         EOR ($42,X)     
009322 43 00         EOR $,S     
009324 00 00         BRK $00     
009326 00 00         BRK $00     
009328 91 92         STA ($92),Y     
00932a 97 87         STA [$87],Y     
00932c 88            DEY      
00932d 89 99         BIT #$99     
00932f 00 00         BRK $00     
009331 00 11         BRK $11     
009333 12 13         ORA ($13)     
009335 a4 a5         LDY $a5     
009337 a5 a5         LDA $a5     
009339 a6 97         LDX $97     
00933b 98            TYA      
00933c 99 01 02      STA $0201,Y     
00933f 03 00         ORA $,S     
009341 a4 a5         LDY $a5     
009343 a6 00         LDX $00     
009345 11 12         ORA ($12),Y     
009347 12 12         ORA ($12)     
009349 13 00         ORA ($00,S),Y     
00934b 00 00         BRK $00     
00934d 00 01         BRK $01     
00934f 02 02         COP $02     
009351 03 00         ORA $,S     
009353 a4 a5         LDY $a5     
009355 a5 a6         LDA $a6     
009357 00 00         BRK $00     
009359 00 11         BRK $11     
00935b 12 12         ORA ($12)     
00935d 13 00         ORA ($00,S),Y     
00935f 00 00         BRK $00     
009361 00 00         BRK $00     
009363 00 00         BRK $00     
009365 9c 00 8b      STZ $8b00     	; 
009368 aa            TAX      
009369 aa            TAX      
00936a aa            TAX      
00936b aa            TAX      
00936c 11 12         ORA ($12),Y     
00936e 13 8b         ORA ($8b,S),Y     
009370 00 9c         BRK $9c     
009372 9c 00 00      STZ $0000     
009375 01 02         ORA ($02,X)     
009377 03 11         ORA $11,S     
009379 12 12         ORA ($12)     
00937b 13 00         ORA ($00,S),Y     
00937d 00 00         BRK $00     
00937f 00 aa         BRK $aa     
009381 aa            TAX      
009382 9c aa 00      STZ $00aa     
009385 8b            PHB      
009386 00 01         BRK $01     
009388 02 03         COP $03     
00938a 80 83         BRA $930f     
00938c 00 81         BRK $81     
00938e 84 00         STY $00     
009390 82 85 00      BRL $009418     
009393 02 00         COP $00     
009395 00 03         BRK $03     
009397 00 00         BRK $00     
009399 04 00         TSB $00     
00939b 00 00         BRK $00     
00939d 05 06         ORA $06     
00939f 07 06         ORA [$06]     
0093a1 0a            ASL      
0093a2 00 08         BRK $08     
0093a4 09 4d         ORA #$4d     
0093a6 00 00         BRK $00     
0093a8 0d 0f 4e      ORA $4e0f     	; 
0093ab 0e 4e 4e      ASL $4e4e     	; 
0093ae 00 0d         BRK $0d     
0093b0 1a            INC      
0093b1 86 87         STX $87     
0093b3 87 87         STA [$87]     
0093b5 87 87         STA [$87]     
0093b7 87 87         STA [$87]     
0093b9 87 87         STA [$87]     
0093bb 87 69         STA [$69]     
0093bd 69 00         ADC #$00     
0093bf 00 00         BRK $00     
0093c1 00 00         BRK $00     
0093c3 45 47         EOR $47     
0093c5 47 47         EOR [$47]     
0093c7 47 47         EOR [$47]     
0093c9 00 00         BRK $00     
0093cb 00 00         BRK $00     
0093cd 00 00         BRK $00     
0093cf 00 00         BRK $00     
0093d1 00 00         BRK $00     
0093d3 00 00         BRK $00     
0093d5 00 86         BRK $86     
0093d7 87 69         STA [$69]     
0093d9 54 52 62      MVN $52,$62     
0093dc 00 00         BRK $00     
0093de 00 18         BRK $18     
0093e0 01 18         ORA ($18,X)     
0093e2 07 18         ORA [$18]     
0093e4 0f 18 ff 18   ORA $18ff18     
0093e8 01 1f         ORA ($1f,X)     
0093ea 07 1f         ORA [$1f]     
0093ec 0f 1f 81 1f   ORA $1f811f     
0093f0 01 00         ORA ($00,X)     
0093f2 8f 1f f1 1f   STA $1ff11f     
0093f6 f9 18 f1      SBC $f118,Y     
0093f9 18            CLC      
0093fa ff 1f ad 28   SBC $28ad1f,X     
0093fe 07 f0         ORA [$f0]     
009400 03 20         ORA $20,S     
009402 08            PHP      
009403 95 a2         STA $a2,X     
009405 0c a9 00      TSB $00a9     
009408 9d a1 06      STA $06a1,X     
00940b ca            DEX      
00940c 10 fa         BPL $9408     
00940e ac 42 07      LDY $0742     	; 
009411 f0 42         BEQ $9455     
009413 ad 25 07      LDA $0725     	; 
009416 c9 03         CMP #$03     
009418 30 05         BMI $941f     
00941a 38            SEC      
00941b e9 03         SBC #$03     
00941d 10 f7         BPL $9416     
00941f 0a            ASL      
009420 0a            ASL      
009421 0a            ASL      
009422 0a            ASL      
009423 79 f6 92      ADC $92f6,Y     
009426 6d 26 07      ADC $0726     	; 
009429 aa            TAX      
00942a bd fa 92      LDA $92fa,X     
00942d f0 26         BEQ $9455     
00942f 48            PHA      
009430 29 0f         AND #$0f     
009432 38            SEC      
009433 e9 01         SBC #$01     
009435 85 00         STA $00     
009437 0a            ASL      
009438 65 00         ADC $00     
00943a aa            TAX      
00943b 68            PLA      
00943c 4a            LSR      
00943d 4a            LSR      
00943e 4a            LSR      
00943f 4a            LSR      
009440 a8            TAY      
009441 a9 03         LDA #$03     
009443 85 00         STA $00     
009445 bd 8a 93      LDA $938a,X     
009448 99 a1 06      STA $06a1,Y     
00944b e8            INX      
00944c c8            INY      
00944d c0 0b         CPY #$0b     
00944f f0 04         BEQ $9455     
009451 c6 00         DEC $00     
009453 d0 f0         BNE $9445     
009455 ae 41 07      LDX $0741     	; 
009458 f0 13         BEQ $946d     
00945a bc ad 93      LDY $93ad,X     
00945d a2 00         LDX #$00     
00945f b9 b1 93      LDA $93b1,Y     
009462 f0 03         BEQ $9467     
009464 9d a1 06      STA $06a1,X     
009467 c8            INY      
009468 e8            INX      
009469 e0 0d         CPX #$0d     
00946b d0 f2         BNE $945f     
00946d ac 4e 07      LDY $074e     	; 
009470 d0 0c         BNE $947e     
009472 ad 5f 07      LDA $075f     	; 
009475 c9 07         CMP #$07     
009477 d0 05         BNE $947e     
009479 a9 62         LDA #$62     
00947b 4c 88 94      JMP $9488     	; 
00947e b9 d8 93      LDA $93d8,Y     
009481 ac 43 07      LDY $0743     	; 
009484 f0 02         BEQ $9488     
009486 a9 88         LDA #$88     
009488 85 07         STA $07     
00948a a2 00         LDX #$00     
00948c ad 27 07      LDA $0727     	; 
00948f 0a            ASL      
009490 a8            TAY      
009491 b9 dc 93      LDA $93dc,Y     
009494 85 00         STA $00     
009496 c8            INY      
009497 84 01         STY $01     
009499 ad 43 07      LDA $0743     	; 
00949c f0 0a         BEQ $94a8     
00949e e0 00         CPX #$00     
0094a0 f0 06         BEQ $94a8     
0094a2 a5 00         LDA $00     
0094a4 29 08         AND #$08     
0094a6 85 00         STA $00     
0094a8 a0 00         LDY #$00     
0094aa b9 8a c6      LDA $c68a,Y     
0094ad 24 00         BIT $00     
0094af f0 05         BEQ $94b6     
0094b1 a5 07         LDA $07     
0094b3 9d a1 06      STA $06a1,X     
0094b6 e8            INX      
0094b7 e0 0d         CPX #$0d     
0094b9 f0 18         BEQ $94d3     
0094bb ad 4e 07      LDA $074e     	; 
0094be c9 02         CMP #$02     
0094c0 d0 08         BNE $94ca     
0094c2 e0 0b         CPX #$0b     
0094c4 d0 04         BNE $94ca     
0094c6 a9 54         LDA #$54     
0094c8 85 07         STA $07     
0094ca c8            INY      
0094cb c0 08         CPY #$08     
0094cd d0 db         BNE $94aa     
0094cf a4 01         LDY $01     
0094d1 d0 be         BNE $9491     
0094d3 20 08 95      JSR $9508     	; 
0094d6 ad a0 06      LDA $06a0     	; 
0094d9 20 e1 9b      JSR $9be1     	; 
0094dc a2 00         LDX #$00     
0094de a0 00         LDY #$00     
0094e0 84 00         STY $00     
0094e2 bd a1 06      LDA $06a1,X     
0094e5 29 c0         AND #$c0     
0094e7 0a            ASL      
0094e8 2a            ROL      
0094e9 2a            ROL      
0094ea a8            TAY      
0094eb bd a1 06      LDA $06a1,X     
0094ee d9 04 95      CMP $9504,Y     
0094f1 b0 02         BCS $94f5     
0094f3 a9 00         LDA #$00     
0094f5 a4 00         LDY $00     
0094f7 91 06         STA ($06),Y     
0094f9 98            TYA      
0094fa 18            CLC      
0094fb 69 10         ADC #$10     
0094fd a8            TAY      
0094fe e8            INX      
0094ff e0 0d         CPX #$0d     
009501 90 dd         BCC $94e0     
009503 60            RTS      
009504 10 51         BPL $9557     
009506 88            DEY      
009507 c0 a2         CPY #$a2     
009509 02 86         COP $86     
00950b 08            PHP      
00950c a9 00         LDA #$00     
00950e 8d 29 07      STA $0729     	; 
009511 ac 2c 07      LDY $072c     	; 
009514 b1 e7         LDA ($e7),Y     
009516 c9 fd         CMP #$fd     
009518 f0 4b         BEQ $9565     
00951a bd 30 07      LDA $0730,X     
00951d 10 46         BPL $9565     
00951f c8            INY      
009520 b1 e7         LDA ($e7),Y     
009522 0a            ASL      
009523 90 0b         BCC $9530     
009525 ad 2b 07      LDA $072b     	; 
009528 d0 06         BNE $9530     
00952a ee 2b 07      INC $072b     	; 
00952d ee 2a 07      INC $072a     	; 
009530 88            DEY      
009531 b1 e7         LDA ($e7),Y     
009533 29 0f         AND #$0f     
009535 c9 0d         CMP #$0d     
009537 d0 1b         BNE $9554     
009539 c8            INY      
00953a b1 e7         LDA ($e7),Y     
00953c 88            DEY      
00953d 29 40         AND #$40     
00953f d0 1c         BNE $955d     
009541 ad 2b 07      LDA $072b     	; 
009544 d0 17         BNE $955d     
009546 c8            INY      
009547 b1 e7         LDA ($e7),Y     
009549 29 1f         AND #$1f     
00954b 8d 2a 07      STA $072a     	; 
00954e ee 2b 07      INC $072b     	; 
009551 4c 6e 95      JMP $956e     	; 
009554 c9 0e         CMP #$0e     
009556 d0 05         BNE $955d     
009558 ad 28 07      LDA $0728     	; 
00955b d0 08         BNE $9565     
00955d ad 2a 07      LDA $072a     	; 
009560 cd 25 07      CMP $0725     	; 
009563 90 06         BCC $956b     
009565 20 95 95      JSR $9595     	; 
009568 4c 71 95      JMP $9571     	; 
00956b ee 29 07      INC $0729     	; 
00956e 20 89 95      JSR $9589     	; 
009571 a6 08         LDX $08     
009573 bd 30 07      LDA $0730,X     
009576 30 03         BMI $957b     
009578 de 30 07      DEC $0730,X     
00957b ca            DEX      
00957c 10 8c         BPL $950a     
00957e ad 29 07      LDA $0729     	; 
009581 d0 85         BNE $9508     
009583 ad 28 07      LDA $0728     	; 
009586 d0 80         BNE $9508     
009588 60            RTS      
009589 ee 2c 07      INC $072c     	; 
00958c ee 2c 07      INC $072c     	; 
00958f a9 00         LDA #$00     
009591 8d 2b 07      STA $072b     	; 
009594 60            RTS      
009595 bd 30 07      LDA $0730,X     
009598 30 03         BMI $959d     
00959a bc 2d 07      LDY $072d,X     
00959d a2 10         LDX #$10     
00959f b1 e7         LDA ($e7),Y     
0095a1 c9 fd         CMP #$fd     
0095a3 f0 e3         BEQ $9588     
0095a5 29 0f         AND #$0f     
0095a7 c9 0f         CMP #$0f     
0095a9 f0 08         BEQ $95b3     
0095ab a2 08         LDX #$08     
0095ad c9 0c         CMP #$0c     
0095af f0 02         BEQ $95b3     
0095b1 a2 00         LDX #$00     
0095b3 86 07         STX $07     
0095b5 a6 08         LDX $08     
0095b7 c9 0e         CMP #$0e     
0095b9 d0 08         BNE $95c3     
0095bb a9 00         LDA #$00     
0095bd 85 07         STA $07     
0095bf a9 2e         LDA #$2e     
0095c1 d0 53         BNE $9616     
0095c3 c9 0d         CMP #$0d     
0095c5 d0 1b         BNE $95e2     
0095c7 a9 22         LDA #$22     
0095c9 85 07         STA $07     
0095cb c8            INY      
0095cc b1 e7         LDA ($e7),Y     
0095ce 29 40         AND #$40     
0095d0 f0 63         BEQ $9635     
0095d2 b1 e7         LDA ($e7),Y     
0095d4 29 7f         AND #$7f     
0095d6 c9 4b         CMP #$4b     
0095d8 d0 03         BNE $95dd     
0095da ee 45 07      INC $0745     	; 
0095dd 29 3f         AND #$3f     
0095df 4c 16 96      JMP $9616     	; 
0095e2 c9 0c         CMP #$0c     
0095e4 b0 27         BCS $960d     
0095e6 c8            INY      
0095e7 b1 e7         LDA ($e7),Y     
0095e9 29 70         AND #$70     
0095eb d0 0b         BNE $95f8     
0095ed a9 16         LDA #$16     
0095ef 85 07         STA $07     
0095f1 b1 e7         LDA ($e7),Y     
0095f3 29 0f         AND #$0f     
0095f5 4c 16 96      JMP $9616     	; 
0095f8 85 00         STA $00     
0095fa c9 70         CMP #$70     
0095fc d0 0a         BNE $9608     
0095fe b1 e7         LDA ($e7),Y     
009600 29 08         AND #$08     
009602 f0 04         BEQ $9608     
009604 a9 00         LDA #$00     
009606 85 00         STA $00     
009608 a5 00         LDA $00     
00960a 4c 12 96      JMP $9612     	; 
00960d c8            INY      
00960e b1 e7         LDA ($e7),Y     
009610 29 70         AND #$70     
009612 4a            LSR      
009613 4a            LSR      
009614 4a            LSR      
009615 4a            LSR      
009616 85 00         STA $00     
009618 bd 30 07      LDA $0730,X     
00961b 10 42         BPL $965f     
00961d ad 2a 07      LDA $072a     	; 
009620 cd 25 07      CMP $0725     	; 
009623 f0 11         BEQ $9636     
009625 ac 2c 07      LDY $072c     	; 
009628 b1 e7         LDA ($e7),Y     
00962a 29 0f         AND #$0f     
00962c c9 0e         CMP #$0e     
00962e d0 05         BNE $9635     
009630 ad 28 07      LDA $0728     	; 
009633 d0 21         BNE $9656     
009635 60            RTS      
009636 ad 28 07      LDA $0728     	; 
009639 f0 0b         BEQ $9646     
00963b a9 00         LDA #$00     
00963d 8d 28 07      STA $0728     	; 
009640 8d 29 07      STA $0729     	; 
009643 85 08         STA $08     
009645 60            RTS      
009646 ac 2c 07      LDY $072c     	; 
009649 b1 e7         LDA ($e7),Y     
00964b 29 f0         AND #$f0     
00964d 4a            LSR      
00964e 4a            LSR      
00964f 4a            LSR      
009650 4a            LSR      
009651 cd 26 07      CMP $0726     	; 
009654 d0 df         BNE $9635     
009656 ad 2c 07      LDA $072c     	; 
009659 9d 2d 07      STA $072d,X     
00965c 20 89 95      JSR $9589     	; 
00965f a5 00         LDA $00     
009661 18            CLC      
009662 65 07         ADC $07     
009664 20 04 8e      JSR $8e04     	; 
009667 e5 98         SBC $98     
009669 40            RTI


00966a 97 2e         STA [$2e],Y     
00966c 9a            TXS      
00966d 3e 9a f2      ROL $f29a,X     
009670 99 50 9a      STA $9a50,Y     
009673 59 9a e5      EOR $e59a,Y     
009676 98            TYA      
009677 41 9b         EOR ($9b,X)     
009679 ba            TSX      
00967a 97 79         STA [$79],Y     
00967c 99 7c 99      STA $997c,Y     
00967f 7f 99 57 99   ADC $995799,X     
009683 68            PLA      
009684 99 6b 99      STA $996b,Y     
009687 d0 99         BNE $9622     
009689 d7 99         CMP [$99],Y     
00968b 06 98         ASL $98     
00968d b7 9a         LDA [$9a],Y     
00968f ab            PLB      
009690 98            TYA      
009691 94 99         STY $99,X     
009693 0e 9b 0e      ASL $0e9b     	; 
009696 9b            TXY      
009697 0e 9b 01      ASL $019b     	; 
00969a 9b            TXY      
00969b 19 9b 19      ORA $199b,Y     
00969e 9b            TXY      
00969f 19 9b 14      ORA $149b,Y     
0096a2 9b            TXY      
0096a3 19 9b 6f      ORA $6f9b,Y     
0096a6 98            TYA      
0096a7 19 9a d3      ORA $d39a,Y     
0096aa 9a            TXS      
0096ab 82 98 9e      BRL $003546     
0096ae 99 09 9a      STA $9a09,Y     
0096b1 0e 9a 01      ASL $019a     	; 
0096b4 9a            TXS      
0096b5 f2 96         SBC ($96)     
0096b7 0d 97 0d      ORA $0d97     	; 
0096ba 97 2b         STA [$2b],Y     
0096bc 97 2b         STA [$2b],Y     
0096be 97 2b         STA [$2b],Y     
0096c0 97 45         STA [$45],Y     
0096c2 96 c5         STX $c5,X     
0096c4 96 bc         STX $bc,X     
0096c6 2d 07 c8      AND $c807     	; 
0096c9 b1 e7         LDA ($e7),Y     
0096cb 48            PHA      
0096cc 29 40         AND #$40     
0096ce d0 12         BNE $96e2     
0096d0 68            PLA      
0096d1 48            PHA      
0096d2 29 0f         AND #$0f     
0096d4 8d 27 07      STA $0727     	; 
0096d7 68            PLA      
0096d8 29 30         AND #$30     
0096da 4a            LSR      
0096db 4a            LSR      
0096dc 4a            LSR      
0096dd 4a            LSR      
0096de 8d 42 07      STA $0742     	; 
0096e1 60            RTS      
0096e2 68            PLA      
0096e3 29 07         AND #$07     
0096e5 c9 04         CMP #$04     
0096e7 90 05         BCC $96ee     
0096e9 8d 44 07      STA $0744     	; 
0096ec a9 00         LDA #$00     
0096ee 8d 41 07      STA $0741     	; 
0096f1 60            RTS      
0096f2 a2 04         LDX #$04     
0096f4 ad 5f 07      LDA $075f     	; 
0096f7 f0 08         BEQ $9701     
0096f9 e8            INX      
0096fa ac 4e 07      LDY $074e     	; 
0096fd 88            DEY      
0096fe d0 01         BNE $9701     
009700 e8            INX      
009701 8a            TXA      
009702 8d d6 06      STA $06d6     	; 
009705 20 08 88      JSR $8808     	; 
009708 a9 0d         LDA #$0d     
00970a 20 16 97      JSR $9716     	; 
00970d ad 23 07      LDA $0723     	; 
009710 49 01         EOR #$01     
009712 8d 23 07      STA $0723     	; 
009715 60            RTS      
009716 85 00         STA $00     
009718 a9 00         LDA #$00     
00971a a2 04         LDX #$04     
00971c b4 16         LDY $16,X     
00971e c4 00         CPY $00     
009720 d0 02         BNE $9724     
009722 95 0f         STA $0f,X     
009724 ca            DEX      
009725 10 f5         BPL $971c     
009727 60            RTS

009728 14 17         TRB $17     
00972a 18            CLC

00972b a6 00         LDX $00     
00972d bd 20 97      LDA $9720,X     
009730 a0 05         LDY #$05     
009732 88            DEY      
009733 30 07         BMI $973c     
009735 d9 16 00      CMP $0016,Y     
009738 d0 f8         BNE $9732     
00973a a9 00         LDA #$00     
00973c 8d cd 06      STA $06cd     	; 
00973f 60            RTS

009740 ad 33 07      LDA $0733     	; 
009743 20 04 8e      JSR $8e04     	; 
009746 4c 97 78      JMP $7897     	; 
009749 97 69         STA [$69],Y     
00974b 9a            TXS

00974c 20 bb 9b      JSR $9bbb     	; 
00974f bd 30 07      LDA $0730,X     
009752 f0 1f         BEQ $9773     
009754 10 11         BPL $9767     
009756 98            TYA      
009757 9d 30 07      STA $0730,X     
00975a ad 25 07      LDA $0725     	; 
00975d 0d 26 07      ORA $0726     	; 
009760 f0 05         BEQ $9767     
009762 a9 16         LDA #$16     
009764 4c b0 97      JMP $97b0     	; 
009767 a6 07         LDX $07     
009769 a9 17         LDA #$17     
00976b 9d a1 06      STA $06a1,X     
00976e a9 4c         LDA #$4c     
009770 4c aa 97      JMP $97aa     	; 
009773 a9 18         LDA #$18     
009775 4c b0 97      JMP $97b0     	; 
009778 20 ac 9b      JSR $9bac     	; 
00977b 84 06         STY $06     
00977d 90 0c         BCC $978b     
00977f bd 30 07      LDA $0730,X     
009782 4a            LSR      
009783 9d 36 07      STA $0736,X     
009786 a9 19         LDA #$19     
009788 4c b0 97      JMP $97b0     	; 
00978b a9 1b         LDA #$1b     
00978d bc 30 07      LDY $0730,X     
009790 f0 1e         BEQ $97b0     
009792 bd 36 07      LDA $0736,X     
009795 85 06         STA $06     
009797 a6 07         LDX $07     
009799 a9 1a         LDA #$1a     
00979b 9d a1 06      STA $06a1,X     
00979e c4 06         CPY $06     
0097a0 d0 2c         BNE $97ce     
0097a2 e8            INX      
0097a3 a9 4f         LDA #$4f     
0097a5 9d a1 06      STA $06a1,X     
0097a8 a9 50         LDA #$50     
0097aa e8            INX      
0097ab a0 0f         LDY #$0f     
0097ad 4c 7d 9b      JMP $9b7d     	; 
0097b0 a6 07         LDX $07     
0097b2 a0 00         LDY #$00     
0097b4 4c 7d 9b      JMP $9b7d     	;

0097b7 42 41         WDM $41     
0097b9 43 20         EOR $20,S     
0097bb ac 9b a0      LDY $a09b     	; 
0097be 00 b0         BRK $b0     
0097c0 07 c8         ORA [$c8]

0097c2 bd 30 07      LDA $0730,X     
0097c5 d0 01         BNE $97c8     
0097c7 c8            INY      
0097c8 b9 b7 97      LDA $97b7,Y     
0097cb 8d a1 06      STA $06a1     	; 
0097ce 60            RTS

0097cf 00 45         BRK $45     
0097d1 45 45         EOR $45     
0097d3 00 00         BRK $00     
0097d5 48            PHA      
0097d6 47 46         EOR [$46]     
0097d8 00 45         BRK $45     
0097da 49 49         EOR #$49     
0097dc 49 45         EOR #$45     
0097de 47 47         EOR [$47]     
0097e0 4a            LSR      
0097e1 47 47         EOR [$47]     
0097e3 47 47         EOR [$47]     
0097e5 4b            PHK      
0097e6 47 47         EOR [$47]     
0097e8 49 49         EOR #$49     
0097ea 49 49         EOR #$49     
0097ec 49 47         EOR #$47     
0097ee 4a            LSR      
0097ef 47 4a         EOR [$4a]     
0097f1 47 47         EOR [$47]     
0097f3 4b            PHK      
0097f4 47 4b         EOR [$4b]     
0097f6 47 47         EOR [$47]     
0097f8 47 47         EOR [$47]     
0097fa 47 47         EOR [$47]     
0097fc 4a            LSR      
0097fd 47 4a         EOR [$4a]     
0097ff 47 4a         EOR [$4a]     
009801 4b            PHK      
009802 47 4b         EOR [$4b]     
009804 47 4b         EOR [$4b]

009806 20 bb 9b      JSR $9bbb     	; 
009809 84 07         STY $07     
00980b a0 04         LDY #$04     
00980d 20 af 9b      JSR $9baf     	; 
009810 8a            TXA      
009811 48            PHA      
009812 bc 30 07      LDY $0730,X     
009815 a6 07         LDX $07     
009817 a9 0b         LDA #$0b     
009819 85 06         STA $06     
00981b b9 cf 97      LDA $97cf,Y     
00981e 9d a1 06      STA $06a1,X     
009821 e8            INX      
009822 a5 06         LDA $06     
009824 f0 07         BEQ $982d     
009826 c8            INY      
009827 c8            INY      
009828 c8            INY      
009829 c8            INY      
00982a c8            INY      
00982b c6 06         DEC $06     
00982d e0 0b         CPX #$0b     
00982f d0 ea         BNE $981b     
009831 68            PLA      
009832 aa            TAX      
009833 ad 25 07      LDA $0725     	; 
009836 f0 36         BEQ $986e     
009838 bd 30 07      LDA $0730,X     
00983b c9 01         CMP #$01     
00983d f0 2a         BEQ $9869     
00983f a4 07         LDY $07     
009841 d0 04         BNE $9847     
009843 c9 03         CMP #$03     
009845 f0 22         BEQ $9869     
009847 c9 02         CMP #$02     
009849 d0 23         BNE $986e     
00984b 20 cb 9b      JSR $9bcb     	; 
00984e 48            PHA      
00984f 20 4a 99      JSR $994a     	; 
009852 68            PLA      
009853 95 87         STA $87,X     
009855 ad 25 07      LDA $0725     	; 
009858 95 6e         STA $6e,X     
00985a a9 01         LDA #$01     
00985c 95 b6         STA $b6,X     
00985e 95 0f         STA $0f,X     
009860 a9 90         LDA #$90     
009862 95 cf         STA $cf,X     
009864 a9 31         LDA #$31     
009866 95 16         STA $16,X     
009868 60            RTS

009869 a0 52         LDY #$52     
00986b 8c ab 06      STY $06ab     	; 
00986e 60            RTS

00986f 20 bb 9b      JSR $9bbb     	; 
009872 bc 30 07      LDY $0730,X     
009875 a6 07         LDX $07     
009877 a9 6b         LDA #$6b     
009879 9d a1 06      STA $06a1,X     
00987c a9 6c         LDA #$6c     
00987e 9d a2 06      STA $06a2,X     
009881 60            RTS

009882 a0 03         LDY #$03     
009884 20 af 9b      JSR $9baf     	; 
009887 a0 0a         LDY #$0a     
009889 20 b3 98      JSR $98b3     	; 
00988c b0 10         BCS $989e     
00988e a2 06         LDX #$06     
009890 a9 00         LDA #$00     
009892 9d a1 06      STA $06a1,X     
009895 ca            DEX      
009896 10 f8         BPL $9890     
009898 b9 dd 98      LDA $98dd,Y     
00989b 8d a8 06      STA $06a8     	; 
00989e 60            RTS

00989f 15 14         ORA $14,X     
0098a1 00 00         BRK $00

0098a3 15 1e         ORA $1e,X     
0098a5 1d 1c 15      ORA $151c,X     
0098a8 21 20         AND ($20,X)     
0098aa 1f


0098ab a0 03         LDY #$03
0098ad 20 af 9b      JSR $9baf
0098b0 20 bb 9b      JSR $9bbb
0098b3 88            DEY      
0098b4 88            DEY      
0098b5 84 05         STY $05     
0098b7 bc 30 07      LDY $0730,X     
0098ba 84 06         STY $06     
0098bc a6 05         LDX $05     
0098be e8            INX      
0098bf b9 9f 98      LDA $989f,Y     
0098c2 c9 00         CMP #$00     
0098c4 f0 08         BEQ $98ce     
0098c6 a2 00         LDX #$00     
0098c8 a4 05         LDY $05     
0098ca 20 7d 9b      JSR $9b7d     	; 
0098cd 18            CLC      
0098ce a4 06         LDY $06     
0098d0 b9 a3 98      LDA $98a3,Y     
0098d3 9d a1 06      STA $06a1,X     
0098d6 b9 a7 98      LDA $98a7,Y     
0098d9 9d a2 06      STA $06a2,X     
0098dc 60            RTS

0098dd 11 10         ORA ($10),Y     
0098df 15 14         ORA $14,X     
0098e1 13 12         ORA ($12,S),Y     
0098e3 15 14         ORA $14,X

0098e5 20 39 99      JSR $9939     	; 
0098e8 a5 00         LDA $00     
0098ea f0 04         BEQ $98f0     
0098ec c8            INY      
0098ed c8            INY      
0098ee c8            INY      
0098ef c8            INY      
0098f0 98            TYA      
0098f1 48            PHA      
0098f2 ad 60 07      LDA $0760          ; Load stage number.
0098f5 0d 5f 07      ORA $075f          ; mid-point number???
0098f8 f0 2b         BEQ $9925          ; Branch if at start??
0098fa bc 30 07      LDY $0730,X     
0098fd f0 26         BEQ $9925     
0098ff 20 4a 99      JSR $994a     	; 
009902 b0 21         BCS $9925     
009904 20 cb 9b      JSR $9bcb     	; 
009907 18            CLC      
009908 69 08         ADC #$08     
00990a 95 87         STA $87,X     
00990c ad 25 07      LDA $0725     	; 
00990f 69 00         ADC #$00     
009911 95 6e         STA $6e,X     
009913 a9 01         LDA #$01     
009915 95 b6         STA $b6,X     
009917 95 0f         STA $0f,X     
009919 20 d3 9b      JSR $9bd3     	; 
00991c 95 cf         STA $cf,X     
00991e a9 0d         LDA #$0d     
009920 95 16         STA $16,X     
009922 20 87 c7      JSR $c787     	; 
009925 68            PLA      
009926 a8            TAY      
009927 a6 07         LDX $07     
009929 b9 dd 98      LDA $98dd,Y     
00992c 9d a1 06      STA $06a1,X     
00992f e8            INX      
009930 b9 df 98      LDA $98df,Y     
009933 a4 06         LDY $06     
009935 88            DEY      
009936 4c 7d 9b      JMP $9b7d     	; 
009939 a0 01         LDY #$01     
00993b 20 af 9b      JSR $9baf     	; 
00993e 20 bb 9b      JSR $9bbb     	; 
009941 98            TYA      
009942 29 07         AND #$07     
009944 85 06         STA $06     
009946 bc 30 07      LDY $0730,X     
009949 60            RTS      
00994a a2 00         LDX #$00     
00994c 18            CLC      
00994d b5 0f         LDA $0f,X     
00994f f0 05         BEQ $9956     
009951 e8            INX      
009952 e0 05         CPX #$05     
009954 d0 f6         BNE $994c     
009956 60            RTS      
009957 20 ac 9b      JSR $9bac     	; 
00995a a9 86         LDA #$86     
00995c 8d ab 06      STA $06ab     	; 
00995f a2 0b         LDX #$0b     
009961 a0 01         LDY #$01     
009963 a9 87         LDA #$87     
009965 4c 7d 9b      JMP $9b7d     	; 
009968 a9 03         LDA #$03     
00996a 2c a9 07      BIT $07a9     	; 
00996d 48            PHA      
00996e 20 ac 9b      JSR $9bac     	; 
009971 68            PLA      
009972 aa            TAX      
009973 a9 c0         LDA #$c0     
009975 9d a1 06      STA $06a1,X     
009978 60            RTS      
009979 a9 06         LDA #$06     
00997b 2c a9 07      BIT $07a9     	; 
00997e 2c a9 09      BIT $09a9     	; 
009981 48            PHA      
009982 20 ac 9b      JSR $9bac     	; 
009985 68            PLA      
009986 aa            TAX      
009987 a9 0b         LDA #$0b     
009989 9d a1 06      STA $06a1,X     
00998c e8            INX      
00998d a0 00         LDY #$00     
00998f a9 63         LDA #$63     
009991 4c 7d 9b      JMP $9b7d     	; 
009994 20 bb 9b      JSR $9bbb     	; 
009997 a2 02         LDX #$02     
009999 a9 6d         LDA #$6d     
00999b 4c 7d 9b      JMP $9b7d     	; 
00999e a9 24         LDA #$24     
0099a0 8d a1 06      STA $06a1     	; 
0099a3 a2 01         LDX #$01     
0099a5 a0 08         LDY #$08     
0099a7 a9 25         LDA #$25     
0099a9 20 7d 9b      JSR $9b7d     	; 
0099ac a9 61         LDA #$61     
0099ae 8d ab 06      STA $06ab     	; 
0099b1 20 cb 9b      JSR $9bcb     	; 
0099b4 38            SEC      
0099b5 e9 08         SBC #$08     
0099b7 85 8c         STA $8c     
0099b9 ad 25 07      LDA $0725     	; 
0099bc e9 00         SBC #$00     
0099be 85 73         STA $73     
0099c0 a9 30         LDA #$30     
0099c2 85 d4         STA $d4     
0099c4 a9 b0         LDA #$b0     
0099c6 8d 0d 01      STA $010d     	; 
0099c9 a9 30         LDA #$30     
0099cb 85 1b         STA $1b     
0099cd e6 14         INC $14     
0099cf 60            RTS      
0099d0 a2 00         LDX #$00     
0099d2 a0 0f         LDY #$0f     
0099d4 4c e9 99      JMP $99e9     	; 
0099d7 8a            TXA      
0099d8 48            PHA      
0099d9 a2 01         LDX #$01     
0099db a0 0f         LDY #$0f     
0099dd a9 44         LDA #$44     
0099df 20 7d 9b      JSR $9b7d     	; 
0099e2 68            PLA      
0099e3 aa            TAX      
0099e4 20 bb 9b      JSR $9bbb     	; 
0099e7 a2 01         LDX #$01     
0099e9 a9 40         LDA #$40     
0099eb 4c 7d 9b      JMP $9b7d     	; 
0099ee c3 c2         CMP $c2,S     
0099f0 c2 c2         REP #$c2     
0099f2 ac 4e 07      LDY $074e     	; 
0099f5 b9 ee 99      LDA $99ee,Y     
0099f8 4c 44 9a      JMP $9a44     	; 
0099fb 06 07         ASL $07     
0099fd 08            PHP      
0099fe c5 0c         CMP $0c     
009a00 89 a0         BIT #$a0     
009a02 0c 20 af      TSB $af20     	; 
009a05 9b            TXY      
009a06 4c 0e 9a      JMP $9a0e     	; 
009a09 a9 08         LDA #$08     
009a0b 8d 73 07      STA $0773     	; 
009a0e a4 00         LDY $00     
009a10 be f9 99      LDX $99f9,Y     
009a13 b9 fc 99      LDA $99fc,Y     
009a16 4c 20 9a      JMP $9a20     	; 
009a19 20 bb 9b      JSR $9bbb     	; 
009a1c a6 07         LDX $07     
009a1e a9 c4         LDA #$c4     
009a20 a0 00         LDY #$00     
009a22 4c 7d 9b      JMP $9b7d     	; 
009a25 69 61         ADC #$61     
009a27 61 62         ADC ($62,X)     
009a29 22 51 52 52   JSL $525251     
009a2d 88            DEY      
009a2e ac 4e 07      LDY $074e     	; 
009a31 ad 43 07      LDA $0743     	; 
009a34 f0 02         BEQ $9a38     
009a36 a0 04         LDY #$04     
009a38 b9 29 9a      LDA $9a29,Y     
009a3b 4c 44 9a      JMP $9a44     	; 
009a3e ac 4e 07      LDY $074e     	; 
009a41 b9 25 9a      LDA $9a25,Y     
009a44 48            PHA      
009a45 20 ac 9b      JSR $9bac     	; 
009a48 a6 07         LDX $07     
009a4a a0 00         LDY #$00     
009a4c 68            PLA      
009a4d 4c 7d 9b      JMP $9b7d     	; 
009a50 ac 4e 07      LDY $074e     	; 
009a53 b9 29 9a      LDA $9a29,Y     
009a56 4c 5f 9a      JMP $9a5f     	; 
009a59 ac 4e 07      LDY $074e     	; 
009a5c b9 25 9a      LDA $9a25,Y     
009a5f 48            PHA      
009a60 20 bb 9b      JSR $9bbb     	; 
009a63 68            PLA      
009a64 a6 07         LDX $07     
009a66 4c 7d 9b      JMP $9b7d     	; 
009a69 20 bb 9b      JSR $9bbb     	; 
009a6c a6 07         LDX $07     
009a6e a9 64         LDA #$64     
009a70 9d a1 06      STA $06a1,X     
009a73 e8            INX      
009a74 88            DEY      
009a75 30 0e         BMI $9a85     
009a77 a9 65         LDA #$65     
009a79 9d a1 06      STA $06a1,X     
009a7c e8            INX      
009a7d 88            DEY      
009a7e 30 05         BMI $9a85     
009a80 a9 66         LDA #$66     
009a82 20 7d 9b      JSR $9b7d     	; 
009a85 ae 6a 04      LDX $046a     	; 
009a88 20 d3 9b      JSR $9bd3     	; 
009a8b 9d 77 04      STA $0477,X     
009a8e ad 25 07      LDA $0725     	; 
009a91 9d 6b 04      STA $046b,X     
009a94 20 cb 9b      JSR $9bcb     	; 
009a97 9d 71 04      STA $0471,X     
009a9a e8            INX      
009a9b e0 06         CPX #$06     
009a9d 90 02         BCC $9aa1     
009a9f a2 00         LDX #$00     
009aa1 8e 6a 04      STX $046a     	; 
009aa4 60            RTS

009aa5 07 07         ORA [$07]     
009aa7 06 05         ASL $05     
009aa9 04 03         TSB $03     
009aab 02 01         COP $01     
009aad 00 03         BRK $03     
009aaf 03 04         ORA $4,S     
009ab1 05 06         ORA $06     
009ab3 07 08         ORA [$08]     
009ab5 09 0a         ORA #$0a

009ab7 20 ac 9b      JSR $9bac     	; 
009aba 90 05         BCC $9ac1     
009abc a9 09         LDA #$09     
009abe 8d 34 07      STA $0734     	; 
009ac1 ce 34 07      DEC $0734     	; 
009ac4 ac 34 07      LDY $0734     	; 
009ac7 be ae 9a      LDX $9aae,Y     
009aca b9 a5 9a      LDA $9aa5,Y     
009acd a8            TAY      
009ace a9 61         LDA #$61     
009ad0 4c 7d 9b      JMP $9b7d     	; 
009ad3 20 bb 9b      JSR $9bbb     	; 
009ad6 20 4a 99      JSR $994a     	; 
009ad9 20 cb 9b      JSR $9bcb     	; 
009adc 95 87         STA $87,X     
009ade ad 25 07      LDA $0725     	; 
009ae1 95 6e         STA $6e,X     
009ae3 20 d3 9b      JSR $9bd3     	; 
009ae6 95 cf         STA $cf,X     
009ae8 95 58         STA $58,X     
009aea a9 32         LDA #$32     
009aec 95 16         STA $16,X     
009aee a0 01         LDY #$01     
009af0 94 b6         STY $b6,X     
009af2 f6 0f         INC $0f,X     
009af4 a6 07         LDX $07     
009af6 a9 67         LDA #$67     
009af8 9d a1 06      STA $06a1,X     
009afb a9 68         LDA #$68     
009afd 9d a2 06      STA $06a2,X     
009b00 60            RTS

009b01 ad 5d 07      LDA $075d     	; 
009b04 f0 36         BEQ $9b3c     
009b06 a9 00         LDA #$00     
009b08 8d 5d 07      STA $075d     	; 
009b0b 4c 19 9b      JMP $9b19     	; 
009b0e 20 36 9b      JSR $9b36     	; 
009b11 4c 2c 9b      JMP $9b2c     	; 
009b14 a9 00         LDA #$00     
009b16 8d bc 06      STA $06bc     	; 
009b19 20 36 9b      JSR $9b36     	; 
009b1c 84 07         STY $07     
009b1e a9 00         LDA #$00     
009b20 ac 4e 07      LDY $074e     	; 
009b23 88            DEY      
009b24 f0 02         BEQ $9b28     
009b26 a9 05         LDA #$05     
009b28 18            CLC      
009b29 65 07         ADC $07     
009b2b a8            TAY      
009b2c b9 e8 bd      LDA $bde8,Y     
009b2f 48            PHA      
009b30 20 bb 9b      JSR $9bbb     	; 
009b33 4c 48 9a      JMP $9a48     	;

009b36 a5 00         LDA $00     
009b38 38            SEC      
009b39 e9 00         SBC #$00     
009b3b a8            TAY      
009b3c 60            RTS
009b3d 87 00         STA [$00]     
009b3f 00 00         BRK $00     
009b41 20 ac 9b      JSR $9bac     	; 
009b44 90 2d         BCC $9b73     
009b46 ad 4e 07      LDA $074e     	; 
009b49 d0 28         BNE $9b73     
009b4b ae 6a 04      LDX $046a     	; 
009b4e 20 cb 9b      JSR $9bcb     	; 
009b51 38            SEC      
009b52 e9 10         SBC #$10     
009b54 9d 71 04      STA $0471,X     
009b57 ad 25 07      LDA $0725     	; 
009b5a e9 00         SBC #$00     
009b5c 9d 6b 04      STA $046b,X     
009b5f c8            INY      
009b60 c8            INY      
009b61 98            TYA      
009b62 0a            ASL      
009b63 0a            ASL      
009b64 0a            ASL      
009b65 0a            ASL      
009b66 9d 77 04      STA $0477,X     
009b69 e8            INX      
009b6a e0 05         CPX #$05     
009b6c 90 02         BCC $9b70     
009b6e a2 00         LDX #$00     
009b70 8e 6a 04      STX $046a     	; 
009b73 ae 4e 07      LDX $074e     	; 
009b76 bd 3d 9b      LDA $9b3d,X     
009b79 a2 08         LDX #$08     
009b7b a0 0f         LDY #$0f     
009b7d 8c 35 07      STY $0735     	; 
009b80 bc a1 06      LDY $06a1,X     
009b83 f0 18         BEQ $9b9d     
009b85 c0 17         CPY #$17     
009b87 f0 17         BEQ $9ba0     
009b89 c0 1a         CPY #$1a     
009b8b f0 13         BEQ $9ba0     
009b8d c0 c0         CPY #$c0     
009b8f f0 0c         BEQ $9b9d     
009b91 c0 c0         CPY #$c0     
009b93 b0 0b         BCS $9ba0     
009b95 c0 54         CPY #$54     
009b97 d0 04         BNE $9b9d     
009b99 c9 50         CMP #$50     
009b9b f0 03         BEQ $9ba0     
009b9d 9d a1 06      STA $06a1,X     
009ba0 e8            INX      
009ba1 e0 0d         CPX #$0d     
009ba3 b0 06         BCS $9bab     
009ba5 ac 35 07      LDY $0735     	; 
009ba8 88            DEY      
009ba9 10 d2         BPL $9b7d     
009bab 60            RTS      
009bac 20 bb 9b      JSR $9bbb     	; 
009baf bd 30 07      LDA $0730,X     
009bb2 18            CLC      
009bb3 10 05         BPL $9bba     
009bb5 98            TYA      
009bb6 9d 30 07      STA $0730,X     
009bb9 38            SEC      
009bba 60            RTS

009bbb bc 2d 07      LDY $072d,X     
009bbe b1 e7         LDA ($e7),Y     
009bc0 29 0f         AND #$0f     
009bc2 85 07         STA $07     
009bc4 c8            INY      
009bc5 b1 e7         LDA ($e7),Y     
009bc7 29 0f         AND #$0f     
009bc9 a8            TAY      
009bca 60            RTS

009bcb ad 26 07      LDA $0726     	; 
009bce 0a            ASL      
009bcf 0a            ASL      
009bd0 0a            ASL      
009bd1 0a            ASL      
009bd2 60            RTS

009bd3 a5 07         LDA $07     
009bd5 0a            ASL      
009bd6 0a            ASL      
009bd7 0a            ASL      
009bd8 0a            ASL      
009bd9 18            CLC      
009bda 69 20         ADC #$20     
009bdc 60            RTS

009bdd 00 d0         BRK $d0     
009bdf 05 05         ORA $05     
009be1 48            PHA      
009be2 4a            LSR      
009be3 4a            LSR      
009be4 4a            LSR      
009be5 4a            LSR      
009be6 a8            TAY      
009be7 b9 df 9b      LDA $9bdf,Y     
009bea 85 07         STA $07     
009bec 68            PLA      
009bed 29 0f         AND #$0f     
009bef 18            CLC      
009bf0 79 dd 9b      ADC $9bdd,Y     
009bf3 85 06         STA $06     
009bf5 60            RTS      
009bf6 ff ff 12 36   SBC $3612ff,X     
009bfa 0e 0e 0e      ASL $0e0e     	; 
009bfd 32 32         AND ($32)     
009bff 32 0a         AND ($0a)     
009c01 26 40         ROL $40



009c03 20 13 9c      JSR $9c13     	; 
009c06 8d 50 07      STA $0750     	;

009c09 29 60         AND #$60           ; #%0110 0000
009c0b 0a            ASL                ; #%1100 0000
009c0c 2a            ROL                ; #%1000 0000 (1)
009c0d 2a            ROL                ; #%0000 0001 (1)
009c0e 2a            ROL                ; #%0000 0011
009c0f 8d 4e 07      STA $074e          ; store here.
009c12 60            RTS

009c13 ac 5f 07      LDY $075f     	; 
009c16 b9 b4 9c      LDA $9cb4,Y     
009c19 18            CLC      
009c1a 6d 60 07      ADC $0760          ; Add to stage number.
009c1d a8            TAY                ; use as index.
009c1e b9 bc 9c      LDA $9cbc,Y     
009c21 60            RTS

009c22 ad 50 07      LDA $0750          ; extract #%01100000 
009c25 20 09 9c      JSR $9c09          ; convert and place in $074e ???
009c28 a8            TAY                ; use as index.
009c29 ad 50 07      LDA $0750          ; extract #%00011111
009c2c 29 1f         AND #$1f           ;
009c2e 8d 4f 07      STA $074f          ; store here.

009c31 b9 e0 9c      LDA $9ce0,Y        ; 
009c34 18            CLC      
009c35 6d 4f 07      ADC $074f     	; 
009c38 a8            TAY

009c39 b9 e4 9c      LDA $9ce4,Y        ; pointer fetch???
009c3c 85 e9         STA $e9     
009c3e b9 06 9d      LDA $9d06,Y     
009c41 85 ea         STA $ea

009c43 ac 4e 07      LDY $074e     	; 
009c46 b9 28 9d      LDA $9d28,Y     
009c49 18            CLC      
009c4a 6d 4f 07      ADC $074f     	;
009c4d a8            TAY

009c4e b9 2c 9d      LDA $9d2c,Y     
009c51 85 e7         STA $e7     
009c53 b9 4e 9d      LDA $9d4e,Y     
009c56 85 e8         STA $e8

009c58 a0 00         LDY #$00           ; Init indirect index.
009c5a b1 e7         LDA ($e7),Y        ; Fetch value.
009c5c 48            PHA                ; Preserve.
009c5d 29 07         AND #$07           ; Leave first 4 bits.
009c5f c9 04         CMP #$04     
009c61 90 05         BCC $9c68          ; Branch if this is less than 4.
009c63 8d 44 07      STA $0744     	; 
009c66 a9 00         LDA #$00

009c68 8d 41 07      STA $0741     	; 
009c6b 68            PLA                ; Refresh accum with value.
009c6c 48            PHA      
009c6d 29 38         AND #$38           ; #%0011 1000
009c6f 4a            LSR      
009c70 4a            LSR      
009c71 4a            LSR                ; move bits to #%00000111.
009c72 8d 10 07      STA $0710          ; store here.
009c75 68            PLA                ; Restore.
009c76 29 c0         AND #$c0           ; #%1100 0000
009c78 18            CLC                ; prepare for rotation.
009c79 2a            ROL      
009c7a 2a            ROL      
009c7b 2a            ROL                ; move bits to #%00000011
009c7c 8d 15 07      STA $0715          ; Game Type index??? or something...
009c7f c8            INY                ; adjust index.
009c80 b1 e7         LDA ($e7),Y        ; fetch next byte.
009c82 48            PHA                ; preserve.
009c83 29 0f         AND #$0f           ; #%00001111
009c85 8d 27 07      STA $0727          ; Store here.
009c88 68            PLA                ; Refresh.
009c89 48            PHA      
009c8a 29 30         AND #$30           ; #%00110000
009c8c 4a            LSR      
009c8d 4a            LSR      
009c8e 4a            LSR      
009c8f 4a            LSR                ; move to #%00000011.
009c90 8d 42 07      STA $0742          ; store here.
009c93 68            PLA                ; Restore.
009c94 29 c0         AND #$c0           ; #%11000000
009c96 18            CLC                ; prepare for rotation.
009c97 2a            ROL      
009c98 2a            ROL      
009c99 2a            ROL                ; move to #%00000011
009c9a c9 03         CMP #$03           ; is it =3?
009c9c d0 05         BNE $9ca3          ; branch if no.
009c9e 8d 43 07      STA $0743     	; 
009ca1 a9 00         LDA #$00

009ca3 8d 33 07      STA $0733     	;

;adjust indirect pointer by 2.
009ca6 a5 e7         LDA $e7     
009ca8 18            CLC      
009ca9 69 02         ADC #$02     
009cab 85 e7         STA $e7     
009cad a5 e8         LDA $e8     
009caf 69 00         ADC #$00     
009cb1 85 e8         STA $e8     
009cb3 60            RTS

009cb4 00 05         BRK $05     
009cb6 0a            ASL      
009cb7 0e 13 17      ASL $1713     	; 
009cba 1b            TCS      
009cbb 20 25 29      JSR $2925     	; 
009cbe c0 26         CPY #$26     
009cc0 60            RTS      
009cc1 28            PLP      
009cc2 29 01         AND #$01     
009cc4 27 62         AND [$62]     
009cc6 24 35         BIT $35     
009cc8 20 63 22      JSR $2263     	; 
009ccb 29 41         AND #$41     
009ccd 2c 61 2a      BIT $2a61     	; 
009cd0 31 26         AND ($26),Y     
009cd2 62 2e 23      PER #$232e     
009cd5 2d 60 33      AND $3360     	; 
009cd8 29 01         AND #$01     
009cda 27 64         AND [$64]     
009cdc 30 32         BMI $9d10     
009cde 21 65         AND ($65,X)

009ce0 1f 06 1c 00   ORA $001c06,X

009ce4 70 97         BVS $9c7d     
009ce6 b0 df         BCS $9cc7     
009ce8 0a            ASL      
009ce9 1f 59 7e 9b   ORA $9b7e59,X     
009ced a9 d0         LDA #$d0     
009cef 01 1f         ORA ($1f,X)     
009cf1 3c 51 7b      BIT $7b51,X     
009cf4 7c a0 a9      JMP ($a9a0,X)     
009cf7 ce f1 fa      DEC $faf1     	; 
009cfa fb            XCE      
009cfb 35 60         AND $60,X     
009cfd 8e aa b3      STX $b3aa     	; 
009d00 d8            CLD      
009d01 05 33         ORA $33     
009d03 60            RTS      
009d04 71 9b         ADC ($9b),Y

009d06 9d 9d 9d      STA $9d9d,X
009d09 9d 9e 9e      STA $9e9e,X
009d0c 9e 9e 9e      STZ $9e9e,X
009d0f 9e 9e 9f      STZ $9f9e,X
009d12 9f 9f 9f 9f   STA $9f9f9f,X
009d16 9f 9f 9f 9f   STA $9f9f9f,X
009d1a 9f 9f 9f a0   STA $a09f9f,X
009d1e a0 a0         LDY #$a0

009d20 a0 a0         LDY #$a0     
009d22 a0 a1         LDY #$a1     
009d24 a1 a1         LDA ($a1,X)     
009d26 a1 a1         LDA ($a1,X)

009d28 00 03         BRK $03     
009d2a 19 1c

009d2c 06
009d2d 45 c0         EOR $c0     
009d2f 6b            RTL      
009d30 ce 37 8a      DEC $8a37     	; 
009d33 19 8e f3      ORA $f38e,Y     
009d36 48            PHA      
009d37 cd 32 3b      CMP $3b32     	; 
009d3a 7a            PLY      
009d3b 8f f6 5b ce   STA $ce5bf6     
009d3f ff 92 05 7e   SBC $7e0592,X     
009d43 d7 02         CMP [$02],Y     
009d45 35 d8         AND $d8,X     
009d47 79 af 10      ADC $10af,Y     
009d4a 8f 02 6f fa   STA $fa6f02

009d4e ae ae ae      LDX $aeae     	; 
009d51 a4 a4         LDY $a4     
009d53 a5 a5         LDA $a5     
009d55 a6 a6         LDX $a6     
009d57 a6 a7         LDX $a7     
009d59 a7 a8         LDA [$a8]     
009d5b a8            TAY      
009d5c a8            TAY      
009d5d a8            TAY      
009d5e a8            TAY      
009d5f a9 a9         LDA #$a9     
009d61 a9 aa         LDA #$aa     
009d63 ab            PLB      
009d64 ab            PLB      
009d65 ab            PLB      
009d66 ac ac ac      LDY $acac     	; 
009d69 ad a1 a2      LDA $a2a1     	; 
009d6c a2 a3         LDX #$a3     
009d6e a3 a3         LDA $a3,S


009d70 76 dd         ROR $dd,X     
009d72 bb            TYX      
009d73 4c ea 1d      JMP $1dea     	; 
009d76 1b            TCS      
009d77 cc 56 5d      CPY $5d56     	; 
009d7a 16 9d         ASL $9d,X     
009d7c c6 1d         DEC $1d     
009d7e 36 9d         ROL $9d,X     
009d80 c9 1d         CMP #$1d     
009d82 04 db         TSB $db     
009d84 49 1d         EOR #$1d     
009d86 84 1b         STY $1b     
009d88 c9 5d         CMP #$5d     
009d8a 88            DEY      
009d8b 95 0f         STA $0f,X     
009d8d 08            PHP      
009d8e 30 4c         BMI $9ddc     
009d90 78            SEI      
009d91 2d a6 28      AND $28a6     	; 
009d94 90 b5         BCC $9d4b     
009d96 ff 0f 03 56   SBC $56030f,X     
009d9a 1b            TCS      
009d9b c9 1b         CMP #$1b     
009d9d 0f 07 36 1b   ORA $1b3607     
009da1 aa            TAX      
009da2 1b            TCS      
009da3 48            PHA      
009da4 95 0f         STA $0f,X     
009da6 0a            ASL      
009da7 2a            ROL      
009da8 1b            TCS      
009da9 5b            TCD      
009daa 0c 78 2d      TSB $2d78     	; 
009dad 90 b5         BCC $9d64     
009daf ff 0b 8c 4b   SBC $4b8c0b,X     
009db3 4c 77 5f      JMP $5f77     	; 
009db6 eb            XBA      
009db7 0c bd db      TSB $dbbd     	; 
009dba 19 9d 75      ORA $759d,Y     
009dbd 1d 7d 5b      ORA $5b7d,X     
009dc0 d9 1d 3d      CMP $3d1d,Y     
009dc3 dd 99 1d      CMP $1d99,X     
009dc6 26 9d         ROL $9d     
009dc8 5a            PHY      
009dc9 2b            PLD      
009dca 8a            TXA      
009dcb 2c ca 1b      BIT $1bca     	; 
009dce 20 95 7b      JSR $7b95     	; 
009dd1 5c db 4c 1b   JML $1b4cdb     
009dd5 cc 3b cc      CPY $cc3b     	; 
009dd8 78            SEI      
009dd9 2d a6 28      AND $28a6     	; 
009ddc 90 b5         BCC $9d93     
009dde ff 0b 8c 3b   SBC $3b8c0b,X     
009de2 1d 8b 1d      ORA $1d8b,X     
009de5 ab            PLB      
009de6 0c db 1d      TSB $1ddb     	; 
009de9 0f 03 65 1d   ORA $1d6503     
009ded 6b            RTL      
009dee 1b            TCS      
009def 05 9d         ORA $9d     
009df1 0b            PHD      
009df2 1b            TCS      
009df3 05 9b         ORA $9b     
009df5 0b            PHD      
009df6 1d 8b 0c      ORA $0c8b,X     
009df9 1b            TCS      
009dfa 8c 70 15      STY $1570     	; 
009dfd 7b            TDC      
009dfe 0c db 0c      TSB $0cdb     	; 
009e01 0f 08 78 2d   ORA $2d7808     
009e05 a6 28         LDX $28     
009e07 90 b5         BCC $9dbe     
009e09 ff 27 a9 4b   SBC $4ba927,X     
009e0d 0c 68 29      TSB $2968     	; 
009e10 0f 06 77 1b   ORA $1b7706     
009e14 0f 0b 60 15   ORA $15600b     
009e18 4b            PHK      
009e19 8c 78 2d      STY $2d78     	; 
009e1c 90 b5         BCC $9dd3     
009e1e ff 0f 03 8e   SBC $8e030f,X     
009e22 65 e1         ADC $e1     
009e24 bb            TYX      
009e25 38            SEC      
009e26 6d a8 3e      ADC $3ea8     	; 
009e29 e5 e7         SBC $e7     
009e2b 0f 08 0b 02   ORA $020b08     
009e2f 2b            PLD      
009e30 02 5e         COP $5e     
009e32 65 e1         ADC $e1     
009e34 bb            TYX      
009e35 0e db 0e      ASL $0edb     	; 
009e38 bb            TYX      
009e39 8e db 0e      STX $0edb     	; 
009e3c fe 65 ec      INC $ec65,X     
009e3f 0f 0d 4e 65   ORA $654e0d     
009e43 e1 0f         SBC ($0f,X)     
009e45 0e 4e 02      ASL $024e     	; 
009e48 e0 0f         CPX #$0f     
009e4a 10 fe         BPL $9e4a     
009e4c e5 e1         SBC $e1     
009e4e 1b            TCS      
009e4f 85 7b         STA $7b     
009e51 0c 5b 95      TSB $955b     	; 
009e54 78            SEI      
009e55 2d 90 b5      AND $b590     	; 
009e58 ff a5 86 e4   SBC $e486a5,X     
009e5c 28            PLP      
009e5d 18            CLC      
009e5e a8            TAY      
009e5f 45 83         EOR $83     
009e61 69 03         ADC #$03     
009e63 c6 29         DEC $29     
009e65 9b            TXY      
009e66 83 16         STA $16,S     
009e68 a4 88         LDY $88     
009e6a 24 e9         BIT $e9     
009e6c 28            PLP      
009e6d 05 a8         ORA $a8     
009e6f 7b            TDC      
009e70 28            PLP      
009e71 24 8f         BIT $8f     
009e73 c8            INY      
009e74 03 e8         ORA $e8,S     
009e76 03 46         ORA $46,S     
009e78 a8            TAY      
009e79 85 24         STA $24     
009e7b c8            INY      
009e7c 24 ff         BIT $ff     
009e7e eb            XBA      
009e7f 8e 0f 03      STX $030f     	; 
009e82 fb            XCE      
009e83 05 17         ORA $17     
009e85 85 db         STA $db     
009e87 8e 0f 07      STX $070f     	; 
009e8a 57 05         EOR [$05],Y     
009e8c 7b            TDC      
009e8d 05 9b         ORA $9b     
009e8f 80 2b         BRA $9ebc     
009e91 85 fb         STA $fb     
009e93 05 0f         ORA $0f     
009e95 0b            PHD      
009e96 1b            TCS      
009e97 05 9b         ORA $9b     
009e99 05 ff         ORA $ff     
009e9b 2e c2 66      ROL $66c2     	; 
009e9e e2 11         SEP #$11     	; Index (8 bit)
009ea0 0f 07 02 11   ORA $110207     
009ea4 0f 0c 12 11   ORA $11120c     
009ea8 ff 0e c2 a8   SBC $a8c20e,X     
009eac ab            PLB      
009ead 00 bb         BRK $bb     
009eaf 8e 6b 82      STX $826b     	; 
009eb2 de 00 a0      DEC $a000,X     
009eb5 33 86         AND ($86,S),Y     
009eb7 43 06         EOR $6,S     
009eb9 3e b4 a0      ROL $a0b4,X     
009ebc cb            WAI      
009ebd 02 0f         COP $0f     
009ebf 07 7e         ORA [$7e]     
009ec1 42 a6         WDM $a6     
009ec3 83 02         STA $2,S     
009ec5 0f 0a 3b 02   ORA $023b0a     
009ec9 cb            WAI      
009eca 37 0f         AND [$0f],Y     
009ecc 0c e3 0e      TSB $0ee3     	; 
009ecf ff 9b 8e ca   SBC $ca8e9b,X     
009ed3 0e ee 42      ASL $42ee     	; 
009ed6 44 5b 86      MVP $5b,$86     
009ed9 80 b8         BRA $9e93     
009edb 1b            TCS      
009edc 80 50         BRA $9f2e     
009ede ba            TSX      
009edf 10 b7         BPL $9e98     
009ee1 5b            TCD      
009ee2 00 17         BRK $17     
009ee4 85 4b         STA $4b     
009ee6 05 fe         ORA $fe     
009ee8 34 40         BIT $40,X     
009eea b7 86         LDA [$86],Y     
009eec c6 06         DEC $06     
009eee 5b            TCD      
009eef 80 83         BRA $9e74     
009ef1 00 d0         BRK $d0     
009ef3 38            SEC      
009ef4 5b            TCD      
009ef5 8e 8a 0e      STX $0e8a     	; 
009ef8 a6 00         LDX $00     
009efa bb            TYX      
009efb 0e c5 80      ASL $80c5     	; 
009efe f3 00         SBC ($00,S),Y     
009f00 ff 1e c2 00   SBC $00c21e,X     
009f04 6b            RTL      
009f05 06 8b         ASL $8b     
009f07 86 63         STX $63     
009f09 b7 0f         LDA [$0f],Y     
009f0b 05 03         ORA $03     
009f0d 06 23         ASL $23     
009f0f 06 4b         ASL $4b     
009f11 b7 bb         LDA [$bb],Y     
009f13 00 5b         BRK $5b     
009f15 b7 fb         LDA [$fb],Y     
009f17 37 3b         AND [$3b],Y     
009f19 b7 0f         LDA [$0f],Y     
009f1b 0b            PHD      
009f1c 1b            TCS      
009f1d 37 ff         AND [$ff],Y     
009f1f 2b            PLD      
009f20 d7 e3         CMP [$e3],Y     
009f22 03 c2         ORA $c2,S     
009f24 86 e2         STX $e2     
009f26 06 76         ASL $76     
009f28 a5 a3         LDA $a3     
009f2a 8f 03 86 2b   STA $2b8603     
009f2e 57 68         EOR [$68],Y     
009f30 28            PLP      
009f31 e9 28         SBC #$28     
009f33 e5 83         SBC $83     
009f35 24 8f         BIT $8f     
009f37 36 a8         ROL $a8,X     
009f39 5b            TCD      
009f3a 03 ff         ORA $ff,S     
009f3c 0f 02 78 40   ORA $407802     
009f40 48            PHA      
009f41 ce f8 c3      DEC $c3f8     	; 
009f44 f8            SED      
009f45 c3 0f         CMP $f,S     
009f47 07 7b         ORA [$7b]     
009f49 43 c6         EOR $c6,S     
009f4b d0 0f         BNE $9f5c     
009f4d 8a            TXA      
009f4e c8            INY      
009f4f 50 ff         BVC $9f50     
009f51 85 86         STA $86     
009f53 0b            PHD      
009f54 80 1b         BRA $9f71     
009f56 00 db         BRK $db     
009f58 37 77         AND [$77],Y     
009f5a 80 eb         BRA $9f47     
009f5c 37 fe         AND [$fe],Y     
009f5e 2b            PLD      
009f5f 20 2b 80      JSR $802b     	; 
009f62 7b            TDC      
009f63 38            SEC      
009f64 ab            PLB      
009f65 b8            CLV      
009f66 77 86         ADC [$86],Y     
009f68 fe 42 20      INC $2042,X     
009f6b 49 86         EOR #$86     
009f6d 8b            PHB      
009f6e 06 9b         ASL $9b     
009f70 80 7b         BRA $9fed     
009f72 8e 5b b7      STX $b75b     	; 
009f75 9b            TXY      
009f76 0e bb 0e      ASL $0ebb     	; 
009f79 9b            TXY      
009f7a 80 ff         BRA $9f7b     
009f7c 0b            PHD      
009f7d 80 60         BRA $9fdf     
009f7f 38            SEC      
009f80 10 b8         BPL $9f3a     
009f82 c0 3b         CPY #$3b     
009f84 db            STP      
009f85 8e 40 b8      STX $b840     	; 
009f88 f0 38         BEQ $9fc2     
009f8a 7b            TDC      
009f8b 8e a0 b8      STX $b8a0     	; 
009f8e c0 b8         CPY #$b8     
009f90 fb            XCE      
009f91 00 a0         BRK $a0     
009f93 b8            CLV      
009f94 30 bb         BMI $9f51     
009f96 ee 42 88      INC $8842     	; 
009f99 0f 0b 2b 0e   ORA $0e2b0b     
009f9d 67 0e         ADC [$0e]     
009f9f ff 0a aa 0e   SBC $0eaa0a,X     
009fa3 28            PLP      
009fa4 2a            ROL      
009fa5 0e 31 88      ASL $8831     	; 
009fa8 ff c7 83 d7   SBC $d783c7,X     
009fac 03 42         ORA $42,S     
009fae 8f 7a 03 05   STA $05037a     
009fb2 a4 78         LDY $78     
009fb4 24 a6         BIT $a6     
009fb6 25 e4         AND $e4     
009fb8 25 4b         AND $4b     
009fba 83 e3         STA $e3,S     
009fbc 03 05         ORA $5,S     
009fbe a4 89         LDY $89     
009fc0 24 b5         BIT $b5     
009fc2 24 09         BIT $09     
009fc4 a4 65         LDY $65     
009fc6 24 c9         BIT $c9     
009fc8 24 0f         BIT $0f     
009fca 08            PHP      
009fcb 85 25         STA $25     
009fcd ff cd a5 b5   SBC $b5a5cd,X     
009fd1 a8            TAY      
009fd2 07 a8         ORA [$a8]     
009fd4 76 28         ROR $28,X     
009fd6 cc 25 65      CPY $6525     	; 
009fd9 a4 a9         LDY $a9     
009fdb 24 e5         BIT $e5     
009fdd 24 19         BIT $19     
009fdf a4 0f         LDY $0f     
009fe1 07 95         ORA [$95]     
009fe3 28            PLP      
009fe4 e6 24         INC $24     
009fe6 19 a4 d7      ORA $d7a4,Y     
009fe9 29 16         AND #$16     
009feb a9 58         LDA #$58     
009fed 29 97         AND #$97     
009fef 29 ff         AND #$ff     
009ff1 0f 02 02 11   ORA $110202     
009ff5 0f 07 02 11   ORA $110207     
009ff9 ff ff 2b 82   SBC $822bff,X     
009ffd ab            PLB      
009ffe 38            SEC      
009fff de 42 e2      DEC $e242,X     
00a002 1b            TCS      
00a003 b8            CLV      
00a004 eb            XBA      
00a005 3b            TSC      
00a006 db            STP      
00a007 80 8b         BRA $9f94     
00a009 b8            CLV      
00a00a 1b            TCS      
00a00b 82 fb b8      BRL $005909     
00a00e 7b            TDC      
00a00f 80 fb         BRA $a00c     
00a011 3c 5b bc      BIT $bc5b,X     
00a014 7b            TDC      
00a015 b8            CLV      
00a016 1b            TCS      
00a017 8e cb 0e      STX $0ecb     	; 
00a01a 1b            TCS      
00a01b 8e 0f 0d      STX $0d0f     	; 
00a01e 2b            PLD      
00a01f 3b            TSC      
00a020 bb            TYX      
00a021 b8            CLV      
00a022 eb            XBA      
00a023 82 4b b8      BRL $005871     
00a026 bb            TYX      
00a027 38            SEC      
00a028 3b            TSC      
00a029 b7 bb         LDA [$bb],Y     
00a02b 02 0f         COP $0f     
00a02d 13 1b         ORA ($1b,S),Y     
00a02f 00 cb         BRK $cb     
00a031 80 6b         BRA $a09e     
00a033 bc ff 7b      LDY $7bff,X     
00a036 80 ae         BRA $9fe6     
00a038 00 80         BRK $80     
00a03a 8b            PHB      
00a03b 8e e8 05      STX $05e8     	; 
00a03e f9 86 17      SBC $1786,Y     
00a041 86 16         STX $16     
00a043 85 4e         STA $4e     
00a045 2b            PLD      
00a046 80 ab         BRA $9ff3     
00a048 8e 87 85      STX $8587     	; 
00a04b c3 05         CMP $5,S     
00a04d 8b            PHB      
00a04e 82 9b 02      BRL $00a2ec     
00a051 ab            PLB      
00a052 02 bb         COP $bb     
00a054 86 cb         STX $cb     
00a056 06 d3         ASL $d3     
00a058 03 3b         ORA $3b,S     
00a05a 8e 6b 0e      STX $0e6b     	; 
00a05d a7 8e         LDA [$8e]     
00a05f ff 29 8e 52   SBC $528e29,X     
00a063 11 83         ORA ($83),Y     
00a065 0e 0f 03      ASL $030f     	; 
00a068 9b            TXY      
00a069 0e 2b 8e      ASL $8e2b     	; 
00a06c 5b            TCD      
00a06d 0e cb 8e      ASL $8ecb     	; 
00a070 fb            XCE      
00a071 0e fb 82      ASL $82fb     	; 
00a074 9b            TXY      
00a075 82 bb 02      BRL $00a333     
00a078 fe 42 e8      INC $e842,X     
00a07b bb            TYX      
00a07c 8e 0f 0a      STX $0a0f     	; 
00a07f ab            PLB      
00a080 0e cb 0e      ASL $0ecb     	; 
00a083 f9 0e 88      SBC $880e,Y     
00a086 86 a6         STX $a6     
00a088 06 db         ASL $db     
00a08a 02 b6         COP $b6     
00a08c 8e ff ab      STX $abff     	; 
00a08f ce de 42      DEC $42de     	; 
00a092 c0 cb         CPY #$cb     
00a094 ce 5b 8e      DEC $8e5b     	; 
00a097 1b            TCS      
00a098 ce 4b 85      DEC $854b     	; 
00a09b 67 45         ADC [$45]     
00a09d 0f 07 2b 00   ORA $002b07     
00a0a1 7b            TDC      
00a0a2 85 97         STA $97     
00a0a4 05 0f         ORA $0f     
00a0a6 0a            ASL      
00a0a7 92 02         STA ($02)     
00a0a9 ff 0a aa 0e   SBC $0eaa0a,X     
00a0ad 24 4a         BIT $4a     
00a0af 1e 23 aa      ASL $aa23,X     
00a0b2 ff 1b 80 bb   SBC $bb801b,X     
00a0b6 38            SEC      
00a0b7 4b            PHK      
00a0b8 bc eb 3b      LDY $3beb,X     
00a0bb 0f 04 2b 00   ORA $002b04     
00a0bf ab            PLB      
00a0c0 38            SEC      
00a0c1 eb            XBA      
00a0c2 00 cb         BRK $cb     
00a0c4 8e fb 80      STX $80fb     	; 
00a0c7 ab            PLB      
00a0c8 b8            CLV      
00a0c9 6b            RTL      
00a0ca 80 fb         BRA $a0c7     
00a0cc 3c 9b bb      BIT $bb9b,X     
00a0cf 5b            TCD      
00a0d0 bc fb 00      LDY $00fb,X     
00a0d3 6b            RTL      
00a0d4 b8            CLV      
00a0d5 fb            XCE      
00a0d6 38            SEC      
00a0d7 ff 0b 86 1a   SBC $1a860b,X     
00a0db 06 db         ASL $db     
00a0dd 06 de         ASL $de     
00a0df c2 02         REP #$02     
00a0e1 f0 3b         BEQ $a11e     
00a0e3 bb            TYX      
00a0e4 80 eb         BRA $a0d1     
00a0e6 06 0b         ASL $0b     
00a0e8 86 93         STX $93     
00a0ea 06 f0         ASL $f0     
00a0ec 39 0f 06      AND $060f,Y     
00a0ef 60            RTS      
00a0f0 b8            CLV      
00a0f1 1b            TCS      
00a0f2 86 a0         STX $a0     
00a0f4 b9 b7 27      LDA $27b7,Y     
00a0f7 bd 27 2b      LDA $2b27,X     
00a0fa 83 a1         STA $a1,S     
00a0fc 26 a9         ROL $a9     
00a0fe 26 ee         ROL $ee     
00a100 25 0b         AND $0b     
00a102 27 b4         AND [$b4]     
00a104 ff 0f 02 1e   SBC $1e020f,X     
00a108 2f 60 e0 3a   AND $3ae060     
00a10c a5 a7         LDA $a7     
00a10e db            STP      
00a10f 80 3b         BRA $a14c     
00a111 82 8b 02      BRL $00a39f     
00a114 fe 42 68      INC $6842,X     
00a117 70 bb         BVS $a0d4     
00a119 25 a7         AND $a7     
00a11b 2c 27 b2      BIT $b227     	; 
00a11e 26 b9         ROL $b9     
00a120 26 9b         ROL $9b     
00a122 80 a8         BRA $a0cc     
00a124 82 b5 27      BRL $00c8dc     
00a127 bc 27 b0      LDY $b027,X     
00a12a bb            TYX      
00a12b 3b            TSC      
00a12c 82 87 34      BRL $00d5b6     
00a12f ee 25 6b      INC $6b25     	; 
00a132 ff 1e a5 0a   SBC $0aa51e,X     
00a136 2e 28 27      ROL $2728     	; 
00a139 2e 33 c7      ROL $c733     	; 
00a13c 0f 03 1e 40   ORA $401e03     
00a140 07 2e         ORA [$2e]     
00a142 30 e7         BMI $a12b     
00a144 0f 05 1e 24   ORA $241e05     
00a148 44 0f 07      MVP $0f,$07     
00a14b 1e 22 6a      ASL $6a22,X     
00a14e 2e 23 ab      ROL $ab23     	; 
00a151 0f 09 1e 41   ORA $411e09     
00a155 68            PLA      
00a156 1e 2a 8a      ASL $8a2a,X     
00a159 2e 23 a2      ROL $a223     	; 
00a15c 2e 32 ea      ROL $ea32     	; 
00a15f ff 3b 87 66   SBC $66873b,X     
00a163 27 cc         AND [$cc]     
00a165 27 ee         AND [$ee]     
00a167 31 87         AND ($87),Y     
00a169 ee 23 a7      INC $a723     	; 
00a16c 3b            TSC      
00a16d 87 db         STA [$db]     
00a16f 07 ff         ORA [$ff]     
00a171 0f 01 2e 25   ORA $252e01     
00a175 2b            PLD      
00a176 2e 25 4b      ROL $4b25     	; 
00a179 4e 25 cb      LSR $cb25     	; 
00a17c 6b            RTL      
00a17d 07 97         ORA [$97]     
00a17f 47 e9         EOR [$e9]     
00a181 87 47         STA [$47]     
00a183 c7 7a         CMP [$7a]     
00a185 07 d6         ORA [$d6]     
00a187 c7 78         CMP [$78]     
00a189 07 38         ORA [$38]     
00a18b 87 ab         STA [$ab]     
00a18d 47 e3         EOR [$e3]     
00a18f 07 9b         ORA [$9b]     
00a191 87 0f         STA [$0f]     
00a193 09 68         ORA #$68     
00a195 47 db         EOR [$db]     
00a197 c7 3b         CMP [$3b]     
00a199 c7 ff         CMP [$ff]     
00a19b 47 9b         EOR [$9b]     
00a19d cb            WAI      
00a19e 07 fa         ORA [$fa]     
00a1a0 1d 86 9b      ORA $9b86,X     
00a1a3 3a            DEC      
00a1a4 87 56         STA [$56]     
00a1a6 07 88         ORA [$88]     
00a1a8 1b            TCS      
00a1a9 07 9d         ORA [$9d]     
00a1ab 2e 65 f0      ROL $f065     	; 
00a1ae ff 9b 07 05   SBC $05079b,X     
00a1b2 32 06         AND ($06)     
00a1b4 33 07         AND ($07,S),Y     
00a1b6 34 ce         BIT $ce,X     
00a1b8 03 dc         ORA $dc,S     
00a1ba 51 ee         EOR ($ee),Y     
00a1bc 07 73         ORA [$73]     
00a1be e0 74         CPX #$74     
00a1c0 0a            ASL      
00a1c1 7e 06 9e      ROR $9e06,X     
00a1c4 0a            ASL      
00a1c5 ce 06 e4      DEC $e406     	; 
00a1c8 00 e8         BRK $e8     
00a1ca 0a            ASL      
00a1cb fe 0a 2e      INC $2e0a,X     
00a1ce 89 4e         BIT #$4e     
00a1d0 0b            PHD      
00a1d1 54 0a 14      MVN $0a,$14     
00a1d4 8a            TXA      
00a1d5 c4 0a         CPY $0a     
00a1d7 34 8a         BIT $8a,X     
00a1d9 7e 06 c7      ROR $c706,X     
00a1dc 0a            ASL      
00a1dd 01 e0         ORA ($e0,X)     
00a1df 02 0a         COP $0a     
00a1e1 47 0a         EOR [$0a]     
00a1e3 81 60         STA ($60,X)     
00a1e5 82 0a c7      BRL $0068f2     
00a1e8 0a            ASL      
00a1e9 0e 87 7e      ASL $7e87     	; 
00a1ec 02 a7         COP $a7     
00a1ee 02 b3         COP $b3     
00a1f0 02 d7         COP $d7     
00a1f2 02 e3         COP $e3     
00a1f4 02 07         COP $07     
00a1f6 82 13 02      BRL $00a40c     
00a1f9 3e 06 7e      ROL $7e06,X     
00a1fc 02 ae         COP $ae     
00a1fe 07 fe         ORA [$fe]     
00a200 0a            ASL      
00a201 0d c4 cd      ORA $cdc4     	; 
00a204 43 ce         EOR $ce,S     
00a206 09 de         ORA #$de     
00a208 0b            PHD      
00a209 dd 42 fe      CMP $fe42,X     
00a20c 02 5d         COP $5d     
00a20e c7 fd         CMP [$fd]     
00a210 5b            TCD      
00a211 07 05         ORA [$05]     
00a213 32 06         AND ($06)     
00a215 33 07         AND ($07,S),Y     
00a217 34 5e         BIT $5e,X     
00a219 0a            ASL      
00a21a 68            PLA      
00a21b 64 98         STZ $98     
00a21d 64 a8         STZ $a8     
00a21f 64 ce         STZ $ce     
00a221 06 fe         ASL $fe     
00a223 02 0d         COP $0d     
00a225 01 1e         ORA ($1e,X)     
00a227 0e 7e 02      ASL $027e     	; 
00a22a 94 63         STY $63,X     
00a22c b4 63         LDY $63,X     
00a22e d4 63         PEI $63     
00a230 f4 63 14      PEA $1463     	; 
00a233 e3 2e         SBC $2e,S     
00a235 0e 5e 02      ASL $025e     	; 
00a238 64 35         STZ $35     
00a23a 88            DEY      
00a23b 72 be         ADC ($be)     
00a23d 0e 0d 04      ASL $040d     	; 
00a240 ae 02 ce      LDX $ce02     	; 
00a243 08            PHP      
00a244 cd 4b fe      CMP $fe4b     	; 
00a247 02 0d         COP $0d     
00a249 05 68         ORA $68     
00a24b 31 7e         AND ($7e),Y     
00a24d 0a            ASL      
00a24e 96 31         STX $31,X     
00a250 a9 63         LDA #$63     
00a252 a8            TAY      
00a253 33 d5         AND ($d5,S),Y     
00a255 30 ee         BMI $a245     
00a257 02 e6         COP $e6     
00a259 62 f4 61      PER #$61f4     
00a25c 04 b1         TSB $b1     
00a25e 08            PHP      
00a25f 3f 44 33 94   AND $943344,X     
00a263 63 a4         ADC $a4,S     
00a265 31 e4         AND ($e4),Y     
00a267 31 04         AND ($04),Y     
00a269 bf 08 3f 04   LDA $043f08,X     
00a26d bf 08 3f cd   LDA $cd3f08,X     
00a271 4b            PHK      
00a272 03 e4         ORA $e4,S     
00a274 0e 03 2e      ASL $2e03     	; 
00a277 01 7e         ORA ($7e,X)     
00a279 06 be         ASL $be     
00a27b 02 de         COP $de     
00a27d 06 fe         ASL $fe     
00a27f 0a            ASL      
00a280 0d c4 cd      ORA $cdc4     	; 
00a283 43 ce         EOR $ce,S     
00a285 09 de         ORA #$de     
00a287 0b            PHD      
00a288 dd 42 fe      CMP $fe42,X     
00a28b 02 5d         COP $5d     
00a28d c7 fd         CMP [$fd]     
00a28f 9b            TXY      
00a290 07 05         ORA [$05]     
00a292 32 06         AND ($06)     
00a294 33 07         AND ($07,S),Y     
00a296 34 fe         BIT $fe,X     
00a298 00 27         BRK $27     
00a29a b1 65         LDA ($65),Y     
00a29c 32 75         AND ($75)     
00a29e 0a            ASL      
00a29f 71 00         ADC ($00),Y     
00a2a1 b7 31         LDA [$31],Y     
00a2a3 08            PHP      
00a2a4 e4 18         CPX $18     
00a2a6 64 1e         STZ $1e     
00a2a8 04 57         TSB $57     
00a2aa 3b            TSC      
00a2ab bb            TYX      
00a2ac 0a            ASL      
00a2ad 17 8a         ORA [$8a],Y     
00a2af 27 3a         AND [$3a]     
00a2b1 73 0a         ADC ($0a,S),Y     
00a2b3 7b            TDC      
00a2b4 0a            ASL      
00a2b5 d7 0a         CMP [$0a],Y     
00a2b7 e7 3a         SBC [$3a]     
00a2b9 3b            TSC      
00a2ba 8a            TXA      
00a2bb 97 0a         STA [$0a],Y     
00a2bd fe 08 24      INC $2408,X     
00a2c0 8a            TXA      
00a2c1 2e 00 3e      ROL $3e00     	; 
00a2c4 40            RTI      
00a2c5 38            SEC      
00a2c6 64 6f         STZ $6f     
00a2c8 00 9f         BRK $9f     
00a2ca 00 be         BRK $be     
00a2cc 43 c8         EOR $c8,S     
00a2ce 0a            ASL      
00a2cf c9 63         CMP #$63     
00a2d1 ce 07 fe      DEC $fe07     	; 
00a2d4 07 2e         ORA [$2e]     
00a2d6 81 66         STA ($66,X)     
00a2d8 42 6a         WDM $6a     
00a2da 42 79         WDM $79     
00a2dc 0a            ASL      
00a2dd be 00 c8      LDX $c800,Y     
00a2e0 64 f8         STZ $f8     
00a2e2 64 08         STZ $08     
00a2e4 e4 2e         CPX $2e     
00a2e6 07 7e         ORA [$7e]     
00a2e8 03 9e         ORA $9e,S     
00a2ea 07 be         ORA [$be]     
00a2ec 03 de         ORA $de,S     
00a2ee 07 fe         ORA [$fe]     
00a2f0 0a            ASL      
00a2f1 03 a5         ORA $a5,S     
00a2f3 0d 44 cd      ORA $cd44     	; 
00a2f6 43 ce         EOR $ce,S     
00a2f8 09 dd         ORA #$dd     
00a2fa 42 de         WDM $de     
00a2fc 0b            PHD      
00a2fd fe 02 5d      INC $5d02,X     
00a300 c7 fd         CMP [$fd]     
00a302 9b            TXY      
00a303 07 05         ORA [$05]     
00a305 32 06         AND ($06)     
00a307 33 07         AND ($07,S),Y     
00a309 34 fe         BIT $fe,X     
00a30b 06 0c         ASL $0c     
00a30d 81 39         STA ($39,X)     
00a30f 0a            ASL      
00a310 5c 01 89 0a   JML $0a8901     
00a314 ac 01 d9      LDY $d901     	; 
00a317 0a            ASL      
00a318 fc 01 2e      JSR ($2e01,X)     
00a31b 83 a7         STA $a7,S     
00a31d 01 b7         ORA ($b7,X)     
00a31f 00 c7         BRK $c7     
00a321 01 de         ORA ($de,X)     
00a323 0a            ASL      
00a324 fe 02 4e      INC $4e02,X     
00a327 83 5a         STA $5a,S     
00a329 32 63         AND ($63)     
00a32b 0a            ASL      
00a32c 69 0a         ADC #$0a     
00a32e 7e 02 ee      ROR $ee02,X     
00a331 03 fa         ORA $fa,S     
00a333 32 03         AND ($03)     
00a335 8a            TXA      
00a336 09 0a         ORA #$0a     
00a338 1e 02 ee      ASL $ee02,X     
00a33b 03 fa         ORA $fa,S     
00a33d 32 03         AND ($03)     
00a33f 8a            TXA      
00a340 09 0a         ORA #$0a     
00a342 14 42         TRB $42     
00a344 1e 02 7e      ASL $7e02,X     
00a347 0a            ASL      
00a348 9e 07 fe      STZ $fe07,X     
00a34b 0a            ASL      
00a34c 2e 86 5e      ROL $5e86     	; 
00a34f 0a            ASL      
00a350 8e 06 be      STX $be06     	; 
00a353 0a            ASL      
00a354 ee 07 3e      INC $3e07     	; 
00a357 83 5e         STA $5e,S     
00a359 07 fe         ORA [$fe]     
00a35b 0a            ASL      
00a35c 0d c4 41      ORA $41c4     	; 
00a35f 52 51         EOR ($51)     
00a361 52 cd         EOR ($cd)     
00a363 43 ce         EOR $ce,S     
00a365 09 de         ORA #$de     
00a367 0b            PHD      
00a368 dd 42 fe      CMP $fe42,X     
00a36b 02 5d         COP $5d     
00a36d c7 fd         CMP [$fd]     
00a36f 5b            TCD      
00a370 07 05         ORA [$05]     
00a372 32 06         AND ($06)     
00a374 33 07         AND ($07,S),Y     
00a376 34 fe         BIT $fe,X     
00a378 0a            ASL      
00a379 ae 86 be      LDX $be86     	; 
00a37c 07 fe         ORA [$fe]     
00a37e 02 0d         COP $0d     
00a380 02 27         COP $27     
00a382 32 46         AND ($46)     
00a384 61 55         ADC ($55,X)     
00a386 62 5e 0e      PER #$0e5e     
00a389 1e 82 68      ASL $6882,X     
00a38c 3c 74 3a      BIT $3a74,X     
00a38f 7d 4b 5e      ADC $5e4b,X     
00a392 8e 7d 4b      STX $4b7d     	; 
00a395 7e 82 84      ROR $8482,X     
00a398 62 94 61      PER #$6194     
00a39b a4 31         LDY $31     
00a39d bd 4b ce      LDA $ce4b,X     
00a3a0 06 fe         ASL $fe     
00a3a2 02 0d         COP $0d     
00a3a4 06 34         ASL $34     
00a3a6 31 3e         AND ($3e),Y     
00a3a8 0a            ASL      
00a3a9 64 32         STZ $32     
00a3ab 75 0a         ADC $0a,X     
00a3ad 7b            TDC      
00a3ae 61 a4         ADC ($a4,X)     
00a3b0 33 ae         AND ($ae,S),Y     
00a3b2 02 de         COP $de     
00a3b4 0e 3e 82      ASL $823e     	; 
00a3b7 64 32         STZ $32     
00a3b9 78            SEI      
00a3ba 32 b4         AND ($b4)     
00a3bc 36 c8         ROL $c8,X     
00a3be 36 dd         ROL $dd,X     
00a3c0 4b            PHK      
00a3c1 44 b2 58      MVP $b2,$58     
00a3c4 32 94         AND ($94)     
00a3c6 63 a4         ADC $a4,S     
00a3c8 3e ba 30      ROL $30ba,X     
00a3cb c9 61         CMP #$61     
00a3cd ce 06 dd      DEC $dd06     	; 
00a3d0 4b            PHK      
00a3d1 ce 86 dd      DEC $dd86     	; 
00a3d4 4b            PHK      
00a3d5 fe 02 2e      INC $2e02,X     
00a3d8 86 5e         STX $5e     
00a3da 02 7e         COP $7e     
00a3dc 06 fe         ASL $fe     
00a3de 02 1e         COP $1e     
00a3e0 86 3e         STX $3e     
00a3e2 02 5e         COP $5e     
00a3e4 06 7e         ASL $7e     
00a3e6 02 9e         COP $9e     
00a3e8 06 fe         ASL $fe     
00a3ea 0a            ASL      
00a3eb 0d c4 cd      ORA $cdc4     	; 
00a3ee 43 ce         EOR $ce,S     
00a3f0 09 de         ORA #$de     
00a3f2 0b            PHD      
00a3f3 dd 42 fe      CMP $fe42,X     
00a3f6 02 5d         COP $5d     
00a3f8 c7 fd         CMP [$fd]     
00a3fa 5b            TCD      
00a3fb 06 05         ASL $05     
00a3fd 32 06         AND ($06)     
00a3ff 33 07         AND ($07,S),Y     
00a401 34 5e         BIT $5e,X     
00a403 0a            ASL      
00a404 ae 02 0d      LDX $0d02     	; 
00a407 01 39         ORA ($39,X)     
00a409 73 0d         ADC ($0d,S),Y     
00a40b 03 39         ORA $39,S     
00a40d 7b            TDC      
00a40e 4d 4b de      EOR $de4b     	; 
00a411 06 1e         ASL $1e     
00a413 8a            TXA      
00a414 ae 06 c4      LDX $c406     	; 
00a417 33 16         AND ($16,S),Y     
00a419 fe a5 77      INC $77a5,X     
00a41c fe 02 fe      INC $fe02,X     
00a41f 82 0d 07      BRL $00ab2f     
00a422 39 73 a8      AND $a873,Y     
00a425 74 ed         STZ $ed,X     
00a427 4b            PHK      
00a428 49 fb         EOR #$fb     
00a42a e8            INX      
00a42b 74 fe         STZ $fe,X     
00a42d 0a            ASL      
00a42e 2e 82 67      ROL $6782     	; 
00a431 02 84         COP $84     
00a433 7a            PLY      
00a434 87 31         STA [$31]     
00a436 0d 0b fe      ORA $fe0b     	; 
00a439 02 0d         COP $0d     
00a43b 0c 39 73      TSB $7339     	; 
00a43e 5e 06 c6      LSR $c606,X     
00a441 76 45         ROR $45,X     
00a443 ff be 0a dd   SBC $dd0abe,X     
00a447 48            PHA      
00a448 fe 06 3d      INC $3d06,X     
00a44b cb            WAI      
00a44c 46 7e         LSR $7e     
00a44e ad 4a fe      LDA $fe4a     	; 
00a451 82 39 f3      BRL $00978d     
00a454 a9 7b         LDA #$7b     
00a456 4e 8a 9e      LSR $9e8a     	; 
00a459 07 fe         ORA [$fe]     
00a45b 0a            ASL      
00a45c 0d c4 cd      ORA $cdc4     	; 
00a45f 43 ce         EOR $ce,S     
00a461 09 de         ORA #$de     
00a463 0b            PHD      
00a464 dd 42 fe      CMP $fe42,X     
00a467 02 5d         COP $5d     
00a469 c7 fd         CMP [$fd]     
00a46b 94 11         STY $11,X     
00a46d 0f 26 fe 10   ORA $10fe26     
00a471 28            PLP      
00a472 94 65         STY $65,X     
00a474 15 eb         ORA $eb,X     
00a476 12 fa         ORA ($fa)     
00a478 41 4a         EOR ($4a,X)     
00a47a 96 54         STX $54,X     
00a47c 40            RTI      
00a47d a4 42         LDY $42     
00a47f b7 13         LDA [$13],Y     
00a481 e9 19         SBC #$19     
00a483 f5 15         SBC $15,X     
00a485 11 80         ORA ($80),Y     
00a487 47 42         EOR [$42]     
00a489 71 13         ADC ($13),Y     
00a48b 80 41         BRA $a4ce     
00a48d 15 92         ORA $92,X     
00a48f 1b            TCS      
00a490 1f 24 40 55   ORA $554024,X     
00a494 12 64         ORA ($64)     
00a496 40            RTI      
00a497 95 12         STA $12,X     
00a499 a4 40         LDY $40     
00a49b d2 12         CMP ($12)     
00a49d e1 40         SBC ($40,X)     
00a49f 13 c0         ORA ($c0,S),Y     
00a4a1 2c 17 2f      BIT $2f17     	; 
00a4a4 12 49         ORA ($49)     
00a4a6 13 83         ORA ($83,S),Y     
00a4a8 40            RTI      
00a4a9 9f 14 a3 40   STA $40a314,X     
00a4ad 17 92         ORA [$92],Y     
00a4af 83 13         STA $13,S     
00a4b1 92 41         STA ($41)     
00a4b3 b9 14 c5      LDA $c514,Y     
00a4b6 12 c8         ORA ($c8)     
00a4b8 40            RTI      
00a4b9 d4 40         PEI $40     
00a4bb 4b            PHK      
00a4bc 92 78         STA ($78)     
00a4be 1b            TCS      
00a4bf 9c 94 9f      STZ $9f94     	; 
00a4c2 11 df         ORA ($df),Y     
00a4c4 14 fe         TRB $fe     
00a4c6 11 7d         ORA ($7d),Y     
00a4c8 c1 9e         CMP ($9e,X)     
00a4ca 42 cf         WDM $cf     
00a4cc 20 fd 90      JSR $90fd     	; 
00a4cf b1 0f         LDA ($0f),Y     
00a4d1 26 29         ROL $29     
00a4d3 91 7e         STA ($7e),Y     
00a4d5 42 fe         WDM $fe     
00a4d7 40            RTI      
00a4d8 28            PLP      
00a4d9 92 4e         STA ($4e)     
00a4db 42 2e         WDM $2e     
00a4dd c0 57         CPY #$57     
00a4df 73 c3         ADC ($c3,S),Y     
00a4e1 25 c7         AND $c7     
00a4e3 27 23         AND [$23]     
00a4e5 84 33         STY $33     
00a4e7 20 5c 01      JSR $015c     	; 
00a4ea 77 63         ADC [$63],Y     
00a4ec 88            DEY      
00a4ed 62 99 61      PER #$6199     
00a4f0 aa            TAX      
00a4f1 60            RTS      
00a4f2 bc 01 ee      LDY $ee01,X     
00a4f5 42 4e         WDM $4e     
00a4f7 c0 69         CPY #$69     
00a4f9 11 7e         ORA ($7e),Y     
00a4fb 42 de         WDM $de     
00a4fd 40            RTI      
00a4fe f8            SED      
00a4ff 62 0e c2      PER #$c20e     
00a502 ae 40 d7      LDX $d740     	; 
00a505 63 e7         ADC $e7,S     
00a507 63 33         ADC $33,S     
00a509 a7 37         LDA [$37]     
00a50b 27 43         AND [$43]     
00a50d 04 cc         TSB $cc     
00a50f 01 e7         ORA ($e7,X)     
00a511 73 0c         ADC ($0c,S),Y     
00a513 81 3e         STA ($3e,X)     
00a515 42 0d         WDM $0d     
00a517 0a            ASL      
00a518 5e 40 88      LSR $8840,X     
00a51b 72 be         ADC ($be)     
00a51d 42 e7         WDM $e7     
00a51f 87 fe         STA [$fe]     
00a521 40            RTI      
00a522 39 e1 4e      AND $4ee1,Y     
00a525 00 69         BRK $69     
00a527 60            RTS      
00a528 87 60         STA [$60]     
00a52a a5 60         LDA $60     
00a52c c3 31         CMP $31,S     
00a52e fe 31 6d      INC $6d31,X     
00a531 c1 be         CMP ($be,X)     
00a533 42 ef         WDM $ef     
00a535 20 fd 52      JSR $52fd     	; 
00a538 21 0f         AND ($0f,X)     
00a53a 20 6e 40      JSR $406e     	; 
00a53d 58            CLI      
00a53e f2 93         SBC ($93)     
00a540 01 97         ORA ($97,X)     
00a542 00 0c         BRK $0c     
00a544 81 97         STA ($97,X)     
00a546 40            RTI      
00a547 a6 41         LDX $41     
00a549 c7 40         CMP [$40]     
00a54b 0d 04 03      ORA $0304     	; 
00a54e 01 07         ORA ($07,X)     
00a550 01 23         ORA ($23,X)     
00a552 01 27         ORA ($27,X)     
00a554 01 ec         ORA ($ec,X)     
00a556 03 ac         ORA $ac,S     
00a558 f3 c3         SBC ($c3,S),Y     
00a55a 03 78         ORA $78,S     
00a55c e2 94         SEP #$94     	; Index (8 bit)
00a55e 43 47         EOR $47,S     
00a560 f3 74         SBC ($74,S),Y     
00a562 43 47         EOR $47,S     
00a564 fb            XCE      
00a565 74 43         STZ $43,X     
00a567 2c f1 4c      BIT $4cf1     	; 
00a56a 63 47         ADC $47,S     
00a56c 00 57         BRK $57     
00a56e 21 5c         AND ($5c,X)     
00a570 01 7c         ORA ($7c,X)     
00a572 72 39         ADC ($39)     
00a574 f1 ec         SBC ($ec),Y     
00a576 02 4c         COP $4c     
00a578 81 d8         STA ($d8,X)     
00a57a 62 ec 01      PER #$01ec     
00a57d 0d 0d 0f      ORA $0f0d     	; 
00a580 38            SEC      
00a581 c7 07         CMP [$07]     
00a583 ed 4a 1d      SBC $1d4a     	; 
00a586 c1 5f         CMP ($5f,X)     
00a588 26 fd         ROL $fd     
00a58a 54 21 0f      MVN $21,$0f     
00a58d 26 a7         ROL $a7     
00a58f 22 37 fb 73   JSL $73fb37     
00a593 20 83 07      JSR $0783     	; 
00a596 87 02         STA [$02]     
00a598 93 20         STA ($20,S),Y     
00a59a c7 73         CMP [$73]     
00a59c 04 f1         TSB $f1     
00a59e 06 31         ASL $31     
00a5a0 39 71 59      AND $5971,Y     
00a5a3 71 e7         ADC ($e7),Y     
00a5a5 73 37         ADC ($37,S),Y     
00a5a7 a0 47         LDY #$47     
00a5a9 04 86         TSB $86     
00a5ab 7c e5 71      JMP ($71e5,X)     
00a5ae e7 31         SBC [$31]     
00a5b0 33 a4         AND ($a4,S),Y     
00a5b2 39 71 a9      AND $a971,Y     
00a5b5 71 d3         ADC ($d3),Y     
00a5b7 23 08         AND $8,S     
00a5b9 f2 13         SBC ($13)     
00a5bb 05 27         ORA $27     
00a5bd 02 49         COP $49     
00a5bf 71 75         ADC ($75),Y     
00a5c1 75 e8         ADC $e8,X     
00a5c3 72 67         ADC ($67)     
00a5c5 f3 99         SBC ($99,S),Y     
00a5c7 71 e7         ADC ($e7),Y     
00a5c9 20 f4 72      JSR $72f4     	; 
00a5cc f7 31         SBC [$31],Y     
00a5ce 17 a0         ORA [$a0],Y     
00a5d0 33 20         AND ($20,S),Y     
00a5d2 39 71 73      AND $7371,Y     
00a5d5 28            PLP      
00a5d6 bc 05 39      LDY $3905,X     
00a5d9 f1 79         SBC ($79),Y     
00a5db 71 a6         ADC ($a6),Y     
00a5dd 21 c3         AND ($c3,X)     
00a5df 06 d3         ASL $d3     
00a5e1 20 dc 00      JSR $00dc     
00a5e4 fc 00 07      JSR ($0700,X)     
00a5e7 a2 13         LDX #$13     
00a5e9 21 5f         AND ($5f,X)     
00a5eb 32 8c         AND ($8c)     
00a5ed 00 98         BRK $98     
00a5ef 7a            PLY      
00a5f0 c7 63         CMP [$63]     
00a5f2 d9 61 03      CMP $0361,Y     
00a5f5 a2 07         LDX #$07     
00a5f7 22 74 72 77   JSL $777274     
00a5fb 31 e7         AND ($e7),Y     
00a5fd 73 39         ADC ($39,S),Y     
00a5ff f1 58         SBC ($58),Y     
00a601 72 77         ADC ($77)     
00a603 73 d8         ADC ($d8,S),Y     
00a605 72 7f         ADC ($7f)     
00a607 b1 97         LDA ($97),Y     
00a609 73 b6         ADC ($b6,S),Y     
00a60b 64 c5         STZ $c5     
00a60d 65 d4         ADC $d4     
00a60f 66 e3         ROR $e3     
00a611 67 f3         ADC [$f3]     
00a613 67 8d         ADC [$8d]     
00a615 c1 cf         CMP ($cf,X)     
00a617 26 fd         ROL $fd     
00a619 52 31         EOR ($31)     
00a61b 0f 20 6e 66   ORA $666e20     
00a61f 07 81         ORA [$81]     
00a621 36 01         ROL $01,X     
00a623 66 00         ROR $00     
00a625 a7 22         LDA [$22]     
00a627 08            PHP      
00a628 f2 67         SBC ($67)     
00a62a 7b            TDC      
00a62b dc 02 98      JML ($9802)     
00a62e f2 d7         SBC ($d7)     
00a630 20 39 f1      JSR $f139     	; 
00a633 9f 33 dc 27   STA $27dc33,X     
00a637 dc 57 23      JML ($2357)     
00a63a 83 57         STA $57,S     
00a63c 63 6c         ADC $6c,S     
00a63e 51 87         EOR ($87),Y     
00a640 63 99         ADC $99,S     
00a642 61 a3         ADC ($a3,X)     
00a644 06 b3         ASL $b3     
00a646 21 77         AND ($77,X)     
00a648 f3 f3         SBC ($f3,S),Y     
00a64a 21 f7         AND ($f7,X)     
00a64c 2a            ROL      
00a64d 13 81         ORA ($81,S),Y     
00a64f 23 22         AND $22,S     
00a651 53 00         EOR ($00,S),Y     
00a653 63 22         ADC $22,S     
00a655 e9 0b         SBC #$0b     
00a657 0c 83 13      TSB $1383     	; 
00a65a 21 16         AND ($16,X)     
00a65c 22 33 05 8f   JSL $8f0533     
00a660 35 ec         AND $ec,X     
00a662 01 63         ORA ($63,X)     
00a664 a0 67         LDY #$67     
00a666 20 73 01      JSR $0173     	; 
00a669 77 01         ADC [$01],Y     
00a66b 83 20         STA $20,S     
00a66d 87 20         STA [$20]     
00a66f b3 20         LDA ($20,S),Y     
00a671 b7 20         LDA [$20],Y     
00a673 c3 01         CMP $1,S     
00a675 c7 00         CMP [$00]     
00a677 d3 20         CMP ($20,S),Y     
00a679 d7 20         CMP [$20],Y     
00a67b 67 a0         ADC [$a0]     
00a67d 77 07         ADC [$07],Y     
00a67f 87 22         STA [$22]     
00a681 e8            INX      
00a682 62 f5 65      PER #$65f5     
00a685 1c 82 7f      TRB $7f82     	; 
00a688 38            SEC      
00a689 8d c1 cf      STA $cfc1     	; 
00a68c 26 fd         ROL $fd     
00a68e 50 21         BVC $a6b1     
00a690 07 81         ORA [$81]     
00a692 47 24         EOR [$24]     
00a694 57 00         EOR [$00],Y     
00a696 63 01         ADC $1,S     
00a698 77 01         ADC [$01],Y     
00a69a c9 71         CMP #$71     
00a69c 68            PLA      
00a69d f2 e7         SBC ($e7)     
00a69f 73 97         ADC ($97,S),Y     
00a6a1 fb            XCE      
00a6a2 06 83         ASL $83     
00a6a4 5c 01 d7 22   JML $22d701     
00a6a8 e7 00         SBC [$00]     
00a6aa 03 a7         ORA $a7,S     
00a6ac 6c 02 b3      JMP ($b302)     
00a6af 22 e3 01 e7   JSL $e701e3     
00a6b3 07 47         ORA [$47]     
00a6b5 a0 57         LDY #$57     
00a6b7 06 a7         ASL $a7     
00a6b9 01 d3         ORA ($d3,X)     
00a6bb 00 d7         BRK $d7     
00a6bd 01 07         ORA ($07,X)     
00a6bf 81 67         STA ($67,X)     
00a6c1 20 93 22      JSR $2293     	; 
00a6c4 03 a3         ORA $a3,S     
00a6c6 1c 61 17      TRB $1761     	; 
00a6c9 21 6f         AND ($6f,X)     
00a6cb 33 c7         AND ($c7,S),Y     
00a6cd 63 d8         ADC $d8,S     
00a6cf 62 e9 61      PER #$61e9     
00a6d2 fa            PLX      
00a6d3 60            RTS      
00a6d4 4f b3 87 63   EOR $6387b3     
00a6d8 9c 01 b7      STZ $b701     	; 
00a6db 63 c8         ADC $c8,S     
00a6dd 62 d9 61      PER #$61d9     
00a6e0 ea            NOP      
00a6e1 60            RTS      
00a6e2 39 f1 87      AND $87f1,Y     
00a6e5 21 a7         AND ($a7,X)     
00a6e7 01 b7         ORA ($b7,X)     
00a6e9 20 39 f1      JSR $f139     	; 
00a6ec 5f 38 6d c1   EOR $c16d38,X     
00a6f0 af 26 fd 90   LDA $90fd26     
00a6f4 11 0f         ORA ($0f),Y     
00a6f6 26 fe         ROL $fe     
00a6f8 10 2a         BPL $a724     
00a6fa 93 87         STA ($87,S),Y     
00a6fc 17 a3         ORA [$a3],Y     
00a6fe 14 b2         TRB $b2     
00a700 42 0a         WDM $0a     
00a702 92 19         STA ($19)     
00a704 40            RTI      
00a705 36 14         ROL $14,X     
00a707 50 41         BVC $a74a     
00a709 82 16 2b      BRL $00d222     
00a70c 93 24         STA ($24,S),Y     
00a70e 41 bb         EOR ($bb,X)     
00a710 14 b8         TRB $b8     
00a712 00 c2         BRK $c2     
00a714 43 c3         EOR $c3,S     
00a716 13 1b         ORA ($1b,S),Y     
00a718 94 67         STY $67,X     
00a71a 12 c4         ORA ($c4)     
00a71c 15 53         ORA $53,X     
00a71e c1 d2         CMP ($d2,X)     
00a720 41 12         EOR ($12,X)     
00a722 c1 29         CMP ($29,X)     
00a724 13 85         ORA ($85,S),Y     
00a726 17 1b         ORA [$1b],Y     
00a728 92 1a         STA ($1a)     
00a72a 42 47         WDM $47     
00a72c 13 83         ORA ($83,S),Y     
00a72e 41 a7         EOR ($a7,X)     
00a730 13 0e         ORA ($0e,S),Y     
00a732 91 a7         STA ($a7),Y     
00a734 63 b7         ADC $b7,S     
00a736 63 c5         ADC $c5,S     
00a738 65 d5         ADC $d5     
00a73a 65 dd         ADC $dd     
00a73c 4a            LSR      
00a73d e3 67         SBC $67,S     
00a73f f3 67         SBC ($67,S),Y     
00a741 8d c1 ae      STA $aec1     	; 
00a744 42 df         WDM $df     
00a746 20 fd 90      JSR $90fd     	; 
00a749 11 0f         ORA ($0f),Y     
00a74b 26 6e         ROL $6e     
00a74d 10 8b         BPL $a6da     
00a74f 17 af         ORA [$af],Y     
00a751 32 d8         AND ($d8)     
00a753 62 e8 62      PER #$62e8     
00a756 fc 3f ad      JSR ($ad3f,X)     
00a759 c8            INY      
00a75a f8            SED      
00a75b 64 0c         STZ $0c     
00a75d be 43 43      LDX $4343,Y     
00a760 f8            SED      
00a761 64 0c         STZ $0c     
00a763 bf 73 40 84   LDA $844073,X     
00a767 40            RTI      
00a768 93 40         STA ($40,S),Y     
00a76a a4 40         LDY $40     
00a76c b3 40         LDA ($40,S),Y     
00a76e f8            SED      
00a76f 64 48         STZ $48     
00a771 e4 5c         CPX $5c     
00a773 39 83 40      AND $4083,Y     
00a776 92 41         STA ($41)     
00a778 b3 40         LDA ($40,S),Y     
00a77a f8            SED      
00a77b 64 48         STZ $48     
00a77d e4 5c         CPX $5c     
00a77f 39 f8 64      AND $64f8,Y     
00a782 13 c2         ORA ($c2,S),Y     
00a784 37 65         AND [$65],Y     
00a786 4c 24 63      JMP $6324     	; 
00a789 00 97         BRK $97     
00a78b 65 c3         ADC $c3     
00a78d 42 0b         WDM $0b     
00a78f 97 ac         STA [$ac],Y     
00a791 32 f8         AND ($f8)     
00a793 64 0c         STZ $0c     
00a795 be 53 45      LDX $4553,Y     
00a798 9d 48 f8      STA $f848,X     
00a79b 64 2a         STZ $2a     
00a79d e2 3c         SEP #$3c     	; Index (8 bit) Accum (8 bit)
00a79f 47 56         EOR [$56]     
00a7a1 43 ba         EOR $ba,S     
00a7a3 62 f8 64      PER #$64f8     
00a7a6 0c b7 88      TSB $88b7     	; 
00a7a9 64 bc         STZ $bc     
00a7ab 31 d4         AND ($d4),Y     
00a7ad 45 fc         EOR $fc     
00a7af 31 3c         AND ($3c),Y     
00a7b1 b1 78         LDA ($78),Y     
00a7b3 64 8c         STZ $8c     
00a7b5 38            SEC      
00a7b6 0b            PHD      
00a7b7 9c 1a 33      STZ $331a     	; 
00a7ba 18            CLC      
00a7bb 61 28         ADC ($28,X)     
00a7bd 61 39         ADC ($39,X)     
00a7bf 60            RTS      
00a7c0 5d 4a ee      EOR $ee4a,X     
00a7c3 11 0f         ORA ($0f),Y     
00a7c5 b8            CLV      
00a7c6 1d c1 3e      ORA $3ec1,X     
00a7c9 42 6f         WDM $6f     
00a7cb 20 fd 52      JSR $52fd     	; 
00a7ce 31 0f         AND ($0f),Y     
00a7d0 20 6e 40      JSR $406e     	; 
00a7d3 f7 20         SBC [$20],Y     
00a7d5 07 84         ORA [$84]     
00a7d7 17 20         ORA [$20],Y     
00a7d9 4f 34 c3 03   EOR $03c334     
00a7dd c7 02         CMP [$02]     
00a7df d3 22         CMP ($22,S),Y     
00a7e1 27 e3         AND [$e3]     
00a7e3 39 61 e7      AND $e761,Y     
00a7e6 73 5c         ADC ($5c,S),Y     
00a7e8 e4 57         CPX $57     
00a7ea 00 6c         BRK $6c     
00a7ec 73 47         ADC ($47,S),Y     
00a7ee a0 53         LDY #$53     
00a7f0 06 63         ASL $63     
00a7f2 22 a7 73 fc   JSL $fc73a7     
00a7f6 73 13         ADC ($13,S),Y     
00a7f8 a1 33         LDA ($33,X)     
00a7fa 05 43         ORA $43     
00a7fc 21 5c         AND ($5c,X)     
00a7fe 72 c3         ADC ($c3)     
00a800 23 cc         AND $cc,S     
00a802 03 77         ORA $77,S     
00a804 fb            XCE      
00a805 ac 02 39      LDY $3902     	; 
00a808 f1 a7         SBC ($a7),Y     
00a80a 73 d3         ADC ($d3,S),Y     
00a80c 04 e8         TSB $e8     
00a80e 72 e3         ADC ($e3)     
00a810 22 26 f4 bc   JSL $bcf426     
00a814 02 8c         COP $8c     
00a816 81 a8         STA ($a8,X)     
00a818 62 17 87      PER #$8717     
00a81b 43 24         EOR $24,S     
00a81d a7 01         LDA [$01]     
00a81f c3 04         CMP $4,S     
00a821 08            PHP      
00a822 f2 97         SBC ($97)     
00a824 21 a3         AND ($a3,X)     
00a826 02 c9         COP $c9     
00a828 0b            PHD      
00a829 e1 69         SBC ($69,X)     
00a82b f1 69         SBC ($69),Y     
00a82d 8d c1 cf      STA $cfc1     	; 
00a830 26 fd         ROL $fd     
00a832 38            SEC      
00a833 11 0f         ORA ($0f),Y     
00a835 26 ad         ROL $ad     
00a837 40            RTI      
00a838 3d c7 fd      AND $fdc7,X     
00a83b 95 b1         STA $b1,X     
00a83d 0f 26 0d 02   ORA $020d26     
00a841 c8            INY      
00a842 72 1c         ADC ($1c)     
00a844 81 38         STA ($38,X)     
00a846 72 0d         ADC ($0d)     
00a848 05 97         ORA $97     
00a84a 34 98         BIT $98,X     
00a84c 62 a3 20      PER #$20a3     
00a84f b3 06         LDA ($06,S),Y     
00a851 c3 20         CMP $20,S     
00a853 cc 03 f9      CPY $f903     	; 
00a856 91 2c         STA ($2c),Y     
00a858 81 48         STA ($48,X)     
00a85a 62 0d 09      PER #$090d     
00a85d 37 63         AND [$63],Y     
00a85f 47 03         EOR [$03]     
00a861 57 21         EOR [$21],Y     
00a863 8c 02 c5      STY $c502     	; 
00a866 79 c7 31      ADC $31c7,Y     
00a869 f9 11 39      SBC $3911,Y     
00a86c f1 a9         SBC ($a9),Y     
00a86e 11 6f         ORA ($6f),Y     
00a870 b4 d3         LDY $d3,X     
00a872 65 e3         ADC $e3     
00a874 65 7d         ADC $7d     
00a876 c1 bf         CMP ($bf,X)     
00a878 26 fd         ROL $fd     
00a87a 00 c1         BRK $c1     
00a87c 4c 00 f4      JMP $f400     	; 
00a87f 4f 0d 02 02   EOR $02020d     
00a883 42 43         WDM $43     
00a885 4f 52 c2 de   EOR $dec252     
00a889 00 5a         BRK $5a     
00a88b c2 4d         REP #$4d     
00a88d c7 fd         CMP [$fd]     
00a88f 90 51         BCC $a8e2     
00a891 0f 26 ee 10   ORA $10ee26     
00a895 0b            PHD      
00a896 94 33         STY $33,X     
00a898 14 42         TRB $42     
00a89a 42 77         WDM $77     
00a89c 16 86         ASL $86,X     
00a89e 44 02 92      MVP $02,$92     
00a8a1 4a            LSR      
00a8a2 16 69         ASL $69,X     
00a8a4 42 73         WDM $73     
00a8a6 14 b0         TRB $b0     
00a8a8 00 c7         BRK $c7     
00a8aa 12 05         ORA ($05)     
00a8ac c0 1c         CPY #$1c     
00a8ae 17 1f         ORA [$1f],Y     
00a8b0 11 36         ORA ($36),Y     
00a8b2 12 8f         ORA ($8f)     
00a8b4 14 91         TRB $91     
00a8b6 40            RTI      
00a8b7 1b            TCS      
00a8b8 94 35         STY $35,X     
00a8ba 12 34         ORA ($34)     
00a8bc 42 60         WDM $60     
00a8be 42 61         WDM $61     
00a8c0 12 87         ORA ($87)     
00a8c2 12 96         ORA ($96)     
00a8c4 40            RTI      
00a8c5 a3 14         LDA $14,S     
00a8c7 1c 98 1f      TRB $1f98     	; 
00a8ca 11 47         ORA ($47),Y     
00a8cc 12 9f         ORA ($9f)     
00a8ce 15 cc         ORA $cc,X     
00a8d0 15 cf         ORA $cf,X     
00a8d2 11 05         ORA ($05),Y     
00a8d4 c0 1f         CPY #$1f     
00a8d6 15 39         ORA $39,X     
00a8d8 12 7c         ORA ($7c)     
00a8da 16 7f         ASL $7f,X     
00a8dc 11 82         ORA ($82),Y     
00a8de 40            RTI      
00a8df 98            TYA      
00a8e0 12 df         ORA ($df)     
00a8e2 15 16         ORA $16,X     
00a8e4 c4 17         CPY $17     
00a8e6 14 54         TRB $54     
00a8e8 12 9b         ORA ($9b)     
00a8ea 16 28         ASL $28,X     
00a8ec 94 ce         STY $ce,X     
00a8ee 01 3d         ORA ($3d,X)     
00a8f0 c1 5e         CMP ($5e,X)     
00a8f2 42 8f         WDM $8f     
00a8f4 20 fd 97      JSR $97fd     	; 
00a8f7 11 0f         ORA ($0f),Y     
00a8f9 26 fe         ROL $fe     
00a8fb 10 2b         BPL $a928     
00a8fd 92 57         STA ($57)     
00a8ff 12 8b         ORA ($8b)     
00a901 12 c0         ORA ($c0)     
00a903 41 f7         EOR ($f7,X)     
00a905 13 5b         ORA ($5b,S),Y     
00a907 92 69         STA ($69)     
00a909 0b            PHD      
00a90a bb            TYX      
00a90b 12 b2         ORA ($b2)     
00a90d 46 19         LSR $19     
00a90f 93 71         STA ($71,S),Y     
00a911 00 17         BRK $17     
00a913 94 7c         STY $7c,X     
00a915 14 7f         TRB $7f     
00a917 11 93         ORA ($93),Y     
00a919 41 bf         EOR ($bf,X)     
00a91b 15 fc         ORA $fc,X     
00a91d 13 ff         ORA ($ff,S),Y     
00a91f 11 2f         ORA ($2f),Y     
00a921 95 50         STA $50,X     
00a923 42 51         WDM $51     
00a925 12 58         ORA ($58)     
00a927 14 a6         TRB $a6     
00a929 12 db         ORA ($db)     
00a92b 12 1b         ORA ($1b)     
00a92d 93 46         STA ($46,S),Y     
00a92f 43 7b         EOR $7b,S     
00a931 12 8d         ORA ($8d)     
00a933 49 b7         EOR #$b7     
00a935 14 1b         TRB $1b     
00a937 94 49         STY $49,X     
00a939 0b            PHD      
00a93a bb            TYX      
00a93b 12 fc         ORA ($fc)     
00a93d 13 ff         ORA ($ff,S),Y     
00a93f 12 03         ORA ($03)     
00a941 c1 2f         CMP ($2f,X)     
00a943 15 43         ORA $43,X     
00a945 12 4b         ORA ($4b)     
00a947 13 77         ORA ($77,S),Y     
00a949 13 9d         ORA ($9d,S),Y     
00a94b 4a            LSR      
00a94c 15 c1         ORA $c1,X     
00a94e a1 41         LDA ($41,X)     
00a950 c3 12         CMP $12,S     
00a952 fe 01 7d      INC $7d01,X     
00a955 c1 9e         CMP ($9e,X)     
00a957 42 cf         WDM $cf     
00a959 20 fd 52      JSR $52fd     	; 
00a95c 21 0f         AND ($0f,X)     
00a95e 20 6e 44      JSR $446e     	; 
00a961 0c f1 4c      TSB $4cf1     	; 
00a964 01 aa         ORA ($aa,X)     
00a966 35 d9         AND $d9,X     
00a968 34 ee         BIT $ee,X     
00a96a 20 08 b3      JSR $b308     	; 
00a96d 37 32         AND [$32],Y     
00a96f 43 04         EOR $4,S     
00a971 4e 21 53      LSR $5321     	; 
00a974 20 7c 01      JSR $017c     	; 
00a977 97 21         STA [$21],Y     
00a979 b7 07         LDA [$07],Y     
00a97b 9c 81 e7      STZ $e781     	; 
00a97e 42 5f         WDM $5f     
00a980 b3 97         LDA ($97,S),Y     
00a982 63 ac         ADC $ac,S     
00a984 02 c5         COP $c5     
00a986 41 49         EOR ($49,X)     
00a988 e0 58         CPX #$58     
00a98a 61 76         ADC ($76,X)     
00a98c 64 85         STZ $85     
00a98e 65 94         ADC $94     
00a990 66 a4         ROR $a4     
00a992 22 a6 03 c8   JSL $c803a6     
00a996 22 dc 02 68   JSL $6802dc     
00a99a f2 96         SBC ($96)     
00a99c 42 13         WDM $13     
00a99e 82 17 02      BRL $00abb8     
00a9a1 af 34 f6 21   LDA $21f634     
00a9a5 fc 06 26      JSR ($2606,X)     
00a9a8 80 2a         BRA $a9d4     
00a9aa 24 36         BIT $36     
00a9ac 01 8c         ORA ($8c,X)     
00a9ae 00 ff         BRK $ff     
00a9b0 35 4e         AND $4e,X     
00a9b2 a0 55         LDY #$55     
00a9b4 21 77         AND ($77,X)     
00a9b6 20 87 07      JSR $0787     	; 
00a9b9 89 22         BIT #$22     
00a9bb ae 21 4c      LDX $4c21     	; 
00a9be 82 9f 34      BRL $00de60     
00a9c1 ec 01 03      CPX $0301     	; 
00a9c4 e7 13         SBC [$13]     
00a9c6 67 8d         ADC [$8d]     
00a9c8 4a            LSR      
00a9c9 ad 41 0f      LDA $0f41     	; 
00a9cc a6 fd         LDX $fd     
00a9ce 10 51         BPL $aa21     
00a9d0 4c 00 c7      JMP $c700     	; 
00a9d3 12 c6         ORA ($c6)     
00a9d5 42 03         WDM $03     
00a9d7 92 02         STA ($02)     
00a9d9 42 29         WDM $29     
00a9db 12 63         ORA ($63)     
00a9dd 12 62         ORA ($62)     
00a9df 42 69         WDM $69     
00a9e1 14 a5         TRB $a5     
00a9e3 12 a4         ORA ($a4)     
00a9e5 42 e2         WDM $e2     
00a9e7 14 e1         TRB $e1     
00a9e9 44 f8 16      MVP $f8,$16     
00a9ec 37 c1         AND [$c1],Y     
00a9ee 8f 38 02 bb   STA $bb0238     
00a9f2 28            PLP      
00a9f3 7a            PLY      
00a9f4 68            PLA      
00a9f5 7a            PLY      
00a9f6 a8            TAY      
00a9f7 7a            PLY      
00a9f8 e0 6a         CPX #$6a     
00a9fa f0 6a         BEQ $aa66     
00a9fc 6d c5 fd      ADC $fdc5     	; 
00a9ff 92 31         STA ($31)     
00aa01 0f 20 6e 40   ORA $406e20     
00aa05 0d 02 37      ORA $3702     	; 
00aa08 73 ec         ADC ($ec,S),Y     
00aa0a 00 0c         BRK $0c     
00aa0c 80 3c         BRA $aa4a     
00aa0e 00 6c         BRK $6c     
00aa10 00 9c         BRK $9c     
00aa12 00 06         BRK $06     
00aa14 c0 c7         CPY #$c7     
00aa16 73 06         ADC ($06,S),Y     
00aa18 83 28         STA $28,S     
00aa1a 72 96         ADC ($96)     
00aa1c 40            RTI      
00aa1d e7 73         SBC [$73]     
00aa1f 26 c0         ROL $c0     
00aa21 87 7b         STA [$7b]     
00aa23 d2 41         CMP ($41)     
00aa25 39 f1 c8      AND $c8f1,Y     
00aa28 f2 97         SBC ($97)     
00aa2a e3 a3         SBC $a3,S     
00aa2c 23 e7         AND $e7,S     
00aa2e 02 e3         COP $e3     
00aa30 07 f3         ORA [$f3]     
00aa32 22 37 e3 9c   JSL $9ce337     
00aa36 00 bc         BRK $bc     
00aa38 00 ec         BRK $ec     
00aa3a 00 0c         BRK $0c     
00aa3c 80 3c         BRA $aa7a     
00aa3e 00 86         BRK $86     
00aa40 21 a6         AND ($a6,X)     
00aa42 06 b6         ASL $b6     
00aa44 24 5c         BIT $5c     
00aa46 80 7c         BRA $aac4     
00aa48 00 9c         BRK $9c     
00aa4a 00 29         BRK $29     
00aa4c e1 dc         SBC ($dc,X)     
00aa4e 05 f6         ORA $f6     
00aa50 41 dc         EOR ($dc,X)     
00aa52 80 e8         BRA $aa3c     
00aa54 72 0c         ADC ($0c)     
00aa56 81 27         STA ($27,X)     
00aa58 73 4c         ADC ($4c,S),Y     
00aa5a 01 66         ORA ($66,X)     
00aa5c 74 0d         STZ $0d,X     
00aa5e 11 3f         ORA ($3f),Y     
00aa60 35 b6         AND $b6,X     
00aa62 41 2c         EOR ($2c,X)     
00aa64 82 36 40      BRL $00ea9d     
00aa67 7c 02 86      JMP ($8602,X)     
00aa6a 40            RTI      
00aa6b f9 61 39      SBC $3961,Y     
00aa6e e1 ac         SBC ($ac,X)     
00aa70 04 c6         TSB $c6     
00aa72 41 0c         EOR ($0c,X)     
00aa74 83 16         STA $16,S     
00aa76 41 88         EOR ($88,X)     
00aa78 f2 39         SBC ($39)     
00aa7a f1 7c         SBC ($7c),Y     
00aa7c 00 89         BRK $89     
00aa7e 61 9c         ADC ($9c,X)     
00aa80 00 a7         BRK $a7     
00aa82 63 bc         ADC $bc,S     
00aa84 00 c5         BRK $c5     
00aa86 65 dc         ADC $dc     
00aa88 00 e3         BRK $e3     
00aa8a 67 f3         ADC [$f3]     
00aa8c 67 8d         ADC [$8d]     
00aa8e c1 cf         CMP ($cf,X)     
00aa90 26 fd         ROL $fd     
00aa92 55 b1         EOR $b1,X     
00aa94 0f 26 cf 33   ORA $33cf26     
00aa98 07 b2         ORA [$b2]     
00aa9a 15 11         ORA $11,X     
00aa9c 52 42         EOR ($42)     
00aa9e 99 0b ac      STA $ac0b,Y     
00aaa1 02 d3         COP $d3     
00aaa3 24 d6         BIT $d6     
00aaa5 42 d7         WDM $d7     
00aaa7 25 23         AND $23     
00aaa9 84 cf         STY $cf     
00aaab 33 07         AND ($07,S),Y     
00aaad e3 19         SBC $19,S     
00aaaf 61 78         ADC ($78,X)     
00aab1 7a            PLY      
00aab2 ef 33 2c 81   SBC $812c33     
00aab6 46 64         LSR $64     
00aab8 55 65         EOR $65,X     
00aaba 65 65         ADC $65     
00aabc ec 74 47      CPX $4774     	; 
00aabf 82 53 05      BRL $00b015     
00aac2 63 21         ADC $21,S     
00aac4 62 41 96      PER #$9641     
00aac7 22 9a 41 cc   JSL $cc419a     
00aacb 03 b9         ORA $b9,S     
00aacd 91 39         STA ($39),Y     
00aacf f1 63         SBC ($63),Y     
00aad1 26 67         ROL $67     
00aad3 27 d3         AND [$d3]     
00aad5 06 fc         ASL $fc     
00aad7 01 18         ORA ($18,X)     
00aad9 e2 d9         SEP #$d9     	; Index (8 bit)
00aadb 07 e9         ORA [$e9]     
00aadd 04 0c         TSB $0c     
00aadf 86 37         STX $37     
00aae1 22 93 24 87   JSL $872493     
00aae5 84 ac         STY $ac     
00aae7 02 c2         COP $c2     
00aae9 41 c3         EOR ($c3,X)     
00aaeb 23 d9         AND $d9,S     
00aaed 71 fc         ADC ($fc),Y     
00aaef 01 7f         ORA ($7f,X)     
00aaf1 b1 9c         LDA ($9c),Y     
00aaf3 00 a7         BRK $a7     
00aaf5 63 b6         ADC $b6,S     
00aaf7 64 cc         STZ $cc     
00aaf9 00 d4         BRK $d4     
00aafb 66 e3         ROR $e3     
00aafd 67 f3         ADC [$f3]     
00aaff 67 8d         ADC [$8d]     
00ab01 c1 cf         CMP ($cf,X)     
00ab03 26 fd         ROL $fd     
00ab05 50 b1         BVC $aab8     
00ab07 0f 26 fc 00   ORA $00fc26     
00ab0b 1f b3 5c 00   ORA $005cb3,X     
00ab0f 65 65         ADC $65     
00ab11 74 66         STZ $66,X     
00ab13 83 67         STA $67,S     
00ab15 93 67         STA ($67,S),Y     
00ab17 dc 73 4c      JML ($4c73)     
00ab1a 80 b3         BRA $aacf     
00ab1c 20 c9 0b      JSR $0bc9     	; 
00ab1f c3 08         CMP $8,S     
00ab21 d3 2f         CMP ($2f,S),Y     
00ab23 dc 00 2c      JML ($2c00)     
00ab26 80 4c         BRA $ab74     
00ab28 00 8c         BRK $8c     
00ab2a 00 d3         BRK $d3     
00ab2c 2e ed 4a      ROL $4aed     	; 
00ab2f fc 00 d7      JSR ($d700,X)     
00ab32 a1 ec         LDA ($ec,X)     
00ab34 01 4c         ORA ($4c,X)     
00ab36 80 59         BRA $ab91     
00ab38 11 d8         ORA ($d8),Y     
00ab3a 11 da         ORA ($da),Y     
00ab3c 10 37         BPL $ab75     
00ab3e a0 47         LDY #$47     
00ab40 04 99         TSB $99     
00ab42 11 e7         ORA ($e7),Y     
00ab44 21 3a         AND ($3a,X)     
00ab46 90 67         BCC $abaf     
00ab48 20 76 10      JSR $1076     	; 
00ab4b 77 60         ADC [$60],Y     
00ab4d 87 07         STA [$07]     
00ab4f d8            CLD      
00ab50 12 39         ORA ($39)     
00ab52 f1 ac         SBC ($ac),Y     
00ab54 00 e9         BRK $e9     
00ab56 71 0c         ADC ($0c),Y     
00ab58 80 2c         BRA $ab86     
00ab5a 00 4c         BRK $4c     
00ab5c 05 c7         ORA $c7     
00ab5e 7b            TDC      
00ab5f 39 f1 ec      AND $ecf1,Y     
00ab62 00 f9         BRK $f9     
00ab64 11 0c         ORA ($0c),Y     
00ab66 82 6f 34      BRL $00dfd8     
00ab69 f8            SED      
00ab6a 11 fa         ORA ($fa),Y     
00ab6c 10 7f         BPL $abed     
00ab6e b2 ac         LDA ($ac)     
00ab70 00 b6         BRK $b6     
00ab72 64 cc         STZ $cc     
00ab74 01 e3         ORA ($e3,X)     
00ab76 67 f3         ADC [$f3]     
00ab78 67 8d         ADC [$8d]     
00ab7a c1 cf         CMP ($cf,X)     
00ab7c 26 fd         ROL $fd     
00ab7e 52 b1         EOR ($b1)     
00ab80 0f 20 6e 45   ORA $456e20     
00ab84 39 91 b3      AND $b391,Y     
00ab87 04 c3         TSB $c3     
00ab89 21 c8         AND ($c8,X)     
00ab8b 11 ca         ORA ($ca),Y     
00ab8d 10 49         BPL $abd8     
00ab8f 91 7c         STA ($7c),Y     
00ab91 73 e8         ADC ($e8,S),Y     
00ab93 12 88         ORA ($88)     
00ab95 91 8a         STA ($8a),Y     
00ab97 10 e7         BPL $ab80     
00ab99 21 05         AND ($05,X)     
00ab9b 91 07         STA ($07),Y     
00ab9d 30 17         BMI $abb6     
00ab9f 07 27         ORA [$27]     
00aba1 20 49 11      JSR $1149     	; 
00aba4 9c 01 c8      STZ $c801     	; 
00aba7 72 23         ADC ($23)     
00aba9 a6 27         LDX $27     
00abab 26 d3         ROL $d3     
00abad 03 d8         ORA $d8,S     
00abaf 7a            PLY      
00abb0 89 91         BIT #$91     
00abb2 d8            CLD      
00abb3 72 39         ADC ($39)     
00abb5 f1 a9         SBC ($a9),Y     
00abb7 11 09         ORA ($09),Y     
00abb9 f1 63         SBC ($63),Y     
00abbb 24 67         BIT $67     
00abbd 24 d8         BIT $d8     
00abbf 62 28 91      PER #$9128     
00abc2 2a            ROL      
00abc3 10 56         BPL $ac1b     
00abc5 21 70         AND ($70,X)     
00abc7 04 79         TSB $79     
00abc9 0b            PHD      
00abca 8c 00 94      STY $9400     	; 
00abcd 21 9f         AND ($9f,X)     
00abcf 35 2f         AND $2f,X     
00abd1 b8            CLV      
00abd2 3d c1 7f      AND $7fc1,X     
00abd5 26 fd         ROL $fd     
00abd7 06 c1         ASL $c1     
00abd9 4c 00 f4      JMP $f400     	; 
00abdc 4f 0d 02 06   EOR $06020d     
00abe0 20 24 4f      JSR $4f24     	; 
00abe3 35 a0         AND $a0,X     
00abe5 36 20         ROL $20,X     
00abe7 53 46         EOR ($46,S),Y     
00abe9 d5 20         CMP $20,X     
00abeb d6 20         DEC $20,X     
00abed 34 a1         BIT $a1,X     
00abef 73 49         ADC ($49,S),Y     
00abf1 74 20         STZ $20,X     
00abf3 94 20         STY $20,X     
00abf5 b4 20         LDY $20,X     
00abf7 d4 20         PEI $20     
00abf9 f4 20 2e      PEA $2e20     	; 
00abfc 80 59         BRA $ac57     
00abfe 42 4d         WDM $4d     
00ac00 c7 fd         CMP [$fd]     
00ac02 96 31         STX $31,X     
00ac04 0f 26 0d 03   ORA $030d26     
00ac08 1a            INC      
00ac09 60            RTS      
00ac0a 77 42         ADC [$42],Y     
00ac0c c4 00         CPY $00     
00ac0e c8            INY      
00ac0f 62 b9 e1      PER #$e1b9     
00ac12 d3 06         CMP ($06,S),Y     
00ac14 d7 07         CMP [$07],Y     
00ac16 f9 61 0c      SBC $0c61,Y     
00ac19 81 4e         STA ($4e,X)     
00ac1b b1 8e         LDA ($8e),Y     
00ac1d b1 bc         LDA ($bc),Y     
00ac1f 01 e4         ORA ($e4,X)     
00ac21 50 e9         BVC $ac0c     
00ac23 61 0c         ADC ($0c,X)     
00ac25 81 0d         STA ($0d,X)     
00ac27 0a            ASL      
00ac28 84 43         STY $43     
00ac2a 98            TYA      
00ac2b 72 0d         ADC ($0d)     
00ac2d 0c 0f 38      TSB $380f     	; 
00ac30 1d c1 5f      ORA $5fc1,X     
00ac33 26 fd         ROL $fd     
00ac35 48            PHA      
00ac36 0f 0e 01 5e   ORA $5e010e     
00ac3a 02 a7         COP $a7     
00ac3c 00 bc         BRK $bc     
00ac3e 73 1a         ADC ($1a,S),Y     
00ac40 e0 39         CPX #$39     
00ac42 61 58         ADC ($58,X)     
00ac44 62 77 63      PER #$6377     
00ac47 97 63         STA [$63],Y     
00ac49 b8            CLV      
00ac4a 62 d6 07      PER #$07d6     
00ac4d f8            SED      
00ac4e 62 19 e1      PER #$e119     
00ac51 75 52         ADC $52,X     
00ac53 86 40         STX $40     
00ac55 87 50         STA [$50]     
00ac57 95 52         STA $52,X     
00ac59 93 43         STA ($43,S),Y     
00ac5b a5 21         LDA $21     
00ac5d c5 52         CMP $52     
00ac5f d6 40         DEC $40,X     
00ac61 d7 20         CMP [$20],Y     
00ac63 e5 06         SBC $06     
00ac65 e6 51         INC $51     
00ac67 3e 8d 5e      ROL $5e8d,X     
00ac6a 03 67         ORA $67,S     
00ac6c 52 77         EOR ($77)     
00ac6e 52 7e         EOR ($7e)     
00ac70 02 9e         COP $9e     
00ac72 03 a6         ORA $a6,S     
00ac74 43 a7         EOR $a7,S     
00ac76 23 de         AND $de,S     
00ac78 05 fe         ORA $fe     
00ac7a 02 1e         COP $1e     
00ac7c 83 33         STA $33,S     
00ac7e 54 46 40      MVN $46,$40     
00ac81 47 21         EOR [$21]     
00ac83 56 04         LSR $04,X     
00ac85 5e 02 83      LSR $8302,X     
00ac88 54 93 52      MVN $93,$52     
00ac8b 96 07         STX $07,X     
00ac8d 97 50         STA [$50],Y     
00ac8f be 03 c7      LDX $c703,Y     
00ac92 23 fe         AND $fe,S     
00ac94 02 0c         COP $0c     
00ac96 82 43 45      BRL $00f1dc     
00ac99 45 24         EOR $24     
00ac9b 46 24         LSR $24     
00ac9d 90 08         BCC $aca7     
00ac9f 95 51         STA $51,X     
00aca1 78            SEI      
00aca2 fa            PLX      
00aca3 d7 73         CMP [$73],Y     
00aca5 39 f1 8c      AND $8cf1,Y     
00aca8 01 a8         ORA ($a8,X)     
00acaa 52 b8         EOR ($b8)     
00acac 52 cc         EOR ($cc)     
00acae 01 5f         ORA ($5f,X)     
00acb0 b3 97         LDA ($97,S),Y     
00acb2 63 9e         ADC $9e,S     
00acb4 00 0e         BRK $0e     
00acb6 81 16         STA ($16,X)     
00acb8 24 66         BIT $66     
00acba 04 8e         TSB $8e     
00acbc 00 fe         BRK $fe     
00acbe 01 08         ORA ($08,X)     
00acc0 d2 0e         CMP ($0e)     
00acc2 06 6f         ASL $6f     
00acc4 47 9e         EOR [$9e]     
00acc6 0f 0e 82 2d   ORA $2d820e     
00acca 47 28         EOR [$28]     
00accc 7a            PLY      
00accd 68            PLA      
00acce 7a            PLY      
00accf a8            TAY      
00acd0 7a            PLY      
00acd1 ae 01 de      LDX $de01     	; 
00acd4 0f 6d c5 fd   ORA $fdc56d     
00acd8 48            PHA      
00acd9 0f 0e 01 5e   ORA $5e010e     
00acdd 02 bc         COP $bc     
00acdf 01 fc         ORA ($fc,X)     
00ace1 01 2c         ORA ($2c,X)     
00ace3 82 41 52      BRL $00ff27     
00ace6 4e 04 67      LSR $6704     	; 
00ace9 25 68         AND $68     
00aceb 24 69         BIT $69     
00aced 24 ba         BIT $ba     
00acef 42 c7         WDM $c7     
00acf1 04 de         TSB $de     
00acf3 0b            PHD      
00acf4 b2 87         LDA ($87)     
00acf6 fe 02 2c      INC $2c02,X     
00acf9 e1 2c         SBC ($2c,X)     
00acfb 71 67         ADC ($67),Y     
00acfd 01 77         ORA ($77,X)     
00acff 00 87         BRK $87     
00ad01 01 8e         ORA ($8e,X)     
00ad03 00 ee         BRK $ee     
00ad05 01 f6         ORA ($f6,X)     
00ad07 02 03         COP $03     
00ad09 85 05         STA $05     
00ad0b 02 13         COP $13     
00ad0d 21 16         AND ($16,X)     
00ad0f 02 27         COP $27     
00ad11 02 2e         COP $2e     
00ad13 02 88         COP $88     
00ad15 72 c7         ADC ($c7)     
00ad17 20 d7 07      JSR $07d7     	; 
00ad1a e4 76         CPX $76     
00ad1c 07 a0         ORA [$a0]     
00ad1e 17 06         ORA [$06],Y     
00ad20 48            PHA      
00ad21 7a            PLY      
00ad22 76 20         ROR $20,X     
00ad24 98            TYA      
00ad25 72 79         ADC ($79)     
00ad27 e1 88         SBC ($88,X)     
00ad29 62 9c 01      PER #$019c     
00ad2c b7 73         LDA [$73],Y     
00ad2e dc 01 f8      JML ($f801)     
00ad31 62 fe 01      PER #$01fe     
00ad34 08            PHP      
00ad35 e2 0e         SEP #$0e     
00ad37 00 6e         BRK $6e     
00ad39 02 73         COP $73     
00ad3b 20 77 23      JSR $2377     	; 
00ad3e 83 04         STA $4,S     
00ad40 93 20         STA ($20,S),Y     
00ad42 ae 00 fe      LDX $fe00     	; 
00ad45 0a            ASL      
00ad46 0e 82 39      ASL $3982     	; 
00ad49 71 a8         ADC ($a8),Y     
00ad4b 72 e7         ADC ($e7)     
00ad4d 73 0c         ADC ($0c,S),Y     
00ad4f 81 8f         STA ($8f,X)     
00ad51 32 ae         AND ($ae)     
00ad53 00 fe         BRK $fe     
00ad55 04 04         TSB $04     
00ad57 d1 17         CMP ($17),Y     
00ad59 04 26         TSB $26     
00ad5b 49 27         EOR #$27     
00ad5d 29 df         AND #$df     
00ad5f 33 fe         AND ($fe,S),Y     
00ad61 02 44         COP $44     
00ad63 f6 7c         INC $7c,X     
00ad65 01 8e         ORA ($8e,X)     
00ad67 06 bf         ASL $bf     
00ad69 47 ee         EOR [$ee]     
00ad6b 0f 4d c7 0e   ORA $0ec74d     
00ad6f 82 68 7a      BRL $0127da     
00ad72 ae 01 de      LDX $de01     	; 
00ad75 0f 6d c5 fd   ORA $fdc56d     
00ad79 48            PHA      
00ad7a 01 0e         ORA ($0e,X)     
00ad7c 01 00         ORA ($00,X)     
00ad7e 5a            PHY      
00ad7f 3e 06 45      ROL $4506,X     
00ad82 46 47         LSR $47     
00ad84 46 53         LSR $53     
00ad86 44 ae 01      MVP $ae,$01     
00ad89 df 4a 4d c7   CMP $c74d4a,X     
00ad8d 0e 81 00      ASL $0081     
00ad90 5a            PHY      
00ad91 2e 04 37      ROL $3704     	; 
00ad94 28            PLP      
00ad95 3a            DEC      
00ad96 48            PHA      
00ad97 46 47         LSR $47     
00ad99 c7 07         CMP [$07]     
00ad9b ce 0f df      DEC $df0f     	; 
00ad9e 4a            LSR      
00ad9f 4d c7 0e      EOR $0ec7     	; 
00ada2 81 00         STA ($00,X)     
00ada4 5a            PHY      
00ada5 33 53         AND ($53,S),Y     
00ada7 43 51         EOR $51,S     
00ada9 46 40         LSR $40     
00adab 47 50         EOR [$50]     
00adad 53 04         EOR ($04,S),Y     
00adaf 55 40         EOR $40,X     
00adb1 56 50         LSR $50,X     
00adb3 62 43 64      PER #$6443     
00adb6 40            RTI      
00adb7 65 50         ADC $50     
00adb9 71 41         ADC ($41),Y     
00adbb 73 51         ADC ($51,S),Y     
00adbd 83 51         STA $51,S     
00adbf 94 40         STY $40,X     
00adc1 95 50         STA $50,X     
00adc3 a3 50         LDA $50,S     
00adc5 a5 40         LDA $40     
00adc7 a6 50         LDX $50     
00adc9 b3 51         LDA ($51,S),Y     
00adcb b6 40         LDX $40,Y     
00adcd b7 50         LDA [$50],Y     
00adcf c3 53         CMP $53,S     
00add1 df 4a 4d c7   CMP $c74d4a,X     
00add5 0e 81 00      ASL $0081     
00add8 5a            PHY      
00add9 2e 02 36      ROL $3602     	; 
00addc 47 37         EOR [$37]     
00adde 52 3a         EOR ($3a)     
00ade0 49 47         EOR #$47     
00ade2 25 a7         AND $a7     
00ade4 52 d7         EOR ($d7)     
00ade6 04 df         TSB $df     
00ade8 4a            LSR      
00ade9 4d c7 0e      EOR $0ec7     	; 
00adec 81 00         STA ($00,X)     
00adee 5a            PHY      
00adef 3e 02 44      ROL $4402,X     
00adf2 51 53         EOR ($53),Y     
00adf4 44 54 44      MVP $54,$44     
00adf7 55 24         EOR $24,X     
00adf9 a1 54         LDA ($54,X)     
00adfb ae 01 b4      LDX $b401     	; 
00adfe 21 df         AND ($df,X)     
00ae00 4a            LSR      
00ae01 e5 07         SBC $07     
00ae03 4d c7 fd      EOR $fdc7     	; 
00ae06 41 01         EOR ($01,X)     
00ae08 b4 34         LDY $34,X     
00ae0a c8            INY      
00ae0b 52 f2         EOR ($f2)     
00ae0d 51 47         EOR ($47),Y     
00ae0f d3 6c         CMP ($6c,S),Y     
00ae11 03 65         ORA $65,S     
00ae13 49 9e         EOR #$9e     
00ae15 07 be         ORA [$be]     
00ae17 01 cc         ORA ($cc,X)     
00ae19 03 fe         ORA $fe,S     
00ae1b 07 0d         ORA [$0d]     
00ae1d c9 1e         CMP #$1e     
00ae1f 01 6c         ORA ($6c,X)     
00ae21 01 62         ORA ($62,X)     
00ae23 35 63         AND $63,X     
00ae25 53 8a         EOR ($8a,S),Y     
00ae27 41 ac         EOR ($ac,X)     
00ae29 01 b3         ORA ($b3,X)     
00ae2b 53 e9         EOR ($e9,S),Y     
00ae2d 51 26         EOR ($26),Y     
00ae2f c3 27         CMP $27,S     
00ae31 33 63         AND ($63,S),Y     
00ae33 43 64         EOR $64,S     
00ae35 33 ba         AND ($ba,S),Y     
00ae37 60            RTS      
00ae38 c9 61         CMP #$61     
00ae3a ce 0b e5      DEC $e50b     	; 
00ae3d 09 ee         ORA #$ee     
00ae3f 0f 7d ca 7d   ORA $7dca7d     
00ae43 47 fd         EOR [$fd]     
00ae45 41 01         EOR ($01,X)     
00ae47 b8            CLV      
00ae48 52 ea         EOR ($ea)     
00ae4a 41 27         EOR ($27,X)     
00ae4c b2 b3         LDA ($b3)     
00ae4e 42 16         WDM $16     
00ae50 d4 4a         PEI $4a     
00ae52 42 a5         WDM $a5     
00ae54 51 a7         EOR ($a7),Y     
00ae56 31 27         AND ($27),Y     
00ae58 d3 08         CMP ($08,S),Y     
00ae5a e2 16         SEP #$16     	; Index (8 bit)
00ae5c 64 2c         STZ $2c     
00ae5e 04 38         TSB $38     
00ae60 42 76         WDM $76     
00ae62 64 88         STZ $88     
00ae64 62 de 07      PER #$07de     
00ae67 fe 01 0d      INC $0d01,X     
00ae6a c9 23         CMP #$23     
00ae6c 32 31         AND ($31)     
00ae6e 51 98         EOR ($98),Y     
00ae70 52 0d         EOR ($0d)     
00ae72 c9 59         CMP #$59     
00ae74 42 63         WDM $63     
00ae76 53 67         EOR ($67,S),Y     
00ae78 31 14         AND ($14),Y     
00ae7a c2 36         REP #$36     	; Index (16 bit) Accum (16 bit)
00ae7c 31 87         AND ($87),Y     
00ae7e 53 17         EOR ($17,S),Y     
00ae80 e3 29         SBC $29,S     
00ae82 61 30         ADC ($30,X)     
00ae84 62 3c 08      PER #$083c     
00ae87 42 37         WDM $37     
00ae89 59 40 6a      EOR $6a40,Y     
00ae8c 42 99         WDM $99     
00ae8e 40            RTI      
00ae8f c9 61         CMP #$61     
00ae91 d7 63         CMP [$63],Y     
00ae93 39 d1 58      AND $58d1,Y     
00ae96 52 c3         EOR ($c3)     
00ae98 67 d3         ADC [$d3]     
00ae9a 31 dc         AND ($dc),Y     
00ae9c 06 f7         ASL $f7     
00ae9e 42 fa         WDM $fa     
00aea0 42 23         WDM $23     
00aea2 b1 43         LDA ($43),Y     
00aea4 67 c3         ADC [$c3]     
00aea6 34 c7         BIT $c7,X     
00aea8 34 d1         BIT $d1,X     
00aeaa 51 43         EOR ($43),Y     
00aeac b3 47         LDA ($47,S),Y     
00aeae 33 9a         AND ($9a,S),Y     
00aeb0 30 a9         BMI $ae5b     
00aeb2 61 b8         ADC ($b8,X)     
00aeb4 62 be 0b      PER #$0bbe     
00aeb7 d5 09         CMP $09,X     
00aeb9 de 0f 0d      DEC $0d0f,X     
00aebc ca            DEX      
00aebd 7d 47 fd      ADC $fd47,X     
00aec0 49 0f         EOR #$0f     
00aec2 1e 01 39      ASL $3901,X     
00aec5 73 5e         ADC ($5e,S),Y     
00aec7 07 ae         ORA [$ae]     
00aec9 0b            PHD      
00aeca 1e 82 6e      ASL $6e82,X     
00aecd 88            DEY      
00aece 9e 02 0d      STZ $0d02,X     
00aed1 04 2e         TSB $2e     
00aed3 0b            PHD      
00aed4 45 09         EOR $09     
00aed6 4e 0f ed      LSR $ed0f     	; 
00aed9 47 fd         EOR [$fd]     
00aedb ff ad 72 07   SBC $0772ad,X     
00aedf 20 04 8e      JSR $8e04     	; 
00aee2 e4 8f         CPX $8f     
00aee4 67 85         ADC [$85]     
00aee6 71 90         ADC ($90),Y     
00aee8 ea            NOP      
00aee9 ae

00aeea ae 53 07      LDX $0753
00aeed bd fc 06      LDA $06fc,X
00aeee 8d fc 06      STA $06fc
00aef3 20 4a b0      JSR $b04a          ; 
00aef6 ad 72 07      LDA $0772
00aef9 c9 03         CMP #$03     
00aefb b0 01         BCS $aefe     
00aefd 60            RTS

00aefe 20 24 b6      JSR $b624     	; 
00af01 a2 00         LDX #$00     
00af03 86 08         STX $08     
00af05 20 47 c0      JSR $c047     	; 
00af08 20 c3 84      JSR $84c3     	; 
00af0b e8            INX      
00af0c e0 06         CPX #$06     
00af0e d0 f3         BNE $af03     
00af10 20 80 f1      JSR $f180     	; 
00af13 20 2a f1      JSR $f12a     	; 
00af16 20 e9 ee      JSR $eee9     	; 
00af19 20 d4 be      JSR $bed4     	; 
00af1c a2 01         LDX #$01     
00af1e 86 08         STX $08     
00af20 20 70 be      JSR $be70     	; 
00af23 ca            DEX      
00af24 86 08         STX $08     
00af26 20 70 be      JSR $be70     	; 
00af29 20 96 bb      JSR $bb96     	; 
00af2c 20 bc b9      JSR $b9bc     	; 
00af2f 20 b8 b7      JSR $b7b8     	; 
00af32 20 55 b8      JSR $b855     	; 
00af35 20 4f b7      JSR $b74f     	; 
00af38 20 e1 89      JSR $89e1     	; 
00af3b a5 b5         LDA $b5     
00af3d c9 02         CMP #$02     
00af3f 10 11         BPL $af52     
00af41 ad 9f 07      LDA $079f     	; 
00af44 f0 1e         BEQ $af64     
00af46 c9 04         CMP #$04     
00af48 d0 08         BNE $af52     
00af4a ad 7f 07      LDA $077f     	; 
00af4d d0 03         BNE $af52     
00af4f 20 ed 90      JSR $90ed     	; 
00af52 ac 9f 07      LDY $079f     	; 
00af55 a5 09         LDA $09     
00af57 c0 08         CPY #$08     
00af59 b0 02         BCS $af5d     
00af5b 4a            LSR      
00af5c 4a            LSR      
00af5d 4a            LSR      
00af5e 20 88 b2      JSR $b288     	; 
00af61 4c 67 af      JMP $af67     	; 
00af64 20 9a b2      JSR $b29a     	; 
00af67 a5 0a         LDA $0a     
00af69 85 0d         STA $0d     
00af6b a9 00         LDA #$00     
00af6d 85 0c         STA $0c     
00af6f ad 73 07      LDA $0773     	; 
00af72 c9 06         CMP #$06     
00af74 f0 1c         BEQ $af92     
00af76 ad 1f 07      LDA $071f     	; 
00af79 d0 14         BNE $af8f     
00af7b ad 3d 07      LDA $073d     	; 
00af7e c9 20         CMP #$20     
00af80 30 10         BMI $af92     
00af82 ad 3d 07      LDA $073d     	; 
00af85 e9 20         SBC #$20     
00af87 8d 3d 07      STA $073d     	; 
00af8a a9 00         LDA #$00     
00af8c 8d 40 03      STA $0340     	; 
00af8f 20 b0 92      JSR $92b0     	; 
00af92 60            RTS

00af93 ad ff 06      LDA $06ff          ; scroll offset.
00af96 18            CLC      
00af97 6d a1 03      ADC $03a1          ; Add this.
00af9a 8d ff 06      STA $06ff          ; Update scroll offset.

00af9d ad 23 07      LDA $0723     	; 
00afa0 d0 59         BNE $affb     
00afa2 ad 55 07      LDA $0755     	; 
00afa5 c9 50         CMP #$50     
00afa7 90 52         BCC $affb

00afa9 ad 85 07      LDA $0785     	; 
00afac d0 4d         BNE $affb

00afae ac ff 06      LDY $06ff          ; load scroll offset.
00afb1 88            DEY                ; dec by 1. (so we also check on 0).
00afb2 30 47         BMI $affb          ; branch if negative (no scroll).
00afb4 c8            INY                ; back to correct value.
00afb5 c0 02         CPY #$02           ; check if it's 2.
00afb7 90 01         BCC $afba          ; branch if <2.
00afb9 88            DEY                ; adjust by 1.

00afba ad 55 07      LDA $0755     	;
00afbd c9 70         CMP #$70     
00afbf 90 03         BCC $afc4          ; if this value is >$70, reload offset.

00afc1 ac ff 06      LDY $06ff          ;

00afc4 98            TYA                
00afc5 8d 75 07      STA $0775          ; Store here.
00afc8 18            CLC

;could this be connected with sprites?
00afc9 6d 3d 07      ADC $073d          ; Add this value to offset.
00afcc 8d 3d 07      STA $073d          ; update.

;could this be connected with map?
00afcf 98            TYA                ; scroll offset.
00afd0 18            CLC
00afd1 6d 1c 07      ADC $071c          ; Add this value to offset.
00afd4 8d 1c 07      STA $071c          ; update.

;here's the scrolling part of the code.
00afd7 8d 3f 07      STA $073f          ; BGSCROL Horizontal hold.          ;

00afda ad 1a 07      LDA $071a          ; This records the carry (page num?)
00afdd 69 00         ADC #$00     
00afdf 8d 1a 07      STA $071a          ; update.

00afe2 29 01         AND #$01           ; 'bit'o error checking.
00afe4 85 00         STA $00            ; store the map condition here.

;This next part is clever.  It allows us to toggle between to name
;tables in VRAM using the bit0 we saving in $00 to establish which
;page is accessed. 0=$2000, 1=$2400.

00afe6 ad 78 07      LDA $0778          ; ppucnt0hold.          ; 
00afe9 29 fe         AND #$fe           ; mask out Name table.
00afeb 05 00         ORA $00            ; apply name page value.
00afed 8d 78 07      STA $0778          ; ppucnt0hold.          ;

00aff0 20 38 b0      JSR $b038          ; $071a,b,c,d stuff (+1,-1).
00aff3 a9 08         LDA #$08           ; default value.
00aff5 8d 95 07      STA $0795     	; 
00aff8 4c 00 b0      JMP $b000          ; rejoin flow.

;here when scroll offset is minus (no scroll).
00affb a9 00         LDA #$00
00affd 8d 75 07      STA $0775     	;


00b000 a2 00         LDX #$00     
00b002 20 f6 f1      JSR $f1f6          ;
00b005 85 00         STA $00     
00b007 a0 00         LDY #$00     
00b009 0a            ASL      
00b00a b0 07         BCS $b013     
00b00c c8            INY      
00b00d a5 00         LDA $00     
00b00f 29 20         AND #$20     
00b011 f0 1b         BEQ $b02e

00b013 b9 1c 07      LDA $071c,Y     
00b016 38            SEC      
00b017 f9 34 b0      SBC $b034,Y     
00b01a 85 86         STA $86     
00b01c b9 1a 07      LDA $071a,Y     
00b01f e9 00         SBC #$00     
00b021 85 6d         STA $6d     
00b023 a5 0c         LDA $0c     
00b025 d9 36 b0      CMP $b036,Y     
00b028 f0 04         BEQ $b02e     
00b02a a9 00         LDA #$00     
00b02c 85 57         STA $57     
00b02e a9 00         LDA #$00     
00b030 8d a1 03      STA $03a1     	; 
00b033 60            RTS

00b034 00 10         BRK $10     
00b036 01 02         ORA ($02,X)


00b038 ad 1c 07      LDA $071c     	; 
00b03b 18            CLC      
00b03c 69 ff         ADC #$ff             ; -1.
00b03e 8d 1d 07      STA $071d     	;

00b041 ad 1a 07      LDA $071a          ;  +1 (using carry).
00b044 69 00         ADC #$00     
00b046 8d 1b 07      STA $071b     	; 
00b049 60            RTS



00b04a a5 0e         LDA $0e     
00b04c 20 04 8e      JSR $8e04          ; Function jump table.

.DW       $9131,$B1C7,$B206,$B1E5,$B2A4,$B2CA,$91CD,$B069,$B0E9,$B233,$B245
.DW       $B269,$B27D



00b069 ad 52 07      LDA $0752
00b06c c9 02         CMP #$02     
00b06e f0 2b         BEQ $b09b     
00b070 a9 00         LDA #$00     
00b072 a4 ce         LDY $ce     
00b074 c0 30         CPY #$30     
00b076 90 6e         BCC $b0e6     
00b078 ad 10 07      LDA $0710     	; 
00b07b c9 06         CMP #$06     
00b07d f0 04         BEQ $b083     
00b07f c9 07         CMP #$07     
00b081 d0 50         BNE $b0d3     
00b083 ad c4 03      LDA $03c4     	; 
00b086 d0 05         BNE $b08d     
00b088 a9 01         LDA #$01     
00b08a 4c e6 b0      JMP $b0e6     	; 
00b08d 20 1f b2      JSR $b21f     	; 
00b090 ce de 06      DEC $06de     	; 
00b093 d0 50         BNE $b0e5     
00b095 ee 69 07      INC $0769     	; 
00b098 4c 15 b3      JMP $b315     	; 
00b09b ad 58 07      LDA $0758     	; 
00b09e d0 0c         BNE $b0ac     
00b0a0 a9 ff         LDA #$ff     
00b0a2 20 00 b2      JSR $b200     	; 
00b0a5 a5 ce         LDA $ce     
00b0a7 c9 91         CMP #$91     
00b0a9 90 28         BCC $b0d3     
00b0ab 60            RTS      
00b0ac ad 99 03      LDA $0399     	; 
00b0af c9 60         CMP #$60     
00b0b1 d0 32         BNE $b0e5     
00b0b3 a5 ce         LDA $ce     
00b0b5 c9 99         CMP #$99     
00b0b7 a0 00         LDY #$00     
00b0b9 a9 01         LDA #$01     
00b0bb 90 0a         BCC $b0c7     
00b0bd a9 03         LDA #$03     
00b0bf 85 1d         STA $1d     
00b0c1 c8            INY      
00b0c2 a9 08         LDA #$08     
00b0c4 8d b4 05      STA $05b4     	; 
00b0c7 8c 16 07      STY $0716     	; 
00b0ca 20 e6 b0      JSR $b0e6     	; 
00b0cd a5 86         LDA $86     
00b0cf c9 48         CMP #$48     
00b0d1 90 12         BCC $b0e5     
00b0d3 a9 08         LDA #$08     
00b0d5 85 0e         STA $0e     
00b0d7 a9 01         LDA #$01     
00b0d9 85 33         STA $33     
00b0db 4a            LSR      
00b0dc 8d 52 07      STA $0752     	; 
00b0df 8d 16 07      STA $0716     	; 
00b0e2 8d 58 07      STA $0758     	; 
00b0e5 60            RTS

00b0e6 8d fc 06      STA $06fc          ; store in pad0
00b0e9 a5 0e         LDA $0e     
00b0eb c9 0b         CMP #$0b     
00b0ed f0 3c         BEQ $b12b     
00b0ef ad 4e 07      LDA $074e     	; 
00b0f2 d0 10         BNE $b104     
00b0f4 a4 b5         LDY $b5     
00b0f6 88            DEY      
00b0f7 d0 06         BNE $b0ff     
00b0f9 a5 ce         LDA $ce     
00b0fb c9 d0         CMP #$d0     
00b0fd 90 05         BCC $b104     
00b0ff a9 00         LDA #$00     
00b101 8d fc 06      STA $06fc     	; 
00b104 ad fc 06      LDA $06fc     	; 
00b107 29 c0         AND #$c0     
00b109 85 0a         STA $0a     
00b10b ad fc 06      LDA $06fc     	; 
00b10e 29 03         AND #$03     
00b110 85 0c         STA $0c     
00b112 ad fc 06      LDA $06fc     	; 
00b115 29 0c         AND #$0c     
00b117 85 0b         STA $0b     
00b119 29 04         AND #$04     
00b11b f0 0e         BEQ $b12b     
00b11d a5 1d         LDA $1d     
00b11f d0 0a         BNE $b12b     
00b121 a4 0c         LDY $0c     
00b123 f0 06         BEQ $b12b     
00b125 a9 00         LDA #$00     
00b127 85 0c         STA $0c     
00b129 85 0b         STA $0b     
00b12b 20 29 b3      JSR $b329     	; 
00b12e a0 01         LDY #$01     
00b130 ad 54 07      LDA $0754     	; 
00b133 d0 09         BNE $b13e     
00b135 a0 00         LDY #$00     
00b137 ad 14 07      LDA $0714     	; 
00b13a f0 02         BEQ $b13e     
00b13c a0 02         LDY #$02     
00b13e 8c 99 04      STY $0499     	; 
00b141 a9 01         LDA #$01     
00b143 a4 57         LDY $57     
00b145 f0 05         BEQ $b14c     
00b147 10 01         BPL $b14a     
00b149 0a            ASL      
00b14a 85 45         STA $45     
00b14c 20 93 af      JSR $af93     	; 
00b14f 20 80 f1      JSR $f180     	; 
00b152 20 2a f1      JSR $f12a     	; 
00b155 a2 00         LDX #$00     
00b157 20 9c e2      JSR $e29c     	; 
00b15a 20 64 dc      JSR $dc64     	; 
00b15d a5 ce         LDA $ce     
00b15f c9 40         CMP #$40     
00b161 90 16         BCC $b179     
00b163 a5 0e         LDA $0e     
00b165 c9 05         CMP #$05     
00b167 f0 10         BEQ $b179     
00b169 c9 07         CMP #$07     
00b16b f0 0c         BEQ $b179     
00b16d c9 04         CMP #$04     
00b16f 90 08         BCC $b179     
00b171 ad c4 03      LDA $03c4     	; 
00b174 29 df         AND #$df     
00b176 8d c4 03      STA $03c4     	; 
00b179 a5 b5         LDA $b5     
00b17b c9 02         CMP #$02     
00b17d 30 3b         BMI $b1ba     
00b17f a2 01         LDX #$01     
00b181 8e 23 07      STX $0723     	; 
00b184 a0 04         LDY #$04     
00b186 84 07         STY $07     
00b188 a2 00         LDX #$00     
00b18a ac 59 07      LDY $0759     	; 
00b18d d0 05         BNE $b194     
00b18f ac 43 07      LDY $0743     	; 
00b192 d0 16         BNE $b1aa     
00b194 e8            INX      
00b195 a4 0e         LDY $0e     
00b197 c0 0b         CPY #$0b     
00b199 f0 0f         BEQ $b1aa     
00b19b ac 12 07      LDY $0712     	; 
00b19e d0 06         BNE $b1a6     
00b1a0 c8            INY      
00b1a1 84 fc         STY $fc     
00b1a3 8c 12 07      STY $0712     	; 
00b1a6 a0 06         LDY #$06     
00b1a8 84 07         STY $07     
00b1aa c5 07         CMP $07     
00b1ac 30 0c         BMI $b1ba     
00b1ae ca            DEX      
00b1af 30 0a         BMI $b1bb     
00b1b1 ac b1 07      LDY $07b1     	; 
00b1b4 d0 04         BNE $b1ba     
00b1b6 a9 06         LDA #$06     
00b1b8 85 0e         STA $0e     
00b1ba 60            RTS      
00b1bb a9 00         LDA #$00     
00b1bd 8d 58 07      STA $0758     	; 
00b1c0 20 dd b1      JSR $b1dd     	; 
00b1c3 ee 52 07      INC $0752     	; 
00b1c6 60            RTS      
00b1c7 a5 b5         LDA $b5     
00b1c9 d0 06         BNE $b1d1     
00b1cb a5 ce         LDA $ce     
00b1cd c9 e4         CMP #$e4     
00b1cf 90 0c         BCC $b1dd     
00b1d1 a9 08         LDA #$08     
00b1d3 8d 58 07      STA $0758     	; 
00b1d6 a0 03         LDY #$03     
00b1d8 84 1d         STY $1d     
00b1da 4c e6 b0      JMP $b0e6     	; 
00b1dd a9 02         LDA #$02     
00b1df 8d 52 07      STA $0752     	; 
00b1e2 4c 13 b2      JMP $b213     	; 
00b1e5 a9 01         LDA #$01     
00b1e7 20 00 b2      JSR $b200     	; 
00b1ea 20 93 af      JSR $af93     	; 
00b1ed a0 00         LDY #$00     
00b1ef ad d6 06      LDA $06d6     	; 
00b1f2 d0 17         BNE $b20b     
00b1f4 c8            INY      
00b1f5 ad 4e 07      LDA $074e     	; 
00b1f8 c9 03         CMP #$03     
00b1fa d0 0f         BNE $b20b     
00b1fc c8            INY      
00b1fd 4c 0b b2      JMP $b20b     	; 
00b200 18            CLC      
00b201 65 ce         ADC $ce     
00b203 85 ce         STA $ce     
00b205 60            RTS      
00b206 20 1f b2      JSR $b21f     	; 
00b209 a0 02         LDY #$02     
00b20b ce de 06      DEC $06de     	; 
00b20e d0 0e         BNE $b21e     
00b210 8c 52 07      STY $0752     	; 
00b213 ee 74 07      INC $0774     	; 
00b216 a9 00         LDA #$00     
00b218 8d 72 07      STA $0772     	; 
00b21b 8d 22 07      STA $0722     	; 
00b21e 60            RTS      
00b21f a9 08         LDA #$08     
00b221 85 57         STA $57     
00b223 a0 01         LDY #$01     
00b225 a5 86         LDA $86     
00b227 29 0f         AND #$0f     
00b229 d0 03         BNE $b22e     
00b22b 85 57         STA $57     
00b22d a8            TAY      
00b22e 98            TYA      
00b22f 20 e6 b0      JSR $b0e6     	; 
00b232 60            RTS      
00b233 ad 47 07      LDA $0747     	; 
00b236 c9 f8         CMP #$f8     
00b238 d0 03         BNE $b23d     
00b23a 4c 55 b2      JMP $b255     	; 
00b23d c9 c4         CMP #$c4     
00b23f d0 03         BNE $b244     
00b241 20 73 b2      JSR $b273     	; 
00b244 60            RTS      
00b245 ad 47 07      LDA $0747     	; 
00b248 c9 f0         CMP #$f0     
00b24a b0 07         BCS $b253     
00b24c c9 c8         CMP #$c8     
00b24e f0 23         BEQ $b273     
00b250 4c e9 b0      JMP $b0e9     	; 
00b253 d0 13         BNE $b268     
00b255 ac 0b 07      LDY $070b     	; 
00b258 d0 0e         BNE $b268     
00b25a 8c 0d 07      STY $070d     	; 
00b25d ee 0b 07      INC $070b     	; 
00b260 ad 54 07      LDA $0754     	; 
00b263 49 01         EOR #$01     
00b265 8d 54 07      STA $0754     	; 
00b268 60            RTS      
00b269 ad 47 07      LDA $0747     	; 
00b26c c9 f0         CMP #$f0     
00b26e b0 33         BCS $b2a3     
00b270 4c e9 b0      JMP $b0e9     	; 
00b273 a9 00         LDA #$00     
00b275 8d 47 07      STA $0747     	; 
00b278 a9 08         LDA #$08     
00b27a 85 0e         STA $0e     
00b27c 60            RTS      
00b27d ad 47 07      LDA $0747     	; 
00b280 c9 c0         CMP #$c0     
00b282 f0 13         BEQ $b297     
00b284 a5 09         LDA $09     
00b286 4a            LSR      
00b287 4a            LSR      
00b288 29 03         AND #$03     
00b28a 85 00         STA $00     
00b28c ad c4 03      LDA $03c4     	; 
00b28f 29 fc         AND #$fc     
00b291 05 00         ORA $00     
00b293 8d c4 03      STA $03c4     	; 
00b296 60            RTS      
00b297 20 73 b2      JSR $b273     	; 
00b29a ad c4 03      LDA $03c4     	; 
00b29d 29 fc         AND #$fc     
00b29f 8d c4 03      STA $03c4     	; 
00b2a2 60            RTS      
00b2a3 60            RTS      
00b2a4 a5 1b         LDA $1b     
00b2a6 c9 30         CMP #$30     
00b2a8 d0 15         BNE $b2bf     
00b2aa ad 13 07      LDA $0713     	; 
00b2ad 85 ff         STA $ff     
00b2af a9 00         LDA #$00     
00b2b1 8d 13 07      STA $0713     	; 
00b2b4 a4 ce         LDY $ce     
00b2b6 c0 9e         CPY #$9e     
00b2b8 b0 02         BCS $b2bc     
00b2ba a9 04         LDA #$04     
00b2bc 4c e6 b0      JMP $b0e6     	; 
00b2bf e6 0e         INC $0e     
00b2c1 60            RTS      
00b2c2 15 23         ORA $23,X     
00b2c4 16 1b         ASL $1b,X     
00b2c6 17 18         ORA [$18],Y     
00b2c8 23 63         AND $63,S     
00b2ca a9 01         LDA #$01     
00b2cc 20 e6 b0      JSR $b0e6     	; 
00b2cf a5 ce         LDA $ce     
00b2d1 c9 ae         CMP #$ae     
00b2d3 90 0e         BCC $b2e3     
00b2d5 ad 23 07      LDA $0723     	; 
00b2d8 f0 09         BEQ $b2e3     
00b2da a9 20         LDA #$20     
00b2dc 85 fc         STA $fc     
00b2de a9 00         LDA #$00     
00b2e0 8d 23 07      STA $0723     	; 
00b2e3 ad 90 04      LDA $0490     	; 
00b2e6 4a            LSR      
00b2e7 b0 0d         BCS $b2f6     
00b2e9 ad 46 07      LDA $0746     	; 
00b2ec d0 03         BNE $b2f1     
00b2ee ee 46 07      INC $0746     	; 
00b2f1 a9 20         LDA #$20     
00b2f3 8d c4 03      STA $03c4     	; 
00b2f6 ad 46 07      LDA $0746     	; 
00b2f9 c9 05         CMP #$05     
00b2fb d0 2b         BNE $b328     
00b2fd ee 5c 07      INC $075c     	; 
00b300 ad 5c 07      LDA $075c     	; 
00b303 c9 03         CMP #$03     
00b305 d0 0e         BNE $b315     
00b307 ac 5f 07      LDY $075f     	; 
00b30a ad 48 07      LDA $0748     	; 
00b30d d9 c2 b2      CMP $b2c2,Y     
00b310 90 03         BCC $b315     
00b312 ee 5d 07      INC $075d     	; 
00b315 ee 60 07      INC $0760          ; Increment stage number.
00b318 20 03 9c      JSR $9c03     	; 
00b31b ee 57 07      INC $0757     	; 
00b31e 20 13 b2      JSR $b213     	; 
00b321 8d 5b 07      STA $075b     	; 
00b324 a9 80         LDA #$80     
00b326 85 fc         STA $fc     
00b328 60            RTS      
00b329 a9 00         LDA #$00     
00b32b ac 54 07      LDY $0754     	; 
00b32e d0 08         BNE $b338     
00b330 a5 1d         LDA $1d     
00b332 d0 07         BNE $b33b     
00b334 a5 0b         LDA $0b     
00b336 29 04         AND #$04     
00b338 8d 14 07      STA $0714     	; 
00b33b 20 50 b4      JSR $b450     	; 
00b33e ad 0b 07      LDA $070b     	; 
00b341 d0 16         BNE $b359     
00b343 a5 1d         LDA $1d     
00b345 c9 03         CMP #$03     
00b347 f0 05         BEQ $b34e     
00b349 a0 18         LDY #$18     
00b34b 8c 89 07      STY $0789     	; 
00b34e 20 04 8e      JSR $8e04     	; 
00b351 5a            PHY      
00b352 b3 76         LDA ($76,S),Y     
00b354 b3 6d         LDA ($6d,S),Y     
00b356 b3 cf         LDA ($cf,S),Y     
00b358 b3 60         LDA ($60,S),Y     
00b35a 20 8f b5      JSR $b58f     	; 
00b35d a5 0c         LDA $0c     
00b35f f0 02         BEQ $b363     
00b361 85 33         STA $33     
00b363 20 cc b5      JSR $b5cc     	; 
00b366 20 09 bf      JSR $bf09     	; 
00b369 8d ff 06      STA $06ff     	; 
00b36c 60            RTS      
00b36d ad 0a 07      LDA $070a     	; 
00b370 8d 09 07      STA $0709     	; 
00b373 4c ac b3      JMP $b3ac     	; 
00b376 a4 9f         LDY $9f     
00b378 10 13         BPL $b38d     
00b37a a5 0a         LDA $0a     
00b37c 29 80         AND #$80     
00b37e 25 0d         AND $0d     
00b380 d0 11         BNE $b393     
00b382 ad 08 07      LDA $0708     	; 
00b385 38            SEC      
00b386 e5 ce         SBC $ce     
00b388 cd 06 07      CMP $0706     	; 
00b38b 90 06         BCC $b393     
00b38d ad 0a 07      LDA $070a     	; 
00b390 8d 09 07      STA $0709     	; 
00b393 ad 04 07      LDA $0704     	; 
00b396 f0 14         BEQ $b3ac     
00b398 20 8f b5      JSR $b58f     	; 
00b39b a5 ce         LDA $ce     
00b39d c9 14         CMP #$14     
00b39f b0 05         BCS $b3a6     
00b3a1 a9 18         LDA #$18     
00b3a3 8d 09 07      STA $0709     	; 
00b3a6 a5 0c         LDA $0c     
00b3a8 f0 02         BEQ $b3ac     
00b3aa 85 33         STA $33     
00b3ac a5 0c         LDA $0c     
00b3ae f0 03         BEQ $b3b3     
00b3b0 20 cc b5      JSR $b5cc     	; 
00b3b3 20 09 bf      JSR $bf09     	; 
00b3b6 8d ff 06      STA $06ff     	; 
00b3b9 a5 0e         LDA $0e     
00b3bb c9 0b         CMP #$0b     
00b3bd d0 05         BNE $b3c4     
00b3bf a9 28         LDA #$28     
00b3c1 8d 09 07      STA $0709     	; 
00b3c4 4c 4d bf      JMP $bf4d     	; 
00b3c7 0e 04 fc      ASL $fc04     	; 
00b3ca f2 00         SBC ($00)     
00b3cc 00 ff         BRK $ff     
00b3ce ff ad 16 04   SBC $0416ad,X     
00b3d2 18            CLC      
00b3d3 6d 33 04      ADC $0433     	; 
00b3d6 8d 16 04      STA $0416     	; 
00b3d9 a0 00         LDY #$00     
00b3db a5 9f         LDA $9f     
00b3dd 10 01         BPL $b3e0     
00b3df 88            DEY      
00b3e0 84 00         STY $00     
00b3e2 65 ce         ADC $ce     
00b3e4 85 ce         STA $ce     
00b3e6 a5 b5         LDA $b5     
00b3e8 65 00         ADC $00     
00b3ea 85 b5         STA $b5     
00b3ec a5 0c         LDA $0c     
00b3ee 2d 90 04      AND $0490     	; 
00b3f1 f0 2d         BEQ $b420     
00b3f3 ac 89 07      LDY $0789     	; 
00b3f6 d0 27         BNE $b41f     
00b3f8 a0 18         LDY #$18     
00b3fa 8c 89 07      STY $0789     	; 
00b3fd a2 00         LDX #$00     
00b3ff a4 33         LDY $33     
00b401 4a            LSR      
00b402 b0 02         BCS $b406     
00b404 e8            INX      
00b405 e8            INX      
00b406 88            DEY      
00b407 f0 01         BEQ $b40a     
00b409 e8            INX      
00b40a a5 86         LDA $86     
00b40c 18            CLC      
00b40d 7d c7 b3      ADC $b3c7,X     
00b410 85 86         STA $86     
00b412 a5 6d         LDA $6d     
00b414 7d cb b3      ADC $b3cb,X     
00b417 85 6d         STA $6d     
00b419 a5 0c         LDA $0c     
00b41b 49 03         EOR #$03     
00b41d 85 33         STA $33     
00b41f 60            RTS      
00b420 8d 89 07      STA $0789     	; 
00b423 60            RTS

00b424 20 20 1e      JSR $1e20     	; 
00b427 28            PLP      
00b428 28            PLP      
00b429 0d 04 70      ORA $7004     	; 
00b42c 70 60         BVS $b48e     
00b42e 90 90         BCC $b3c0     
00b430 0a            ASL      
00b431 09 fc         ORA #$fc     
00b433 fc fc fb      JSR ($fbfc,X)     
00b436 fb            XCE      
00b437 fe ff 00      INC $00ff,X     
00b43a 00 00         BRK $00     
00b43c 00 00         BRK $00     
00b43e 80 00         BRA $b440     
00b440 d8            CLD      
00b441 e8            INX      
00b442 f0 28         BEQ $b46c     
00b444 18            CLC      
00b445 10 0c         BPL $b453     
00b447 e4 98         CPX $98     
00b449 d0 00         BNE $b44b     
00b44b ff 01 00 20   SBC $200001,X     
00b44f ff a5 1d c9   SBC $c91da5,X     
00b453 03 d0         ORA $d0,S     
00b455 23 a0         AND $a0,S     
00b457 00 a5         BRK $a5     
00b459 0b            PHD      
00b45a 2d 90 04      AND $0490     	; 
00b45d f0 06         BEQ $b465     
00b45f c8            INY      
00b460 29 08         AND #$08     
00b462 d0 01         BNE $b465     
00b464 c8            INY      
00b465 be 4d b4      LDX $b44d,Y     
00b468 8e 33 04      STX $0433     	; 
00b46b a9 08         LDA #$08     
00b46d be 4a b4      LDX $b44a,Y     
00b470 86 9f         STX $9f     
00b472 30 01         BMI $b475     
00b474 4a            LSR      
00b475 8d 0c 07      STA $070c     	; 
00b478 60            RTS      
00b479 ad 0e 07      LDA $070e     	; 
00b47c d0 0a         BNE $b488     
00b47e a5 0a         LDA $0a     
00b480 29 80         AND #$80     
00b482 f0 04         BEQ $b488     
00b484 25 0d         AND $0d     
00b486 f0 03         BEQ $b48b     
00b488 4c 1c b5      JMP $b51c     	; 
00b48b a5 1d         LDA $1d     
00b48d f0 11         BEQ $b4a0     
00b48f ad 04 07      LDA $0704     	; 
00b492 f0 f4         BEQ $b488     
00b494 ad 82 07      LDA $0782     	; 
00b497 d0 07         BNE $b4a0     
00b499 a5 9f         LDA $9f     
00b49b 10 03         BPL $b4a0     
00b49d 4c 1c b5      JMP $b51c     	; 
00b4a0 a9 20         LDA #$20     
00b4a2 8d 82 07      STA $0782     	; 
00b4a5 a0 00         LDY #$00     
00b4a7 8c 16 04      STY $0416     	; 
00b4aa 8c 33 04      STY $0433     	; 
00b4ad a5 b5         LDA $b5     
00b4af 8d 07 07      STA $0707     	; 
00b4b2 a5 ce         LDA $ce     
00b4b4 8d 08 07      STA $0708     	; 
00b4b7 a9 01         LDA #$01     
00b4b9 85 1d         STA $1d     
00b4bb ad 00 07      LDA $0700     	; 
00b4be c9 09         CMP #$09     
00b4c0 90 10         BCC $b4d2     
00b4c2 c8            INY      
00b4c3 c9 10         CMP #$10     
00b4c5 90 0b         BCC $b4d2     
00b4c7 c8            INY      
00b4c8 c9 19         CMP #$19     
00b4ca 90 06         BCC $b4d2     
00b4cc c8            INY      
00b4cd c9 1c         CMP #$1c     
00b4cf 90 01         BCC $b4d2     
00b4d1 c8            INY      
00b4d2 a9 01         LDA #$01     
00b4d4 8d 06 07      STA $0706     	; 
00b4d7 ad 04 07      LDA $0704     	; 
00b4da f0 08         BEQ $b4e4     
00b4dc a0 05         LDY #$05     
00b4de ad 7d 04      LDA $047d     	; 
00b4e1 f0 01         BEQ $b4e4     
00b4e3 c8            INY      
00b4e4 b9 24 b4      LDA $b424,Y     
00b4e7 8d 09 07      STA $0709     	; 
00b4ea b9 2b b4      LDA $b42b,Y     
00b4ed 8d 0a 07      STA $070a     	; 
00b4f0 b9 39 b4      LDA $b439,Y     
00b4f3 8d 33 04      STA $0433     	; 
00b4f6 b9 32 b4      LDA $b432,Y     
00b4f9 85 9f         STA $9f     
00b4fb ad 04 07      LDA $0704     	; 
00b4fe f0 11         BEQ $b511     
00b500 a9 04         LDA #$04     
00b502 85 ff         STA $ff     
00b504 a5 ce         LDA $ce     
00b506 c9 14         CMP #$14     
00b508 b0 12         BCS $b51c     
00b50a a9 00         LDA #$00     
00b50c 85 9f         STA $9f     
00b50e 4c 1c b5      JMP $b51c     	; 
00b511 a9 01         LDA #$01     
00b513 ac 54 07      LDY $0754     	; 
00b516 f0 02         BEQ $b51a     
00b518 a9 80         LDA #$80     
00b51a 85 ff         STA $ff     
00b51c a0 00         LDY #$00     
00b51e 84 00         STY $00     
00b520 a5 1d         LDA $1d     
00b522 f0 09         BEQ $b52d     
00b524 ad 00 07      LDA $0700     	; 
00b527 c9 19         CMP #$19     
00b529 b0 33         BCS $b55e     
00b52b 90 18         BCC $b545     
00b52d c8            INY      
00b52e ad 4e 07      LDA $074e     	; 
00b531 f0 12         BEQ $b545     
00b533 88            DEY      
00b534 a5 0c         LDA $0c     
00b536 c5 45         CMP $45     
00b538 d0 0b         BNE $b545     
00b53a a5 0a         LDA $0a     
00b53c 29 40         AND #$40     
00b53e d0 19         BNE $b559     
00b540 ad 83 07      LDA $0783     	; 
00b543 d0 19         BNE $b55e     
00b545 c8            INY      
00b546 e6 00         INC $00     
00b548 ad 03 07      LDA $0703     	; 
00b54b d0 07         BNE $b554     
00b54d ad 00 07      LDA $0700     	; 
00b550 c9 21         CMP #$21     
00b552 90 0a         BCC $b55e     
00b554 e6 00         INC $00     
00b556 4c 5e b5      JMP $b55e     	; 
00b559 a9 01         LDA #$01     
00b55b 8d 83 07      STA $0783     	; 
00b55e b9 40 b4      LDA $b440,Y     
00b561 8d 50 04      STA $0450     	; 
00b564 a5 0e         LDA $0e     
00b566 c9 07         CMP #$07     
00b568 d0 02         BNE $b56c     
00b56a a0 03         LDY #$03     
00b56c b9 43 b4      LDA $b443,Y     
00b56f 8d 56 04      STA $0456     	; 
00b572 a4 00         LDY $00     
00b574 b9 47 b4      LDA $b447,Y     
00b577 8d 02 07      STA $0702     	; 
00b57a a9 00         LDA #$00     
00b57c 8d 01 07      STA $0701     	; 
00b57f a5 33         LDA $33     
00b581 c5 45         CMP $45     
00b583 f0 06         BEQ $b58b     
00b585 0e 02 07      ASL $0702     	; 
00b588 2e 01 07      ROL $0701     	; 
00b58b 60            RTS      
00b58c 02 04         COP $04     
00b58e 07 a0         ORA [$a0]     
00b590 00 ad         BRK $ad     
00b592 00 07         BRK $07     
00b594 c9 1c         CMP #$1c     
00b596 b0 15         BCS $b5ad     
00b598 c8            INY      
00b599 c9 0e         CMP #$0e     
00b59b b0 01         BCS $b59e     
00b59d c8            INY      
00b59e ad fc 06      LDA $06fc     	; 
00b5a1 29 7f         AND #$7f     
00b5a3 f0 20         BEQ $b5c5          ; branch if no buttons pressed.
00b5a5 29 03         AND #$03           ; leave Left and Right.
00b5a7 c5 45         CMP $45     
00b5a9 d0 08         BNE $b5b3     
00b5ab a9 00         LDA #$00     
00b5ad 8d 03 07      STA $0703     	; 
00b5b0 4c c5 b5      JMP $b5c5     	;

00b5b3 ad 00 07      LDA $0700     	; 
00b5b6 c9 0b         CMP #$0b     
00b5b8 b0 0b         BCS $b5c5     
00b5ba a5 33         LDA $33     
00b5bc 85 45         STA $45     
00b5be a9 00         LDA #$00     
00b5c0 85 57         STA $57     
00b5c2 8d 05 07      STA $0705     	; 
00b5c5 b9 8c b5      LDA $b58c,Y     
00b5c8 8d 0c 07      STA $070c     	; 
00b5cb 60            RTS      
00b5cc 2d 90 04      AND $0490     	; 
00b5cf c9 00         CMP #$00     
00b5d1 d0 08         BNE $b5db     
00b5d3 a5 57         LDA $57     
00b5d5 f0 49         BEQ $b620     
00b5d7 10 23         BPL $b5fc     
00b5d9 30 03         BMI $b5de     
00b5db 4a            LSR      
00b5dc 90 1e         BCC $b5fc     
00b5de ad 05 07      LDA $0705     	; 
00b5e1 18            CLC      
00b5e2 6d 02 07      ADC $0702     	; 
00b5e5 8d 05 07      STA $0705     	; 
00b5e8 a5 57         LDA $57     
00b5ea 6d 01 07      ADC $0701     	; 
00b5ed 85 57         STA $57     
00b5ef cd 56 04      CMP $0456     	; 
00b5f2 30 23         BMI $b617     
00b5f4 ad 56 04      LDA $0456     	; 
00b5f7 85 57         STA $57     
00b5f9 4c 20 b6      JMP $b620     	; 
00b5fc ad 05 07      LDA $0705     	; 
00b5ff 38            SEC      
00b600 ed 02 07      SBC $0702     	; 
00b603 8d 05 07      STA $0705     	; 
00b606 a5 57         LDA $57     
00b608 ed 01 07      SBC $0701     	; 
00b60b 85 57         STA $57     
00b60d cd 50 04      CMP $0450     	; 
00b610 10 05         BPL $b617     
00b612 ad 50 04      LDA $0450     	; 
00b615 85 57         STA $57     
00b617 c9 00         CMP #$00     
00b619 10 05         BPL $b620     
00b61b 49 ff         EOR #$ff     
00b61d 18            CLC      
00b61e 69 01         ADC #$01     
00b620 8d 00 07      STA $0700     	; 
00b623 60            RTS      
00b624 ad 56 07      LDA $0756     	; 
00b627 c9 02         CMP #$02     
00b629 90 43         BCC $b66e     
00b62b a5 0a         LDA $0a     
00b62d 29 40         AND #$40     
00b62f f0 33         BEQ $b664     
00b631 25 0d         AND $0d     
00b633 d0 2f         BNE $b664     
00b635 ad ce 06      LDA $06ce     	; 
00b638 29 01         AND #$01     
00b63a aa            TAX      
00b63b b5 24         LDA $24,X     
00b63d d0 25         BNE $b664     
00b63f a4 b5         LDY $b5     
00b641 88            DEY      
00b642 d0 20         BNE $b664     
00b644 ad 14 07      LDA $0714     	; 
00b647 d0 1b         BNE $b664     
00b649 a5 1d         LDA $1d     
00b64b c9 03         CMP #$03     
00b64d f0 15         BEQ $b664     
00b64f a9 20         LDA #$20     
00b651 85 ff         STA $ff     
00b653 a9 02         LDA #$02     
00b655 95 24         STA $24,X     
00b657 ac 0c 07      LDY $070c     	; 
00b65a 8c 11 07      STY $0711     	; 
00b65d 88            DEY      
00b65e 8c 81 07      STY $0781     	; 
00b661 ee ce 06      INC $06ce     	; 
00b664 a2 00         LDX #$00     
00b666 20 89 b6      JSR $b689     	; 
00b669 a2 01         LDX #$01     
00b66b 20 89 b6      JSR $b689     	; 
00b66e ad 4e 07      LDA $074e     	; 
00b671 d0 13         BNE $b686     
00b673 a2 02         LDX #$02     
00b675 86 08         STX $08     
00b677 20 f9 b6      JSR $b6f9     	; 
00b67a 20 31 f1      JSR $f131     	; 
00b67d 20 91 f1      JSR $f191     	; 
00b680 20 e1 ed      JSR $ede1     	; 
00b683 ca            DEX      
00b684 10 ef         BPL $b675     
00b686 60            RTS      
00b687 40            RTI      
00b688 c0 86         CPY #$86     
00b68a 08            PHP      
00b68b b5 24         LDA $24,X     
00b68d 0a            ASL      
00b68e b0 63         BCS $b6f3     
00b690 b4 24         LDY $24,X     
00b692 f0 5e         BEQ $b6f2     
00b694 88            DEY      
00b695 f0 27         BEQ $b6be     
00b697 a5 86         LDA $86     
00b699 69 04         ADC #$04     
00b69b 95 8d         STA $8d,X     
00b69d a5 6d         LDA $6d     
00b69f 69 00         ADC #$00     
00b6a1 95 74         STA $74,X     
00b6a3 a5 ce         LDA $ce     
00b6a5 95 d5         STA $d5,X     
00b6a7 a9 01         LDA #$01     
00b6a9 95 bc         STA $bc,X     
00b6ab a4 33         LDY $33     
00b6ad 88            DEY      
00b6ae b9 87 b6      LDA $b687,Y     
00b6b1 95 5e         STA $5e,X     
00b6b3 a9 04         LDA #$04     
00b6b5 95 a6         STA $a6,X     
00b6b7 a9 07         LDA #$07     
00b6b9 9d a0 04      STA $04a0,X     
00b6bc d6 24         DEC $24,X     
00b6be 8a            TXA      
00b6bf 18            CLC      
00b6c0 69 07         ADC #$07     
00b6c2 aa            TAX      
00b6c3 a9 50         LDA #$50     
00b6c5 85 00         STA $00     
00b6c7 a9 03         LDA #$03     
00b6c9 85 02         STA $02     
00b6cb a9 00         LDA #$00     
00b6cd 20 d7 bf      JSR $bfd7     	; 
00b6d0 20 0f bf      JSR $bf0f     	; 
00b6d3 a6 08         LDX $08     
00b6d5 20 3b f1      JSR $f13b     	; 
00b6d8 20 87 f1      JSR $f187     	; 
00b6db 20 2d e2      JSR $e22d     	; 
00b6de 20 c8 e1      JSR $e1c8     	; 
00b6e1 ad d2 03      LDA $03d2     	; 
00b6e4 29 cc         AND #$cc     
00b6e6 d0 06         BNE $b6ee     
00b6e8 20 d9 d6      JSR $d6d9     	; 
00b6eb 4c de ec      JMP $ecde     	; 
00b6ee a9 00         LDA #$00     
00b6f0 95 24         STA $24,X     
00b6f2 60            RTS      
00b6f3 20 3b f1      JSR $f13b     	; 
00b6f6 4c 09 ed      JMP $ed09     	; 
00b6f9 bd a8 07      LDA $07a8,X     
00b6fc 29 01         AND #$01     
00b6fe 85 07         STA $07     
00b700 b5 e4         LDA $e4,X     
00b702 c9 f8         CMP #$f8     
00b704 d0 2c         BNE $b732     
00b706 ad 92 07      LDA $0792     	; 
00b709 d0 3f         BNE $b74a     
00b70b a0 00         LDY #$00     
00b70d a5 33         LDA $33     
00b70f 4a            LSR      
00b710 90 02         BCC $b714     
00b712 a0 08         LDY #$08     
00b714 98            TYA      
00b715 65 86         ADC $86     
00b717 95 9c         STA $9c,X     
00b719 a5 6d         LDA $6d     
00b71b 69 00         ADC #$00     
00b71d 95 83         STA $83,X     
00b71f a5 ce         LDA $ce     
00b721 18            CLC      
00b722 69 08         ADC #$08     
00b724 95 e4         STA $e4,X     
00b726 a9 01         LDA #$01     
00b728 95 cb         STA $cb,X     
00b72a a4 07         LDY $07     
00b72c b9 4d b7      LDA $b74d,Y     
00b72f 8d 92 07      STA $0792     	; 
00b732 a4 07         LDY $07     
00b734 bd 2c 04      LDA $042c,X     
00b737 38            SEC      
00b738 f9 4b b7      SBC $b74b,Y     
00b73b 9d 2c 04      STA $042c,X     
00b73e b5 e4         LDA $e4,X     
00b740 e9 00         SBC #$00     
00b742 c9 20         CMP #$20     
00b744 b0 02         BCS $b748     
00b746 a9 f8         LDA #$f8     
00b748 95 e4         STA $e4,X     
00b74a 60            RTS      
00b74b ff 50 40 20   SBC $204050,X     
00b74f ad 70 07      LDA $0770     	; 
00b752 f0 4f         BEQ $b7a3     
00b754 a5 0e         LDA $0e     
00b756 c9 08         CMP #$08     
00b758 90 49         BCC $b7a3     
00b75a c9 0b         CMP #$0b     
00b75c f0 45         BEQ $b7a3     
00b75e a5 b5         LDA $b5     
00b760 c9 02         CMP #$02     
00b762 b0 3f         BCS $b7a3     
00b764 ad 87 07      LDA $0787     	; 
00b767 d0 3a         BNE $b7a3

;check if time is equal to zero?
00b769 ad f8 07      LDA $07f8     	; 
00b76c 0d f9 07      ORA $07f9     	; 
00b76f 0d fa 07      ORA $07fa     	; 
00b772 f0 26         BEQ $b79a

00b774 ac f8 07      LDY $07f8          ; GClk nXX.
00b777 88            DEY                ; Decrement.
00b778 d0 0c         BNE $b786          ; Branch if not 0.
00b77a ad f9 07      LDA $07f9          ; GClk XnX.
00b77d 0d fa 07      ORA $07fa          ; GClk XXn.
00b780 d0 04         BNE $b786          ; Branch if not 0.
00b782 a9 40         LDA #$40     
00b784 85 fc         STA $fc

00b786 a9 18         LDA #$18     
00b788 8d 87 07      STA $0787     	; 
00b78b a0 23         LDY #$23     
00b78d a9 ff         LDA #$ff     
00b78f 8d 39 01      STA $0139     	; 
00b792 20 5f 8f      JSR $8f5f     	; 
00b795 a9 a4         LDA #$a4     
00b797 4c 06 8f      JMP $8f06     	;

;here when GClk is 0.
00b79a 8d 56 07      STA $0756     	; 
00b79d 20 31 d9      JSR $d931     	; 
00b7a0 ee 59 07      INC $0759     	; 
00b7a3 60            RTS

00b7a4 ad 23 07      LDA $0723     	; 
00b7a7 f0 fa         BEQ $b7a3     
00b7a9 a5 ce         LDA $ce     
00b7ab 25 b5         AND $b5     
00b7ad d0 f4         BNE $b7a3     
00b7af 8d 23 07      STA $0723     	; 
00b7b2 ee d6 06      INC $06d6     	; 
00b7b5 4c 98 c9      JMP $c998     	; 
00b7b8 ad 4e 07      LDA $074e     	; 
00b7bb d0 37         BNE $b7f4     
00b7bd 8d 7d 04      STA $047d     	; 
00b7c0 ad 47 07      LDA $0747     	; 
00b7c3 d0 2f         BNE $b7f4     
00b7c5 a0 04         LDY #$04     
00b7c7 b9 71 04      LDA $0471,Y     
00b7ca 18            CLC      
00b7cb 79 77 04      ADC $0477,Y     
00b7ce 85 02         STA $02     
00b7d0 b9 6b 04      LDA $046b,Y     
00b7d3 f0 1c         BEQ $b7f1     
00b7d5 69 00         ADC #$00     
00b7d7 85 01         STA $01     
00b7d9 a5 86         LDA $86     
00b7db 38            SEC      
00b7dc f9 71 04      SBC $0471,Y     
00b7df a5 6d         LDA $6d     
00b7e1 f9 6b 04      SBC $046b,Y     
00b7e4 30 0b         BMI $b7f1     
00b7e6 a5 02         LDA $02     
00b7e8 38            SEC      
00b7e9 e5 86         SBC $86     
00b7eb a5 01         LDA $01     
00b7ed e5 6d         SBC $6d     
00b7ef 10 04         BPL $b7f5     
00b7f1 88            DEY      
00b7f2 10 d3         BPL $b7c7     
00b7f4 60            RTS      
00b7f5 b9 77 04      LDA $0477,Y     
00b7f8 4a            LSR      
00b7f9 85 00         STA $00     
00b7fb b9 71 04      LDA $0471,Y     
00b7fe 18            CLC      
00b7ff 65 00         ADC $00     
00b801 85 01         STA $01     
00b803 b9 6b 04      LDA $046b,Y     
00b806 69 00         ADC #$00     
00b808 85 00         STA $00     
00b80a a5 09         LDA $09     
00b80c 4a            LSR      
00b80d 90 2c         BCC $b83b     
00b80f a5 01         LDA $01     
00b811 38            SEC      
00b812 e5 86         SBC $86     
00b814 a5 00         LDA $00     
00b816 e5 6d         SBC $6d     
00b818 10 0e         BPL $b828     
00b81a a5 86         LDA $86     
00b81c 38            SEC      
00b81d e9 01         SBC #$01     
00b81f 85 86         STA $86     
00b821 a5 6d         LDA $6d     
00b823 e9 00         SBC #$00     
00b825 4c 39 b8      JMP $b839     	; 
00b828 ad 90 04      LDA $0490     	; 
00b82b 4a            LSR      
00b82c 90 0d         BCC $b83b     
00b82e a5 86         LDA $86     
00b830 18            CLC      
00b831 69 01         ADC #$01     
00b833 85 86         STA $86     
00b835 a5 6d         LDA $6d     
00b837 69 00         ADC #$00     
00b839 85 6d         STA $6d     
00b83b a9 10         LDA #$10     
00b83d 85 00         STA $00     
00b83f a9 01         LDA #$01     
00b841 8d 7d 04      STA $047d     	; 
00b844 85 02         STA $02     
00b846 4a            LSR      
00b847 aa            TAX      
00b848 4c d7 bf      JMP $bfd7     	; 
00b84b 05 02         ORA $02     
00b84d 08            PHP      
00b84e 04 01         TSB $01     
00b850 03 03         ORA $3,S     
00b852 04 04         TSB $04     
00b854 04 a2         TSB $a2     
00b856 05 86         ORA $86     
00b858 08            PHP      
00b859 b5 16         LDA $16,X     
00b85b c9 30         CMP #$30     
00b85d d0 56         BNE $b8b5     
00b85f a5 0e         LDA $0e     
00b861 c9 04         CMP #$04     
00b863 d0 31         BNE $b896     
00b865 a5 1d         LDA $1d     
00b867 c9 03         CMP #$03     
00b869 d0 2b         BNE $b896     
00b86b b5 cf         LDA $cf,X     
00b86d c9 aa         CMP #$aa     
00b86f b0 28         BCS $b899     
00b871 a5 ce         LDA $ce     
00b873 c9 a2         CMP #$a2     
00b875 b0 22         BCS $b899     
00b877 bd 17 04      LDA $0417,X     
00b87a 69 ff         ADC #$ff     
00b87c 9d 17 04      STA $0417,X     
00b87f b5 cf         LDA $cf,X     
00b881 69 01         ADC #$01     
00b883 95 cf         STA $cf,X     
00b885 ad 0e 01      LDA $010e     	; 
00b888 38            SEC      
00b889 e9 ff         SBC #$ff     
00b88b 8d 0e 01      STA $010e     	; 
00b88e ad 0d 01      LDA $010d     	; 
00b891 e9 01         SBC #$01     
00b893 8d 0d 01      STA $010d     	; 
00b896 4c ac b8      JMP $b8ac     	; 
00b899 ac 0f 01      LDY $010f     	; 
00b89c b9 4b b8      LDA $b84b,Y     
00b89f be 50 b8      LDX $b850,Y     
00b8a2 9d 34 01      STA $0134,X     
00b8a5 20 27 bc      JSR $bc27     	; 
00b8a8 a9 05         LDA #$05     
00b8aa 85 0e         STA $0e     
00b8ac 20 af f1      JSR $f1af     	; 
00b8af 20 52 f1      JSR $f152     	; 
00b8b2 20 4b e5      JSR $e54b     	; 
00b8b5 60            RTS

00b8b6 08            PHP      
00b8b7 10 08         BPL $b8c1     
00b8b9 00

00b8ba 20 af f1      JSR $f1af
00b8bd ad 47 07      LDA $0747
00b8c0 d0 40         BNE $b902
00b8c2 ad 0e 07      LDA $070e     	; 
00b8c5 f0 3b         BEQ $b902     
00b8c7 a8            TAY      
00b8c8 88            DEY      
00b8c9 98            TYA      
00b8ca 29 02         AND #$02     
00b8cc d0 07         BNE $b8d5     
00b8ce e6 ce         INC $ce     
00b8d0 e6 ce         INC $ce     
00b8d2 4c d9 b8      JMP $b8d9     	;

00b8d5 c6 ce         DEC $ce     
00b8d7 c6 ce         DEC $ce

00b8d9 b5 58         LDA $58,X     
00b8db 18            CLC      
00b8dc 79 b6 b8      ADC $b8b6,Y     
00b8df 95 cf         STA $cf,X     
00b8e1 c0 01         CPY #$01     
00b8e3 90 0f         BCC $b8f4     
00b8e5 a5 0a         LDA $0a     
00b8e7 29 80         AND #$80     
00b8e9 f0 09         BEQ $b8f4     
00b8eb 25 0d         AND $0d     
00b8ed d0 05         BNE $b8f4     
00b8ef a9 f4         LDA #$f4     
00b8f1 8d db 06      STA $06db     	; 
00b8f4 c0 03         CPY #$03     
00b8f6 d0 0a         BNE $b902     
00b8f8 ad db 06      LDA $06db     	; 
00b8fb 85 9f         STA $9f     
00b8fd a9 00         LDA #$00     
00b8ff 8d 0e 07      STA $070e     	; 
00b902 20 52 f1      JSR $f152     	; 
00b905 20 7d e8      JSR $e87d     	; 
00b908 20 7a d6      JSR $d67a     	; 
00b90b ad 0e 07      LDA $070e     	; 
00b90e f0 0d         BEQ $b91d     
00b910 ad 86 07      LDA $0786     	; 
00b913 d0 08         BNE $b91d     
00b915 a9 04         LDA #$04     
00b917 8d 86 07      STA $0786     	; 
00b91a ee 0e 07      INC $070e     	; 
00b91d 60            RTS      
00b91e a9 2f         LDA #$2f     
00b920 95 16         STA $16,X     
00b922 a9 01         LDA #$01     
00b924 95 0f         STA $0f,X     
00b926 b9 76 00      LDA $0076,Y     
00b929 95 6e         STA $6e,X     
00b92b b9 8f 00      LDA $008f,Y     
00b92e 95 87         STA $87,X     
00b930 b9 d7 00      LDA $00d7,Y     
00b933 95 cf         STA $cf,X     
00b935 ac 98 03      LDY $0398     	; 
00b938 d0 03         BNE $b93d     
00b93a 8d 9d 03      STA $039d     	; 
00b93d 8a            TXA      
00b93e 99 9a 03      STA $039a,Y     
00b941 ee 98 03      INC $0398     	; 
00b944 a9 04         LDA #$04     
00b946 85 fe         STA $fe     
00b948 60            RTS

00b949 30 60         BMI $b9ab

00b94b e0 05         CPX #$05     
00b94d d0 68         BNE $b9b7     
00b94f ac 98 03      LDY $0398     	; 
00b952 88            DEY      
00b953 ad 99 03      LDA $0399     	; 
00b956 d9 49 b9      CMP $b949,Y     
00b959 f0 0f         BEQ $b96a     
00b95b a5 09         LDA $09     
00b95d 4a            LSR      
00b95e 4a            LSR      
00b95f 90 09         BCC $b96a     
00b961 a5 d4         LDA $d4     
00b963 e9 01         SBC #$01     
00b965 85 d4         STA $d4     
00b967 ee 99 03      INC $0399     	; 
00b96a ad 99 03      LDA $0399     	; 
00b96d c9 08         CMP #$08     
00b96f 90 46         BCC $b9b7     
00b971 20 52 f1      JSR $f152     	; 
00b974 20 af f1      JSR $f1af     	; 
00b977 a0 00         LDY #$00     
00b979 20 35 e4      JSR $e435     	; 
00b97c c8            INY      
00b97d cc 98 03      CPY $0398     	; 
00b980 d0 f7         BNE $b979     
00b982 ad d1 03      LDA $03d1     	; 
00b985 29 0c         AND #$0c     
00b987 f0 10         BEQ $b999     
00b989 88            DEY      
00b98a be 9a 03      LDX $039a,Y     
00b98d 20 98 c9      JSR $c998     	; 
00b990 88            DEY      
00b991 10 f7         BPL $b98a     
00b993 8d 98 03      STA $0398     	; 
00b996 8d 99 03      STA $0399     	; 
00b999 ad 99 03      LDA $0399     	; 
00b99c c9 20         CMP #$20     
00b99e 90 17         BCC $b9b7     
00b9a0 a2 06         LDX #$06     
00b9a2 a9 01         LDA #$01     
00b9a4 a0 1b         LDY #$1b     
00b9a6 20 f0 e3      JSR $e3f0     	; 
00b9a9 a4 02         LDY $02     
00b9ab c0 d0         CPY #$d0     
00b9ad b0 08         BCS $b9b7     
00b9af b1 06         LDA ($06),Y     
00b9b1 d0 04         BNE $b9b7     
00b9b3 a9 26         LDA #$26     
00b9b5 91 06         STA ($06),Y     
00b9b7 a6 08         LDX $08     
00b9b9 60            RTS

00b9ba 0f 07 ad 4e   ORA $4ead07     
00b9be 07 f0         ORA [$f0]     
00b9c0 6f a2 02 86   ADC $8602a2     
00b9c4 08            PHP

00b9c5 b5 0f         LDA $0f,X     
00b9c7 d0 51         BNE $ba1a     
00b9c9 bd a8 07      LDA $07a8,X     
00b9cc ac cc 06      LDY $06cc     	; 
00b9cf 39 ba b9      AND $b9ba,Y     
00b9d2 c9 06         CMP #$06     
00b9d4 b0 44         BCS $ba1a     
00b9d6 a8            TAY      
00b9d7 b9 6b 04      LDA $046b,Y     
00b9da f0 3e         BEQ $ba1a     
00b9dc b9 7d 04      LDA $047d,Y     
00b9df f0 08         BEQ $b9e9     
00b9e1 e9 00         SBC #$00     
00b9e3 99 7d 04      STA $047d,Y     
00b9e6 4c 1a ba      JMP $ba1a     	; 
00b9e9 ad 47 07      LDA $0747     	; 
00b9ec d0 2c         BNE $ba1a     
00b9ee a9 0e         LDA #$0e     
00b9f0 99 7d 04      STA $047d,Y     
00b9f3 b9 6b 04      LDA $046b,Y     
00b9f6 95 6e         STA $6e,X     
00b9f8 b9 71 04      LDA $0471,Y     
00b9fb 95 87         STA $87,X     
00b9fd b9 77 04      LDA $0477,Y     
00ba00 38            SEC      
00ba01 e9 08         SBC #$08     
00ba03 95 cf         STA $cf,X     
00ba05 a9 01         LDA #$01     
00ba07 95 b6         STA $b6,X     
00ba09 95 0f         STA $0f,X     
00ba0b 4a            LSR      
00ba0c 95 1e         STA $1e,X     
00ba0e a9 09         LDA #$09     
00ba10 9d 9a 04      STA $049a,X     
00ba13 a9 33         LDA #$33     
00ba15 95 16         STA $16,X     
00ba17 4c 2d ba      JMP $ba2d     	; 
00ba1a b5 16         LDA $16,X     
00ba1c c9 33         CMP #$33     
00ba1e d0 0d         BNE $ba2d     
00ba20 20 7a d6      JSR $d67a     	; 
00ba23 b5 0f         LDA $0f,X     
00ba25 f0 06         BEQ $ba2d     
00ba27 20 af f1      JSR $f1af     	; 
00ba2a 20 33 ba      JSR $ba33     	; 
00ba2d ca            DEX      
00ba2e 10 93         BPL $b9c3     
00ba30 60            RTS

00ba31 18            CLC      
00ba32 e8            INX


00ba33 ad 47 07      LDA $0747     	; 
00ba36 d0 3e         BNE $ba76     
00ba38 b5 1e         LDA $1e,X     
00ba3a d0 2e         BNE $ba6a     
00ba3c ad d1 03      LDA $03d1     	; 
00ba3f 29 0c         AND #$0c     
00ba41 c9 0c         CMP #$0c     
00ba43 f0 40         BEQ $ba85     
00ba45 a0 01         LDY #$01     
00ba47 20 43 e1      JSR $e143     	; 
00ba4a 30 01         BMI $ba4d     
00ba4c c8            INY      
00ba4d 94 46         STY $46,X     
00ba4f 88            DEY      
00ba50 b9 31 ba      LDA $ba31,Y     
00ba53 95 58         STA $58,X     
00ba55 a5 00         LDA $00     
00ba57 69 28         ADC #$28     
00ba59 c9 50         CMP #$50     
00ba5b 90 28         BCC $ba85     
00ba5d a9 01         LDA #$01     
00ba5f 95 1e         STA $1e,X     
00ba61 a9 0a         LDA #$0a     
00ba63 9d 8a 07      STA $078a,X     
00ba66 a9 08         LDA #$08     
00ba68 85 fe         STA $fe     
00ba6a b5 1e         LDA $1e,X     
00ba6c 29 20         AND #$20     
00ba6e f0 03         BEQ $ba73     
00ba70 20 63 bf      JSR $bf63     	; 
00ba73 20 02 bf      JSR $bf02     	; 
00ba76 20 af f1      JSR $f1af     	; 
00ba79 20 52 f1      JSR $f152     	; 
00ba7c 20 43 e2      JSR $e243     	; 
00ba7f 20 53 d8      JSR $d853     	; 
00ba82 4c 7d e8      JMP $e87d     	; 
00ba85 20 98 c9      JSR $c998     	; 
00ba88 60            RTS      
00ba89 04 04         TSB $04     
00ba8b 04 05         TSB $05     
00ba8d 05 05         ORA $05     
00ba8f 06 06         ASL $06     
00ba91 06 10         ASL $10     
00ba93 f0 ad         BEQ $ba42     
00ba95 a8            TAY      
00ba96 07 29         ORA [$29]     
00ba98 07 d0         ORA [$d0]     
00ba9a 05 ad         ORA $ad     
00ba9c a8            TAY      
00ba9d 07 29         ORA [$29]     
00ba9f 08            PHP      
00baa0 a8            TAY      
00baa1 b9 2a 00      LDA $002a,Y     
00baa4 d0 19         BNE $babf     
00baa6 be 89 ba      LDX $ba89,Y     
00baa9 b5 0f         LDA $0f,X     
00baab d0 12         BNE $babf     
00baad a6 08         LDX $08     
00baaf 8a            TXA      
00bab0 99 ae 06      STA $06ae,Y     
00bab3 a9 90         LDA #$90     
00bab5 99 2a 00      STA $002a,Y     
00bab8 a9 07         LDA #$07     
00baba 99 a2 04      STA $04a2,Y     
00babd 38            SEC      
00babe 60            RTS

00babf a6 08         LDX $08     
00bac1 18            CLC      
00bac2 60            RTS      
00bac3 ad 47 07      LDA $0747     	; 
00bac6 d0 63         BNE $bb2b     
00bac8 b5 2a         LDA $2a,X     
00baca 29 7f         AND #$7f     
00bacc bc ae 06      LDY $06ae,X     
00bacf c9 02         CMP #$02     
00bad1 f0 20         BEQ $baf3     
00bad3 b0 34         BCS $bb09     
00bad5 8a            TXA      
00bad6 18            CLC      
00bad7 69 0d         ADC #$0d     
00bad9 aa            TAX      
00bada a9 10         LDA #$10     
00badc 85 00         STA $00     
00bade a9 0f         LDA #$0f     
00bae0 85 01         STA $01     
00bae2 a9 04         LDA #$04     
00bae4 85 02         STA $02     
00bae6 a9 00         LDA #$00     
00bae8 20 d7 bf      JSR $bfd7     	; 
00baeb 20 0f bf      JSR $bf0f     	; 
00baee a6 08         LDX $08     
00baf0 4c 28 bb      JMP $bb28     	; 
00baf3 a9 fe         LDA #$fe     
00baf5 95 ac         STA $ac,X     
00baf7 b9 1e 00      LDA $001e,Y     
00bafa 29 f7         AND #$f7     
00bafc 99 1e 00      STA $001e,Y     
00baff b6 46         LDX $46,Y     
00bb01 ca            DEX      
00bb02 bd 92 ba      LDA $ba92,X     
00bb05 a6 08         LDX $08     
00bb07 95 64         STA $64,X     
00bb09 d6 2a         DEC $2a,X     
00bb0b b9 87 00      LDA $0087,Y     
00bb0e 18            CLC      
00bb0f 69 02         ADC #$02     
00bb11 95 93         STA $93,X     
00bb13 b9 6e 00      LDA $006e,Y     
00bb16 69 00         ADC #$00     
00bb18 95 7a         STA $7a,X     
00bb1a b9 cf 00      LDA $00cf,Y     
00bb1d 38            SEC      
00bb1e e9 0a         SBC #$0a     
00bb20 95 db         STA $db,X     
00bb22 a9 01         LDA #$01     
00bb24 95 c2         STA $c2,X     
00bb26 d0 03         BNE $bb2b     
00bb28 20 c4 d7      JSR $d7c4     	; 
00bb2b 20 9b f1      JSR $f19b     	; 
00bb2e 20 48 f1      JSR $f148     	; 
00bb31 20 36 e2      JSR $e236     	; 
00bb34 20 dc e4      JSR $e4dc     	; 
00bb37 60            RTS      
00bb38 20 84 bb      JSR $bb84     	; 
00bb3b b5 76         LDA $76,X     
00bb3d 99 7a 00      STA $007a,Y     
00bb40 b5 8f         LDA $8f,X     
00bb42 09 05         ORA #$05     
00bb44 99 93 00      STA $0093,Y     
00bb47 b5 d7         LDA $d7,X     
00bb49 e9 10         SBC #$10     
00bb4b 99 db 00      STA $00db,Y     
00bb4e 4c 6c bb      JMP $bb6c     	; 
00bb51 20 84 bb      JSR $bb84     	; 
00bb54 bd ea 03      LDA $03ea,X     
00bb57 99 7a 00      STA $007a,Y     
00bb5a a5 06         LDA $06     
00bb5c 0a            ASL      
00bb5d 0a            ASL      
00bb5e 0a            ASL      
00bb5f 0a            ASL      
00bb60 09 05         ORA #$05     
00bb62 99 93 00      STA $0093,Y     
00bb65 a5 02         LDA $02     
00bb67 69 20         ADC #$20     
00bb69 99 db 00      STA $00db,Y     
00bb6c a9 fb         LDA #$fb     
00bb6e 99 ac 00      STA $00ac,Y     
00bb71 a9 01         LDA #$01     
00bb73 99 c2 00      STA $00c2,Y     
00bb76 99 2a 00      STA $002a,Y     
00bb79 85 fe         STA $fe     
00bb7b 86 08         STX $08     
00bb7d 20 fe bb      JSR $bbfe     	; 
00bb80 ee 48 07      INC $0748     	; 
00bb83 60            RTS      
00bb84 a0 08         LDY #$08     
00bb86 b9 2a 00      LDA $002a,Y     
00bb89 f0 07         BEQ $bb92     
00bb8b 88            DEY      
00bb8c c0 05         CPY #$05     
00bb8e d0 f6         BNE $bb86     
00bb90 a0 08         LDY #$08     
00bb92 8c b7 06      STY $06b7     	; 
00bb95 60            RTS      
00bb96 a2 08         LDX #$08     
00bb98 86 08         STX $08     
00bb9a b5 2a         LDA $2a,X     
00bb9c f0 56         BEQ $bbf4     
00bb9e 0a            ASL      
00bb9f 90 06         BCC $bba7     
00bba1 20 c3 ba      JSR $bac3     	; 
00bba4 4c f4 bb      JMP $bbf4     	; 
00bba7 b4 2a         LDY $2a,X     
00bba9 88            DEY      
00bbaa f0 1d         BEQ $bbc9     
00bbac f6 2a         INC $2a,X     
00bbae b5 93         LDA $93,X     
00bbb0 18            CLC      
00bbb1 6d 75 07      ADC $0775     	; 
00bbb4 95 93         STA $93,X     
00bbb6 b5 7a         LDA $7a,X     
00bbb8 69 00         ADC #$00     
00bbba 95 7a         STA $7a,X     
00bbbc b5 2a         LDA $2a,X     
00bbbe c9 30         CMP #$30     
00bbc0 d0 26         BNE $bbe8     
00bbc2 a9 00         LDA #$00     
00bbc4 95 2a         STA $2a,X     
00bbc6 4c f4 bb      JMP $bbf4     	; 
00bbc9 8a            TXA      
00bbca 18            CLC      
00bbcb 69 0d         ADC #$0d     
00bbcd aa            TAX      
00bbce a9 50         LDA #$50     
00bbd0 85 00         STA $00     
00bbd2 a9 06         LDA #$06     
00bbd4 85 02         STA $02     
00bbd6 4a            LSR      
00bbd7 85 01         STA $01     
00bbd9 a9 00         LDA #$00     
00bbdb 20 d7 bf      JSR $bfd7     	; 
00bbde a6 08         LDX $08     
00bbe0 b5 ac         LDA $ac,X     
00bbe2 c9 05         CMP #$05     
00bbe4 d0 02         BNE $bbe8     
00bbe6 f6 2a         INC $2a,X     
00bbe8 20 48 f1      JSR $f148     	; 
00bbeb 20 9b f1      JSR $f19b     	; 
00bbee 20 36 e2      JSR $e236     	; 
00bbf1 20 86 e6      JSR $e686     	; 
00bbf4 ca            DEX      
00bbf5 10 a1         BPL $bb98     
00bbf7 60            RTS

00bbf8 17 1d         ORA [$1d],Y     
00bbfa 0b            PHD      
00bbfb 11 02         ORA ($02),Y     
00bbfd 13 a9         ORA ($a9,S),Y     
00bbff 01 8d         ORA ($8d,X)     
00bc01 39 01 ae      AND $ae01,Y     
00bc04 53 07         EOR ($07,S),Y

00bc06 bc f8 bb      LDY $bbf8,X     
00bc09 20 5f 8f      JSR $8f5f     	; 
00bc0c ee 5e 07      INC $075e     	; 
00bc0f ad 5e 07      LDA $075e     	; 
00bc12 c9 64         CMP #$64     
00bc14 d0 0c         BNE $bc22     
00bc16 a9 00         LDA #$00     
00bc18 8d 5e 07      STA $075e     	; 
00bc1b ee 5a 07      INC $075a          ; Increment the number of lives.
00bc1e a9 40         LDA #$40     
00bc20 85 fe         STA $fe

00bc22 a9 02         LDA #$02     
00bc24 8d 38 01      STA $0138     	; 
00bc27 ae 53 07      LDX $0753     	; 
00bc2a bc fa bb      LDY $bbfa,X     
00bc2d 20 5f 8f      JSR $8f5f     	; 
00bc30 ac 53 07      LDY $0753     	; 
00bc33 b9 fc bb      LDA $bbfc,Y     
00bc36 20 06 8f      JSR $8f06     	; 
00bc39 ac 00 03      LDY $0300     	; 
00bc3c b9 fb 02      LDA $02fb,Y     
00bc3f d0 05         BNE $bc46     
00bc41 a9 24         LDA #$24     
00bc43 99 fb 02      STA $02fb,Y     
00bc46 a6 08         LDX $08     
00bc48 60            RTS      
00bc49 a9 2e         LDA #$2e     
00bc4b 85 1b         STA $1b     
00bc4d b5 76         LDA $76,X     
00bc4f 85 73         STA $73     
00bc51 b5 8f         LDA $8f,X     
00bc53 85 8c         STA $8c     
00bc55 a9 01         LDA #$01     
00bc57 85 bb         STA $bb     
00bc59 b5 d7         LDA $d7,X     
00bc5b 38            SEC      
00bc5c e9 08         SBC #$08     
00bc5e 85 d4         STA $d4     
00bc60 a9 01         LDA #$01     
00bc62 85 23         STA $23     
00bc64 85 14         STA $14     
00bc66 a9 03         LDA #$03     
00bc68 8d 9f 04      STA $049f     	; 
00bc6b a5 39         LDA $39     
00bc6d c9 02         CMP #$02     
00bc6f b0 0a         BCS $bc7b     
00bc71 ad 56 07      LDA $0756     	; 
00bc74 c9 02         CMP #$02     
00bc76 90 01         BCC $bc79     
00bc78 4a            LSR      
00bc79 85 39         STA $39     
00bc7b a9 20         LDA #$20     
00bc7d 8d ca 03      STA $03ca     	; 
00bc80 a9 02         LDA #$02     
00bc82 85 fe         STA $fe     
00bc84 60            RTS      
00bc85 a2 05         LDX #$05     
00bc87 86 08         STX $08     
00bc89 a5 23         LDA $23     
00bc8b f0 5d         BEQ $bcea     
00bc8d 0a            ASL      
00bc8e 90 23         BCC $bcb3     
00bc90 ad 47 07      LDA $0747     	; 
00bc93 d0 43         BNE $bcd8     
00bc95 a5 39         LDA $39     
00bc97 f0 11         BEQ $bcaa     
00bc99 c9 03         CMP #$03     
00bc9b f0 0d         BEQ $bcaa     
00bc9d c9 02         CMP #$02     
00bc9f d0 37         BNE $bcd8     
00bca1 20 f9 ca      JSR $caf9     	; 
00bca4 20 63 e1      JSR $e163     	; 
00bca7 4c d8 bc      JMP $bcd8     	; 
00bcaa 20 77 ca      JSR $ca77     	; 
00bcad 20 c1 df      JSR $dfc1     	; 
00bcb0 4c d8 bc      JMP $bcd8     	; 
00bcb3 a5 09         LDA $09     
00bcb5 29 03         AND #$03     
00bcb7 d0 19         BNE $bcd2     
00bcb9 c6 d4         DEC $d4     
00bcbb a5 23         LDA $23     
00bcbd e6 23         INC $23     
00bcbf c9 11         CMP #$11     
00bcc1 90 0f         BCC $bcd2     
00bcc3 a9 10         LDA #$10     
00bcc5 95 58         STA $58,X     
00bcc7 a9 80         LDA #$80     
00bcc9 85 23         STA $23     
00bccb 0a            ASL      
00bccc 8d ca 03      STA $03ca     	; 
00bccf 2a            ROL      
00bcd0 95 46         STA $46,X     
00bcd2 a5 23         LDA $23     
00bcd4 c9 06         CMP #$06     
00bcd6 90 12         BCC $bcea     
00bcd8 20 52 f1      JSR $f152     	; 
00bcdb 20 af f1      JSR $f1af     	; 
00bcde 20 43 e2      JSR $e243     	; 
00bce1 20 d2 e6      JSR $e6d2     	; 
00bce4 20 53 d8      JSR $d853     	; 
00bce7 20 7a d6      JSR $d67a     	; 
00bcea 60            RTS      
00bceb 04 12         TSB $12     
00bced 48            PHA      
00bcee a9 11         LDA #$11     
00bcf0 ae ee 03      LDX $03ee     	; 
00bcf3 ac 54 07      LDY $0754     	; 
00bcf6 d0 02         BNE $bcfa     
00bcf8 a9 12         LDA #$12     
00bcfa 95 26         STA $26,X     
00bcfc 20 6b 8a      JSR $8a6b     	; 
00bcff ae ee 03      LDX $03ee     	; 
00bd02 a5 02         LDA $02     
00bd04 9d e4 03      STA $03e4,X     
00bd07 a8            TAY      
00bd08 a5 06         LDA $06     
00bd0a 9d e6 03      STA $03e6,X     
00bd0d b1 06         LDA ($06),Y     
00bd0f 20 f6 bd      JSR $bdf6     	; 
00bd12 85 00         STA $00     
00bd14 ac 54 07      LDY $0754     	; 
00bd17 d0 01         BNE $bd1a     
00bd19 98            TYA      
00bd1a 90 25         BCC $bd41     
00bd1c a0 11         LDY #$11     
00bd1e 94 26         STY $26,X     
00bd20 a9 c4         LDA #$c4     
00bd22 a4 00         LDY $00     
00bd24 c0 58         CPY #$58     
00bd26 f0 04         BEQ $bd2c     
00bd28 c0 5d         CPY #$5d     
00bd2a d0 15         BNE $bd41     
00bd2c ad bc 06      LDA $06bc     	; 
00bd2f d0 08         BNE $bd39     
00bd31 a9 0b         LDA #$0b     
00bd33 8d 9d 07      STA $079d     	; 
00bd36 ee bc 06      INC $06bc     	; 
00bd39 ad 9d 07      LDA $079d     	; 
00bd3c d0 02         BNE $bd40     
00bd3e a0 c4         LDY #$c4     
00bd40 98            TYA      
00bd41 9d e8 03      STA $03e8,X     
00bd44 20 84 bd      JSR $bd84     	; 
00bd47 a4 02         LDY $02     
00bd49 a9 23         LDA #$23     
00bd4b 91 06         STA ($06),Y     
00bd4d a9 10         LDA #$10     
00bd4f 8d 84 07      STA $0784     	; 
00bd52 68            PLA      
00bd53 85 05         STA $05     
00bd55 a0 00         LDY #$00     
00bd57 ad 14 07      LDA $0714     	; 
00bd5a d0 05         BNE $bd61     
00bd5c ad 54 07      LDA $0754     	; 
00bd5f f0 01         BEQ $bd62     
00bd61 c8            INY      
00bd62 a5 ce         LDA $ce     
00bd64 18            CLC      
00bd65 79 eb bc      ADC $bceb,Y     
00bd68 29 f0         AND #$f0     
00bd6a 95 d7         STA $d7,X     
00bd6c b4 26         LDY $26,X     
00bd6e c0 11         CPY #$11     
00bd70 f0 06         BEQ $bd78     
00bd72 20 02 be      JSR $be02     	; 
00bd75 4c 7b bd      JMP $bd7b     	; 
00bd78 20 9b bd      JSR $bd9b     	; 
00bd7b ad ee 03      LDA $03ee     	; 
00bd7e 49 01         EOR #$01     
00bd80 8d ee 03      STA $03ee     	; 
00bd83 60            RTS      
00bd84 a5 86         LDA $86     
00bd86 18            CLC      
00bd87 69 08         ADC #$08     
00bd89 29 f0         AND #$f0     
00bd8b 95 8f         STA $8f,X     
00bd8d a5 6d         LDA $6d     
00bd8f 69 00         ADC #$00     
00bd91 95 76         STA $76,X     
00bd93 9d ea 03      STA $03ea,X     
00bd96 a5 b5         LDA $b5     
00bd98 95 be         STA $be,X     
00bd9a 60            RTS      
00bd9b 20 1f be      JSR $be1f     	; 
00bd9e a9 02         LDA #$02     
00bda0 85 ff         STA $ff     
00bda2 a9 00         LDA #$00     
00bda4 95 60         STA $60,X     
00bda6 9d 3c 04      STA $043c,X     
00bda9 85 9f         STA $9f     
00bdab a9 fe         LDA #$fe     
00bdad 95 a8         STA $a8,X     
00bdaf a5 05         LDA $05     
00bdb1 20 f6 bd      JSR $bdf6     	; 
00bdb4 90 31         BCC $bde7     
00bdb6 98            TYA      
00bdb7 c9 09         CMP #$09     
00bdb9 90 02         BCC $bdbd     
00bdbb e9 05         SBC #$05     
00bdbd 20 04 8e      JSR $8e04     	; 
00bdc0 d2 bd         CMP ($bd)     
00bdc2 38            SEC      
00bdc3 bb            TYX      
00bdc4 38            SEC      
00bdc5 bb            TYX      
00bdc6 d8            CLD      
00bdc7 bd d2 bd      LDA $bdd2,X     
00bdca df bd d5 bd   CMP $bdd5bd,X     
00bdce 38            SEC      
00bdcf bb            TYX      
00bdd0 d8            CLD      
00bdd1 bd a9 00      LDA $00a9,X     
00bdd4 2c a9 02      BIT $02a9     	; 
00bdd7 2c a9 03      BIT $03a9     	; 
00bdda 85 39         STA $39     
00bddc 4c 49 bc      JMP $bc49     	; 
00bddf a2 05         LDX #$05     
00bde1 ac ee 03      LDY $03ee     	; 
00bde4 20 1e b9      JSR $b91e     	; 
00bde7 60            RTS      
00bde8 c1 c0         CMP ($c0,X)     
00bdea 5f 60 55 56   EOR $565560,X     
00bdee 57 58         EOR [$58],Y     
00bdf0 59 5a 5b      EOR $5b5a,Y     
00bdf3 5c 5d 5e a0   JML $a05e5d     
00bdf7 0d d9 e8      ORA $e8d9     	; 
00bdfa bd f0 04      LDA $04f0,X     
00bdfd 88            DEY      
00bdfe 10 f8         BPL $bdf8     
00be00 18            CLC      
00be01 60            RTS      
00be02 20 1f be      JSR $be1f     	; 
00be05 a9 01         LDA #$01     
00be07 9d ec 03      STA $03ec,X     
00be0a 85 fd         STA $fd     
00be0c 20 41 be      JSR $be41     	; 
00be0f a9 fe         LDA #$fe     
00be11 85 9f         STA $9f     
00be13 a9 05         LDA #$05     
00be15 8d 39 01      STA $0139     	; 
00be18 20 27 bc      JSR $bc27     	; 
00be1b ae ee 03      LDX $03ee     	; 
00be1e 60            RTS      
00be1f ae ee 03      LDX $03ee     	; 
00be22 a4 02         LDY $02     
00be24 f0 1a         BEQ $be40     
00be26 98            TYA      
00be27 38            SEC      
00be28 e9 10         SBC #$10     
00be2a 85 02         STA $02     
00be2c a8            TAY      
00be2d b1 06         LDA ($06),Y     
00be2f c9 c2         CMP #$c2     
00be31 d0 0d         BNE $be40     
00be33 a9 00         LDA #$00     
00be35 91 06         STA ($06),Y     
00be37 20 4d 8a      JSR $8a4d     	; 
00be3a ae ee 03      LDX $03ee     	; 
00be3d 20 51 bb      JSR $bb51     	; 
00be40 60            RTS      
00be41 b5 8f         LDA $8f,X     
00be43 9d f1 03      STA $03f1,X     
00be46 a9 f0         LDA #$f0     
00be48 95 60         STA $60,X     
00be4a 95 62         STA $62,X     
00be4c a9 fa         LDA #$fa     
00be4e 95 a8         STA $a8,X     
00be50 a9 fc         LDA #$fc     
00be52 95 aa         STA $aa,X     
00be54 a9 00         LDA #$00     
00be56 9d 3c 04      STA $043c,X     
00be59 9d 3e 04      STA $043e,X     
00be5c b5 76         LDA $76,X     
00be5e 95 78         STA $78,X     
00be60 b5 8f         LDA $8f,X     
00be62 95 91         STA $91,X     
00be64 b5 d7         LDA $d7,X     
00be66 18            CLC      
00be67 69 08         ADC #$08     
00be69 95 d9         STA $d9,X     
00be6b a9 fa         LDA #$fa     
00be6d 95 a8         STA $a8,X     
00be6f 60            RTS      
00be70 b5 26         LDA $26,X     
00be72 f0 5d         BEQ $bed1     
00be74 29 0f         AND #$0f     
00be76 48            PHA      
00be77 a8            TAY      
00be78 8a            TXA      
00be79 18            CLC      
00be7a 69 09         ADC #$09     
00be7c aa            TAX      
00be7d 88            DEY      
00be7e f0 33         BEQ $beb3     
00be80 20 a4 bf      JSR $bfa4     	; 
00be83 20 0f bf      JSR $bf0f     	; 
00be86 8a            TXA      
00be87 18            CLC      
00be88 69 02         ADC #$02     
00be8a aa            TAX      
00be8b 20 a4 bf      JSR $bfa4     	; 
00be8e 20 0f bf      JSR $bf0f     	; 
00be91 a6 08         LDX $08     
00be93 20 59 f1      JSR $f159     	; 
00be96 20 b6 f1      JSR $f1b6     	; 
00be99 20 53 ec      JSR $ec53     	; 
00be9c 68            PLA      
00be9d b4 be         LDY $be,X     
00be9f f0 30         BEQ $bed1     
00bea1 48            PHA      
00bea2 a9 f0         LDA #$f0     
00bea4 d5 d9         CMP $d9,X     
00bea6 b0 02         BCS $beaa     
00bea8 95 d9         STA $d9,X     
00beaa b5 d7         LDA $d7,X     
00beac c9 f0         CMP #$f0     
00beae 68            PLA      
00beaf 90 20         BCC $bed1     
00beb1 b0 1c         BCS $becf     
00beb3 20 a4 bf      JSR $bfa4     	; 
00beb6 a6 08         LDX $08     
00beb8 20 59 f1      JSR $f159     	; 
00bebb 20 b6 f1      JSR $f1b6     	; 
00bebe 20 d1 eb      JSR $ebd1     	; 
00bec1 b5 d7         LDA $d7,X     
00bec3 29 0f         AND #$0f     
00bec5 c9 05         CMP #$05     
00bec7 68            PLA      
00bec8 b0 07         BCS $bed1     
00beca a9 01         LDA #$01     
00becc 9d ec 03      STA $03ec,X     
00becf a9 00         LDA #$00     
00bed1 95 26         STA $26,X     
00bed3 60            RTS      
00bed4 a2 01         LDX #$01     
00bed6 86 08         STX $08     
00bed8 ad 01 03      LDA $0301     	; 
00bedb d0 21         BNE $befe     
00bedd bd ec 03      LDA $03ec,X     
00bee0 f0 1c         BEQ $befe     
00bee2 bd e6 03      LDA $03e6,X     
00bee5 85 06         STA $06     
00bee7 a9 05         LDA #$05     
00bee9 85 07         STA $07     
00beeb bd e4 03      LDA $03e4,X     
00beee 85 02         STA $02     
00bef0 a8            TAY      
00bef1 bd e8 03      LDA $03e8,X     
00bef4 91 06         STA ($06),Y     
00bef6 20 61 8a      JSR $8a61     	; 
00bef9 a9 00         LDA #$00     
00befb 9d ec 03      STA $03ec,X     
00befe ca            DEX      
00beff 10 d5         BPL $bed6     
00bf01 60            RTS      
00bf02 e8            INX      
00bf03 20 0f bf      JSR $bf0f     	; 
00bf06 a6 08         LDX $08     
00bf08 60            RTS      
00bf09 ad 0e 07      LDA $070e     	; 
00bf0c d0 3e         BNE $bf4c     
00bf0e aa            TAX      
00bf0f b5 57         LDA $57,X     
00bf11 0a            ASL      
00bf12 0a            ASL      
00bf13 0a            ASL      
00bf14 0a            ASL      
00bf15 85 01         STA $01     
00bf17 b5 57         LDA $57,X     
00bf19 4a            LSR      
00bf1a 4a            LSR      
00bf1b 4a            LSR      
00bf1c 4a            LSR      
00bf1d c9 08         CMP #$08     
00bf1f 90 02         BCC $bf23     
00bf21 09 f0         ORA #$f0     
00bf23 85 00         STA $00     
00bf25 a0 00         LDY #$00     
00bf27 c9 00         CMP #$00     
00bf29 10 01         BPL $bf2c     
00bf2b 88            DEY      
00bf2c 84 02         STY $02     
00bf2e bd 00 04      LDA $0400,X     
00bf31 18            CLC      
00bf32 65 01         ADC $01     
00bf34 9d 00 04      STA $0400,X     
00bf37 a9 00         LDA #$00     
00bf39 2a            ROL      
00bf3a 48            PHA      
00bf3b 6a            ROR      
00bf3c b5 86         LDA $86,X     
00bf3e 65 00         ADC $00     
00bf40 95 86         STA $86,X     
00bf42 b5 6d         LDA $6d,X     
00bf44 65 02         ADC $02     
00bf46 95 6d         STA $6d,X     
00bf48 68            PLA      
00bf49 18            CLC      
00bf4a 65 00         ADC $00     
00bf4c 60            RTS

00bf4d a2 00         LDX #$00     
00bf4f ad 47 07      LDA $0747     	; 
00bf52 d0 05         BNE $bf59     
00bf54 ad 0e 07      LDA $070e     	; 
00bf57 d0 f3         BNE $bf4c     
00bf59 ad 09 07      LDA $0709     	; 
00bf5c 85 00         STA $00     
00bf5e a9 04         LDA #$04     
00bf60 4c ad bf      JMP $bfad     	; 
00bf63 a0 3d         LDY #$3d     
00bf65 b5 1e         LDA $1e,X     
00bf67 c9 05         CMP #$05     
00bf69 d0 02         BNE $bf6d     
00bf6b a0 20         LDY #$20     
00bf6d 4c 94 bf      JMP $bf94     	; 
00bf70 a0 00         LDY #$00     
00bf72 4c 77 bf      JMP $bf77     	; 
00bf75 a0 01         LDY #$01     
00bf77 e8            INX      
00bf78 a9 03         LDA #$03     
00bf7a 85 00         STA $00     
00bf7c a9 06         LDA #$06     
00bf7e 85 01         STA $01     
00bf80 a9 02         LDA #$02     
00bf82 85 02         STA $02     
00bf84 98            TYA      
00bf85 4c d1 bf      JMP $bfd1     	; 
00bf88 a0 7f         LDY #$7f     
00bf8a d0 02         BNE $bf8e     
00bf8c a0 0f         LDY #$0f     
00bf8e a9 02         LDA #$02     
00bf90 d0 04         BNE $bf96     
00bf92 a0 1c         LDY #$1c     
00bf94 a9 03         LDA #$03     
00bf96 84 00         STY $00     
00bf98 e8            INX      
00bf99 20 ad bf      JSR $bfad     	; 
00bf9c a6 08         LDX $08     
00bf9e 60            RTS      
00bf9f 06 08         ASL $08     
00bfa1 a0 00         LDY #$00     
00bfa3 2c a0 01      BIT $01a0     	; 
00bfa6 a9 50         LDA #$50     
00bfa8 85 00         STA $00     
00bfaa b9 9f bf      LDA $bf9f,Y     
00bfad 85 02         STA $02     
00bfaf a9 00         LDA #$00     
00bfb1 4c d7 bf      JMP $bfd7     	; 
00bfb4 a9 00         LDA #$00     
00bfb6 2c a9 01      BIT $01a9     	; 
00bfb9 48            PHA      
00bfba b4 16         LDY $16,X     
00bfbc e8            INX      
00bfbd a9 05         LDA #$05     
00bfbf c0 29         CPY #$29     
00bfc1 d0 02         BNE $bfc5     
00bfc3 a9 09         LDA #$09     
00bfc5 85 00         STA $00     
00bfc7 a9 0a         LDA #$0a     
00bfc9 85 01         STA $01     
00bfcb a9 03         LDA #$03     
00bfcd 85 02         STA $02     
00bfcf 68            PLA      
00bfd0 a8            TAY      
00bfd1 20 d7 bf      JSR $bfd7     	; 
00bfd4 a6 08         LDX $08     
00bfd6 60            RTS      
00bfd7 48            PHA      
00bfd8 bd 16 04      LDA $0416,X     
00bfdb 18            CLC      
00bfdc 7d 33 04      ADC $0433,X     
00bfdf 9d 16 04      STA $0416,X     
00bfe2 a0 00         LDY #$00     
00bfe4 b5 9f         LDA $9f,X     
00bfe6 10 01         BPL $bfe9     
00bfe8 88            DEY      
00bfe9 84 07         STY $07     
00bfeb 75 ce         ADC $ce,X     
00bfed 95 ce         STA $ce,X     
00bfef b5 b5         LDA $b5,X     
00bff1 65 07         ADC $07     
00bff3 95 b5         STA $b5,X     
00bff5 bd 33 04      LDA $0433,X     
00bff8 18            CLC      
00bff9 65 00         ADC $00     
00bffb 9d 33 04      STA $0433,X     
00bffe b5 9f         LDA $9f,X     
00c000 69 00         ADC #$00     
00c002 95 9f         STA $9f,X     
00c004 c5 02         CMP $02     
00c006 30 10         BMI $c018     
00c008 bd 33 04      LDA $0433,X     
00c00b c9 80         CMP #$80     
00c00d 90 09         BCC $c018     
00c00f a5 02         LDA $02     
00c011 95 9f         STA $9f,X     
00c013 a9 00         LDA #$00     
00c015 9d 33 04      STA $0433,X     
00c018 68            PLA      
00c019 f0 2b         BEQ $c046     
00c01b a5 02         LDA $02     
00c01d 49 ff         EOR #$ff     
00c01f a8            TAY      
00c020 c8            INY      
00c021 84 07         STY $07     
00c023 bd 33 04      LDA $0433,X     
00c026 38            SEC      
00c027 e5 01         SBC $01     
00c029 9d 33 04      STA $0433,X     
00c02c b5 9f         LDA $9f,X     
00c02e e9 00         SBC #$00     
00c030 95 9f         STA $9f,X     
00c032 c5 07         CMP $07     
00c034 10 10         BPL $c046     
00c036 bd 33 04      LDA $0433,X     
00c039 c9 80         CMP #$80     
00c03b b0 09         BCS $c046     
00c03d a5 07         LDA $07     
00c03f 95 9f         STA $9f,X     
00c041 a9 ff         LDA #$ff     
00c043 9d 33 04      STA $0433,X     
00c046 60            RTS      
00c047 b5 0f         LDA $0f,X     
00c049 48            PHA      
00c04a 0a            ASL      
00c04b b0 12         BCS $c05f     
00c04d 68            PLA      
00c04e f0 03         BEQ $c053     
00c050 4c 82 c8      JMP $c882     	; 
00c053 ad 1f 07      LDA $071f     	; 
00c056 29 07         AND #$07     
00c058 c9 07         CMP #$07     
00c05a f0 0e         BEQ $c06a     
00c05c 4c cc c0      JMP $c0cc     	; 
00c05f 68            PLA      
00c060 29 0f         AND #$0f     
00c062 a8            TAY      
00c063 b9 0f 00      LDA $000f,Y     
00c066 d0 02         BNE $c06a     
00c068 95 0f         STA $0f,X     
00c06a 60            RTS      
00c06b 03 03         ORA $3,S     
00c06d 06 06         ASL $06     
00c06f 06 06         ASL $06     
00c071 06 06         ASL $06     
00c073 07 07         ORA [$07]     
00c075 07 05         ORA [$05]     
00c077 09 04         ORA #$04     
00c079 05 06         ORA $06     
00c07b 08            PHP      
00c07c 09 0a         ORA #$0a     
00c07e 06 0b         ASL $0b     
00c080 10 40         BPL $c0c2     
00c082 b0 b0         BCS $c034     
00c084 80 40         BRA $c0c6     
00c086 40            RTI      
00c087 80 40         BRA $c0c9     
00c089 f0 f0         BEQ $c07b     
00c08b f0 a5         BEQ $c032     
00c08d 6d 38 e9      ADC $e938     	; 
00c090 04 85         TSB $85     
00c092 6d ad 25      ADC $25ad     	; 
00c095 07 38         ORA [$38]     
00c097 e9 04         SBC #$04     
00c099 8d 25 07      STA $0725     	; 
00c09c ad 1a 07      LDA $071a     	; 
00c09f 38            SEC      
00c0a0 e9 04         SBC #$04     
00c0a2 8d 1a 07      STA $071a     	; 
00c0a5 ad 1b 07      LDA $071b     	; 
00c0a8 38            SEC      
00c0a9 e9 04         SBC #$04     
00c0ab 8d 1b 07      STA $071b     	; 
00c0ae ad 2a 07      LDA $072a     	; 
00c0b1 38            SEC      
00c0b2 e9 04         SBC #$04     
00c0b4 8d 2a 07      STA $072a     	; 
00c0b7 a9 00         LDA #$00     
00c0b9 8d 3b 07      STA $073b     	; 
00c0bc 8d 2b 07      STA $072b     	; 
00c0bf 8d 39 07      STA $0739     	; 
00c0c2 8d 3a 07      STA $073a     	; 
00c0c5 b9 f8 9b      LDA $9bf8,Y     
00c0c8 8d 2c 07      STA $072c     	; 
00c0cb 60            RTS      
00c0cc ad 45 07      LDA $0745     	; 
00c0cf f0 5e         BEQ $c12f     
00c0d1 ad 26 07      LDA $0726     	; 
00c0d4 d0 59         BNE $c12f     
00c0d6 a0 0b         LDY #$0b     
00c0d8 88            DEY      
00c0d9 30 54         BMI $c12f     
00c0db ad 5f 07      LDA $075f     	; 
00c0de d9 6b c0      CMP $c06b,Y     
00c0e1 d0 f5         BNE $c0d8     
00c0e3 ad 25 07      LDA $0725     	; 
00c0e6 d9 76 c0      CMP $c076,Y     
00c0e9 d0 ed         BNE $c0d8     
00c0eb a5 ce         LDA $ce     
00c0ed d9 81 c0      CMP $c081,Y     
00c0f0 d0 23         BNE $c115     
00c0f2 a5 1d         LDA $1d     
00c0f4 c9 00         CMP #$00     
00c0f6 d0 1d         BNE $c115     
00c0f8 ad 5f 07      LDA $075f     	; 
00c0fb c9 06         CMP #$06     
00c0fd d0 23         BNE $c122     
00c0ff ee d9 06      INC $06d9     	; 
00c102 ee da 06      INC $06da     	; 
00c105 ad da 06      LDA $06da     	; 
00c108 c9 03         CMP #$03     
00c10a d0 1e         BNE $c12a     
00c10c ad d9 06      LDA $06d9     	; 
00c10f c9 03         CMP #$03     
00c111 f0 0f         BEQ $c122     
00c113 d0 07         BNE $c11c     
00c115 ad 5f 07      LDA $075f     	; 
00c118 c9 06         CMP #$06     
00c11a f0 e6         BEQ $c102     
00c11c 20 8c c0      JSR $c08c     	; 
00c11f 20 71 d0      JSR $d071     	; 
00c122 a9 00         LDA #$00     
00c124 8d da 06      STA $06da     	; 
00c127 8d d9 06      STA $06d9     	; 
00c12a a9 00         LDA #$00     
00c12c 8d 45 07      STA $0745     	; 
00c12f ad cd 06      LDA $06cd     	; 
00c132 f0 10         BEQ $c144     
00c134 95 16         STA $16,X     
00c136 a9 01         LDA #$01     
00c138 95 0f         STA $0f,X     
00c13a a9 00         LDA #$00     
00c13c 95 1e         STA $1e,X     
00c13e 8d cd 06      STA $06cd     	; 
00c141 4c 26 c2      JMP $c226     	;

00c144 ac 39 07      LDY $0739     	; 
00c147 b1 e9         LDA ($e9),Y     
00c149 c9 ff         CMP #$ff     
00c14b d0 03         BNE $c150     
00c14d 4c 16 c2      JMP $c216     	; 
00c150 29 0f         AND #$0f     
00c152 c9 0e         CMP #$0e     
00c154 f0 0e         BEQ $c164     
00c156 e0 05         CPX #$05     
00c158 90 0a         BCC $c164     
00c15a c8            INY      
00c15b b1 e9         LDA ($e9),Y     
00c15d 29 3f         AND #$3f     
00c15f c9 2e         CMP #$2e     
00c161 f0 01         BEQ $c164     
00c163 60            RTS

00c164 ad 1d 07      LDA $071d     	; 
00c167 18            CLC      
00c168 69 30         ADC #$30     
00c16a 29 f0         AND #$f0     
00c16c 85 07         STA $07     
00c16e ad 1b 07      LDA $071b     	; 
00c171 69 00         ADC #$00     
00c173 85 06         STA $06     
00c175 ac 39 07      LDY $0739     	; 
00c178 c8            INY      
00c179 b1 e9         LDA ($e9),Y     
00c17b 0a            ASL      
00c17c 90 0b         BCC $c189     
00c17e ad 3b 07      LDA $073b     	; 
00c181 d0 06         BNE $c189     
00c183 ee 3b 07      INC $073b     	; 
00c186 ee 3a 07      INC $073a     	; 
00c189 88            DEY      
00c18a b1 e9         LDA ($e9),Y     
00c18c 29 0f         AND #$0f     
00c18e c9 0f         CMP #$0f     
00c190 d0 19         BNE $c1ab     
00c192 ad 3b 07      LDA $073b     	; 
00c195 d0 14         BNE $c1ab     
00c197 c8            INY      
00c198 b1 e9         LDA ($e9),Y     
00c19a 29 3f         AND #$3f     
00c19c 8d 3a 07      STA $073a     	; 
00c19f ee 39 07      INC $0739     	; 
00c1a2 ee 39 07      INC $0739     	; 
00c1a5 ee 3b 07      INC $073b     	; 
00c1a8 4c cc c0      JMP $c0cc     	; 
00c1ab ad 3a 07      LDA $073a     	; 
00c1ae 95 6e         STA $6e,X     
00c1b0 b1 e9         LDA ($e9),Y     
00c1b2 29 f0         AND #$f0     
00c1b4 95 87         STA $87,X     
00c1b6 cd 1d 07      CMP $071d     	; 
00c1b9 b5 6e         LDA $6e,X     
00c1bb ed 1b 07      SBC $071b     	; 
00c1be b0 0b         BCS $c1cb     
00c1c0 b1 e9         LDA ($e9),Y     
00c1c2 29 0f         AND #$0f     
00c1c4 c9 0e         CMP #$0e     
00c1c6 f0 69         BEQ $c231     
00c1c8 4c 50 c2      JMP $c250     	; 
00c1cb a5 07         LDA $07     
00c1cd d5 87         CMP $87,X     
00c1cf a5 06         LDA $06     
00c1d1 f5 6e         SBC $6e,X     
00c1d3 90 41         BCC $c216     
00c1d5 a9 01         LDA #$01     
00c1d7 95 b6         STA $b6,X     
00c1d9 b1 e9         LDA ($e9),Y     
00c1db 0a            ASL      
00c1dc 0a            ASL      
00c1dd 0a            ASL      
00c1de 0a            ASL      
00c1df 95 cf         STA $cf,X     
00c1e1 c9 e0         CMP #$e0     
00c1e3 f0 4c         BEQ $c231     
00c1e5 c8            INY      
00c1e6 b1 e9         LDA ($e9),Y     
00c1e8 29 40         AND #$40     
00c1ea f0 05         BEQ $c1f1     
00c1ec ad cc 06      LDA $06cc     	; 
00c1ef f0 6d         BEQ $c25e     
00c1f1 b1 e9         LDA ($e9),Y     
00c1f3 29 3f         AND #$3f     
00c1f5 c9 37         CMP #$37     
00c1f7 90 04         BCC $c1fd     
00c1f9 c9 3f         CMP #$3f     
00c1fb 90 31         BCC $c22e     
00c1fd c9 06         CMP #$06     
00c1ff d0 07         BNE $c208     
00c201 ac 6a 07      LDY $076a     	; 
00c204 f0 02         BEQ $c208     
00c206 a9 02         LDA #$02     
00c208 95 16         STA $16,X     
00c20a a9 01         LDA #$01     
00c20c 95 0f         STA $0f,X     
00c20e 20 26 c2      JSR $c226     	; 
00c211 b5 0f         LDA $0f,X     
00c213 d0 49         BNE $c25e     
00c215 60            RTS

00c216 ad cb 06      LDA $06cb     	; 
00c219 d0 09         BNE $c224     
00c21b ad 98 03      LDA $0398     	; 
00c21e c9 01         CMP #$01     
00c220 d0 0b         BNE $c22d     
00c222 a9 2f         LDA #$2f     
00c224 95 16         STA $16,X     
00c226 a9 00         LDA #$00     
00c228 95 1e         STA $1e,X     
00c22a 20 6c c2      JSR $c26c     	; 
00c22d 60            RTS      
00c22e 4c 1b c7      JMP $c71b     	; 
00c231 c8            INY      
00c232 c8            INY      
00c233 b1 e9         LDA ($e9),Y     
00c235 4a            LSR      
00c236 4a            LSR      
00c237 4a            LSR      
00c238 4a            LSR      
00c239 4a            LSR      
00c23a cd 5f 07      CMP $075f     	; 
00c23d d0 0e         BNE $c24d     
00c23f 88            DEY      
00c240 b1 e9         LDA ($e9),Y     
00c242 8d 50 07      STA $0750     	; 
00c245 c8            INY      
00c246 b1 e9         LDA ($e9),Y     
00c248 29 1f         AND #$1f     
00c24a 8d 51 07      STA $0751     	; 
00c24d 4c 5b c2      JMP $c25b     	; 
00c250 ac 39 07      LDY $0739     	; 
00c253 b1 e9         LDA ($e9),Y     
00c255 29 0f         AND #$0f     
00c257 c9 0e         CMP #$0e     
00c259 d0 03         BNE $c25e     
00c25b ee 39 07      INC $0739     	; 
00c25e ee 39 07      INC $0739     	; 
00c261 ee 39 07      INC $0739     	; 
00c264 a9 00         LDA #$00     
00c266 8d 3b 07      STA $073b     	; 
00c269 a6 08         LDX $08     
00c26b 60            RTS      
00c26c b5 16         LDA $16,X     
00c26e c9 15         CMP #$15     
00c270 b0 0d         BCS $c27f     
00c272 a8            TAY      
00c273 b5 cf         LDA $cf,X     
00c275 69 08         ADC #$08     
00c277 95 cf         STA $cf,X     
00c279 a9 01         LDA #$01     
00c27b 9d d8 03      STA $03d8,X     
00c27e 98            TYA      
00c27f 20 04 8e      JSR $8e04     	; 
00c282 0e c3 0e      ASL $0ec3     	; 
00c285 c3 0e         CMP $e,S     
00c287 c3 1e         CMP $1e,S     
00c289 c3 f0         CMP $f0,S     
00c28b c2 28         REP #$28     	; Accum (16 bit)
00c28d c3 f1         CMP $f1,S     
00c28f c2 42         REP #$42     
00c291 c3 6b         CMP $6b,S     
00c293 c3 f0         CMP $f0,S     
00c295 c2 75         REP #$75     	; Index (16 bit) Accum (16 bit)
00c297 c3 75         CMP $75,S     
00c299 c3 f7         CMP $f7,S     
00c29b c2 87         REP #$87     
00c29d c7 d1         CMP [$d1]     
00c29f c7 4a         CMP [$4a]     
00c2a1 c3 3d         CMP $3d,S     
00c2a3 c3 85         CMP $85,S     
00c2a5 c3 a0         CMP $a0,S     
00c2a7 c7 f0         CMP [$f0]     
00c2a9 c2 a0         REP #$a0     	; Accum (16 bit)
00c2ab c7 a0         CMP [$a0]     
00c2ad c7 a0         CMP [$a0]     
00c2af c7 a0         CMP [$a0]     
00c2b1 c7 b8         CMP [$b8]     
00c2b3 c7 f0         CMP [$f0]     
00c2b5 c2 f0         REP #$f0     	; Index (16 bit) Accum (16 bit)
00c2b7 c2 5c         REP #$5c     	; Index (16 bit)
00c2b9 c4 5c         CPY $5c     
00c2bb c4 5c         CPY $5c     
00c2bd c4 5c         CPY $5c     
00c2bf c4 59         CPY $59     
00c2c1 c4 f0         CPY $f0     
00c2c3 c2 f0         REP #$f0     	; Index (16 bit) Accum (16 bit)
00c2c5 c2 f0         REP #$f0     	; Index (16 bit) Accum (16 bit)
00c2c7 c2 f0         REP #$f0     	; Index (16 bit) Accum (16 bit)
00c2c9 c2 df         REP #$df     	; Index (16 bit)
00c2cb c7 12         CMP [$12]     
00c2cd c8            INY      
00c2ce 3f c8 45 c8   AND $c845c8,X     
00c2d2 0b            PHD      
00c2d3 c8            INY      
00c2d4 03 c8         ORA $c8,S     
00c2d6 0b            PHD      
00c2d7 c8            INY      
00c2d8 4b            PHK      
00c2d9 c8            INY      
00c2da 57 c8         EOR [$c8],Y     
00c2dc 49 c5         EOR #$c5     
00c2de 60            RTS      
00c2df bc 1e b9      LDY $b91e,X     
00c2e2 f0 c2         BEQ $c2a6     
00c2e4 f0 c2         BEQ $c2a8     
00c2e6 f0 c2         BEQ $c2aa     
00c2e8 f0 c2         BEQ $c2ac     
00c2ea f0 c2         BEQ $c2ae     
00c2ec 07 c3         ORA [$c3]     
00c2ee 81 c8         STA ($c8,X)     
00c2f0 60            RTS      
00c2f1 20 0e c3      JSR $c30e     	; 
00c2f4 4c 46 c3      JMP $c346     	; 
00c2f7 a9 02         LDA #$02     
00c2f9 95 b6         STA $b6,X     
00c2fb 95 cf         STA $cf,X     
00c2fd 4a            LSR      
00c2fe 9d 96 07      STA $0796,X     
00c301 4a            LSR      
00c302 95 1e         STA $1e,X     
00c304 4c 46 c3      JMP $c346     	; 
00c307 a9 b8         LDA #$b8     
00c309 95 cf         STA $cf,X     
00c30b 60            RTS

;Enemy Speed settings.
00c30c f8
00c30d f4


00c30e a0 01         LDY #$01
00c310 ad 6a 07      LDA $076a          ; Check game mode.
00c313 d0 01         BNE $c316     
00c315 88            DEY      
00c316 b9 0c c3      LDA $c30c,Y        ; Fetch Enemy Speed Setting.
00c319 95 58         STA $58,X          ; Store here.
00c31b 4c 5a c3      JMP $c35a     	;

00c31e 20 0e c3      JSR $c30e     	; 
00c321 a9 01         LDA #$01     
00c323 95 1e         STA $1e,X     
00c325 60            RTS

00c326 80 50         BRA $c378     
00c328 a9 00         LDA #$00     
00c32a 9d a2 03      STA $03a2,X     
00c32d 95 58         STA $58,X     
00c32f ac cc 06      LDY $06cc     	; 
00c332 b9 26 c3      LDA $c326,Y     
00c335 9d 96 07      STA $0796,X     
00c338 a9 0b         LDA #$0b     
00c33a 4c 5c c3      JMP $c35c     	; 
00c33d a9 00         LDA #$00     
00c33f 4c 19 c3      JMP $c319     	; 
00c342 a9 00         LDA #$00     
00c344 95 58         STA $58,X     
00c346 a9 09         LDA #$09     
00c348 d0 12         BNE $c35c     
00c34a a0 30         LDY #$30     
00c34c b5 cf         LDA $cf,X     
00c34e 9d 01 04      STA $0401,X     
00c351 10 02         BPL $c355     
00c353 a0 e0         LDY #$e0     
00c355 98            TYA      
00c356 75 cf         ADC $cf,X     
00c358 95 58         STA $58,X

00c35a a9 03         LDA #$03     
00c35c 9d 9a 04      STA $049a,X     
00c35f a9 02         LDA #$02     
00c361 95 46         STA $46,X     
00c363 a9 00         LDA #$00     
00c365 95 a0         STA $a0,X     
00c367 9d 34 04      STA $0434,X     
00c36a 60            RTS

00c36b a9 02         LDA #$02     
00c36d 95 46         STA $46,X     
00c36f a9 09         LDA #$09     
00c371 9d 9a 04      STA $049a,X     
00c374 60            RTS

00c375 20 46 c3      JSR $c346     	; 
00c378 bd a7 07      LDA $07a7,X     
00c37b 29 10         AND #$10     
00c37d 95 58         STA $58,X     
00c37f b5 cf         LDA $cf,X     
00c381 9d 34 04      STA $0434,X     
00c384 60            RTS

00c385 ad cb 06      LDA $06cb     	; 
00c388 d0 0b         BNE $c395     
00c38a a9 00         LDA #$00     
00c38c 8d d1 06      STA $06d1     	; 
00c38f 20 3d c3      JSR $c33d     	; 
00c392 4c d9 c7      JMP $c7d9     	; 
00c395 4c 98 c9      JMP $c998     	; 
00c398 26 2c         ROL $2c     
00c39a 32 38         AND ($38)     
00c39c 20 22 24      JSR $2422     	; 
00c39f 26 13         ROL $13     
00c3a1 14 15         TRB $15     
00c3a3 16 ad         ASL $ad,X     
00c3a5 8f 07 d0 3c   STA $3cd007     
00c3a9 e0 05         CPX #$05     
00c3ab b0 38         BCS $c3e5     
00c3ad a9 80         LDA #$80     
00c3af 8d 8f 07      STA $078f     	; 
00c3b2 a0 04         LDY #$04     
00c3b4 b9 16 00      LDA $0016,Y     
00c3b7 c9 11         CMP #$11     
00c3b9 f0 2b         BEQ $c3e6     
00c3bb 88            DEY      
00c3bc 10 f6         BPL $c3b4     
00c3be ee d1 06      INC $06d1     	; 
00c3c1 ad d1 06      LDA $06d1     	; 
00c3c4 c9 07         CMP #$07     
00c3c6 90 1d         BCC $c3e5     
00c3c8 a2 04         LDX #$04     
00c3ca b5 0f         LDA $0f,X     
00c3cc f0 05         BEQ $c3d3     
00c3ce ca            DEX      
00c3cf 10 f9         BPL $c3ca     
00c3d1 30 10         BMI $c3e3     
00c3d3 a9 00         LDA #$00     
00c3d5 95 1e         STA $1e,X     
00c3d7 a9 11         LDA #$11     
00c3d9 95 16         STA $16,X     
00c3db 20 8a c3      JSR $c38a     	; 
00c3de a9 20         LDA #$20     
00c3e0 20 d8 c5      JSR $c5d8     	; 
00c3e3 a6 08         LDX $08     
00c3e5 60            RTS      
00c3e6 a5 ce         LDA $ce     
00c3e8 c9 2c         CMP #$2c     
00c3ea 90 f9         BCC $c3e5     
00c3ec b9 1e 00      LDA $001e,Y     
00c3ef d0 f4         BNE $c3e5     
00c3f1 b9 6e 00      LDA $006e,Y     
00c3f4 95 6e         STA $6e,X     
00c3f6 b9 87 00      LDA $0087,Y     
00c3f9 95 87         STA $87,X     
00c3fb a9 01         LDA #$01     
00c3fd 95 b6         STA $b6,X     
00c3ff b9 cf 00      LDA $00cf,Y     
00c402 38            SEC      
00c403 e9 08         SBC #$08     
00c405 95 cf         STA $cf,X     
00c407 bd a7 07      LDA $07a7,X     
00c40a 29 03         AND #$03     
00c40c a8            TAY      
00c40d a2 02         LDX #$02     
00c40f b9 98 c3      LDA $c398,Y     
00c412 95 01         STA $01,X     
00c414 c8            INY      
00c415 c8            INY      
00c416 c8            INY      
00c417 c8            INY      
00c418 ca            DEX      
00c419 10 f4         BPL $c40f     
00c41b a6 08         LDX $08     
00c41d 20 6c cf      JSR $cf6c     	; 
00c420 a4 57         LDY $57     
00c422 c0 08         CPY #$08     
00c424 b0 0e         BCS $c434     
00c426 a8            TAY      
00c427 bd a8 07      LDA $07a8,X     
00c42a 29 03         AND #$03     
00c42c f0 05         BEQ $c433     
00c42e 98            TYA      
00c42f 49 ff         EOR #$ff     
00c431 a8            TAY      
00c432 c8            INY      
00c433 98            TYA      
00c434 20 46 c3      JSR $c346     	; 
00c437 a0 02         LDY #$02     
00c439 95 58         STA $58,X     
00c43b c9 00         CMP #$00     
00c43d 30 01         BMI $c440     
00c43f 88            DEY      
00c440 94 46         STY $46,X     
00c442 a9 fd         LDA #$fd     
00c444 95 a0         STA $a0,X     
00c446 a9 01         LDA #$01     
00c448 95 0f         STA $0f,X     
00c44a a9 05         LDA #$05     
00c44c 95 1e         STA $1e,X     
00c44e 60            RTS      
00c44f 28            PLP      
00c450 38            SEC      
00c451 28            PLP      
00c452 38            SEC      
00c453 28            PLP      
00c454 00 00         BRK $00     
00c456 10 10         BPL $c468     
00c458 00 20         BRK $20     
00c45a 75 c5         ADC $c5,X     
00c45c a9 00         LDA #$00     
00c45e 95 58         STA $58,X     
00c460 b5 16         LDA $16,X     
00c462 38            SEC      
00c463 e9 1b         SBC #$1b     
00c465 a8            TAY      
00c466 b9 4f c4      LDA $c44f,Y     
00c469 9d 88 03      STA $0388,X     
00c46c b9 54 c4      LDA $c454,Y     
00c46f 95 34         STA $34,X     
00c471 b5 cf         LDA $cf,X     
00c473 18            CLC      
00c474 69 04         ADC #$04     
00c476 95 cf         STA $cf,X     
00c478 b5 87         LDA $87,X     
00c47a 18            CLC      
00c47b 69 04         ADC #$04     
00c47d 95 87         STA $87,X     
00c47f b5 6e         LDA $6e,X     
00c481 69 00         ADC #$00     
00c483 95 6e         STA $6e,X     
00c485 4c d9 c7      JMP $c7d9     	; 
00c488 80 30         BRA $c4ba     
00c48a 40            RTI      
00c48b 80 30         BRA $c4bd     
00c48d 50 50         BVC $c4df     
00c48f 70 20         BVS $c4b1     
00c491 40            RTI      
00c492 80 a0         BRA $c434     
00c494 70 40         BVS $c4d6     
00c496 90 68         BCC $c500

00c498 0e 05 06      ASL $0605     	; 
00c49b 0e 1c 20      ASL $201c     	; 
00c49e 10 0c         BPL $c4ac     
00c4a0 1e 22 18      ASL $1822,X     
00c4a3 14 10         TRB $10     
00c4a5 60            RTS      
00c4a6 20 48 ad      JSR $ad48     	; 
00c4a9 8f 07 d0 a1   STA $a1d007     
00c4ad 20 46 c3      JSR $c346     	; 
00c4b0 bd a8 07      LDA $07a8,X     
00c4b3 29 03         AND #$03     
00c4b5 a8            TAY      
00c4b6 b9 a4 c4      LDA $c4a4,Y     
00c4b9 8d 8f 07      STA $078f     	; 
00c4bc a0 03         LDY #$03     
00c4be ad cc 06      LDA $06cc     	; 
00c4c1 f0 01         BEQ $c4c4     
00c4c3 c8            INY      
00c4c4 84 00         STY $00     
00c4c6 e4 00         CPX $00     
00c4c8 b0 84         BCS $c44e     
00c4ca bd a7 07      LDA $07a7,X     
00c4cd 29 03         AND #$03     
00c4cf 85 00         STA $00     
00c4d1 85 01         STA $01     
00c4d3 a9 fb         LDA #$fb     
00c4d5 95 a0         STA $a0,X     
00c4d7 a9 00         LDA #$00     
00c4d9 a4 57         LDY $57     
00c4db f0 07         BEQ $c4e4     
00c4dd a9 04         LDA #$04     
00c4df c0 19         CPY #$19     
00c4e1 90 01         BCC $c4e4     
00c4e3 0a            ASL      
00c4e4 48            PHA      
00c4e5 18            CLC      
00c4e6 65 00         ADC $00     
00c4e8 85 00         STA $00     
00c4ea bd a8 07      LDA $07a8,X     
00c4ed 29 03         AND #$03     
00c4ef f0 07         BEQ $c4f8     
00c4f1 bd a9 07      LDA $07a9,X     
00c4f4 29 0f         AND #$0f     
00c4f6 85 00         STA $00     
00c4f8 68            PLA      
00c4f9 18            CLC      
00c4fa 65 01         ADC $01     
00c4fc a8            TAY      
00c4fd b9 98 c4      LDA $c498,Y     
00c500 95 58         STA $58,X     
00c502 a9 01         LDA #$01     
00c504 95 46         STA $46,X     
00c506 a5 57         LDA $57     
00c508 d0 12         BNE $c51c     
00c50a a4 00         LDY $00     
00c50c 98            TYA      
00c50d 29 02         AND #$02     
00c50f f0 0b         BEQ $c51c     
00c511 b5 58         LDA $58,X     
00c513 49 ff         EOR #$ff     
00c515 18            CLC      
00c516 69 01         ADC #$01     
00c518 95 58         STA $58,X     
00c51a f6 46         INC $46,X     
00c51c 98            TYA      
00c51d 29 02         AND #$02     
00c51f f0 0f         BEQ $c530     
00c521 a5 86         LDA $86     
00c523 18            CLC      
00c524 79 88 c4      ADC $c488,Y     
00c527 95 87         STA $87,X     
00c529 a5 6d         LDA $6d     
00c52b 69 00         ADC #$00     
00c52d 4c 3c c5      JMP $c53c     	; 
00c530 a5 86         LDA $86     
00c532 38            SEC      
00c533 f9 88 c4      SBC $c488,Y     
00c536 95 87         STA $87,X     
00c538 a5 6d         LDA $6d     
00c53a e9 00         SBC #$00     
00c53c 95 6e         STA $6e,X     
00c53e a9 01         LDA #$01     
00c540 95 0f         STA $0f,X     
00c542 95 b6         STA $b6,X     
00c544 a9 f8         LDA #$f8     
00c546 95 cf         STA $cf,X     
00c548 60            RTS      
00c549 20 75 c5      JSR $c575     	; 
00c54c 8e 68 03      STX $0368     	; 
00c54f a9 00         LDA #$00     
00c551 8d 63 03      STA $0363     	; 
00c554 8d 69 03      STA $0369     	; 
00c557 b5 87         LDA $87,X     
00c559 8d 66 03      STA $0366     	; 
00c55c a9 df         LDA #$df     
00c55e 8d 90 07      STA $0790     	; 
00c561 95 46         STA $46,X     
00c563 a9 20         LDA #$20     
00c565 8d 64 03      STA $0364     	; 
00c568 9d 8a 07      STA $078a,X     
00c56b a9 05         LDA #$05     
00c56d 8d 83 04      STA $0483     	; 
00c570 4a            LSR      
00c571 8d 65 03      STA $0365     	; 
00c574 60            RTS      
00c575 a0 ff         LDY #$ff     
00c577 c8            INY      
00c578 b9 0f 00      LDA $000f,Y     
00c57b d0 fa         BNE $c577     
00c57d 8c cf 06      STY $06cf     	; 
00c580 8a            TXA      
00c581 09 80         ORA #$80     
00c583 99 0f 00      STA $000f,Y     
00c586 b5 6e         LDA $6e,X     
00c588 99 6e 00      STA $006e,Y     
00c58b b5 87         LDA $87,X     
00c58d 99 87 00      STA $0087,Y     
00c590 a9 01         LDA #$01     
00c592 95 0f         STA $0f,X     
00c594 99 b6 00      STA $00b6,Y     
00c597 b5 cf         LDA $cf,X     
00c599 99 cf 00      STA $00cf,Y     
00c59c 60            RTS      
00c59d 90 80         BCC $c51f     
00c59f 70 90         BVS $c531     
00c5a1 ff 01 ad 8f   SBC $8fad01,X     
00c5a5 07 d0         ORA [$d0]     
00c5a7 f4 9d 34      PEA $349d     	; 
00c5aa 04 a5         TSB $a5     
00c5ac fd 09 02      SBC $0209,X     
00c5af 85 fd         STA $fd     
00c5b1 ac 68 03      LDY $0368     	; 
00c5b4 b9 16 00      LDA $0016,Y     
00c5b7 c9 2d         CMP #$2d     
00c5b9 f0 31         BEQ $c5ec     
00c5bb 20 d9 d1      JSR $d1d9     	; 
00c5be 18            CLC      
00c5bf 69 20         ADC #$20     
00c5c1 ac cc 06      LDY $06cc     	; 
00c5c4 f0 03         BEQ $c5c9     
00c5c6 38            SEC      
00c5c7 e9 10         SBC #$10     
00c5c9 8d 8f 07      STA $078f     	; 
00c5cc bd a7 07      LDA $07a7,X     
00c5cf 29 03         AND #$03     
00c5d1 9d 17 04      STA $0417,X     
00c5d4 a8            TAY      
00c5d5 b9 9d c5      LDA $c59d,Y     
00c5d8 95 cf         STA $cf,X     
00c5da ad 1d 07      LDA $071d     	; 
00c5dd 18            CLC      
00c5de 69 20         ADC #$20     
00c5e0 95 87         STA $87,X     
00c5e2 ad 1b 07      LDA $071b     	; 
00c5e5 69 00         ADC #$00     
00c5e7 95 6e         STA $6e,X     
00c5e9 4c 1f c6      JMP $c61f     	; 
00c5ec b9 87 00      LDA $0087,Y     
00c5ef 38            SEC      
00c5f0 e9 0e         SBC #$0e     
00c5f2 95 87         STA $87,X     
00c5f4 b9 6e 00      LDA $006e,Y     
00c5f7 95 6e         STA $6e,X     
00c5f9 b9 cf 00      LDA $00cf,Y     
00c5fc 18            CLC      
00c5fd 69 08         ADC #$08     
00c5ff 95 cf         STA $cf,X     
00c601 bd a7 07      LDA $07a7,X     
00c604 29 03         AND #$03     
00c606 9d 17 04      STA $0417,X     
00c609 a8            TAY      
00c60a b9 9d c5      LDA $c59d,Y     
00c60d a0 00         LDY #$00     
00c60f d5 cf         CMP $cf,X     
00c611 90 01         BCC $c614     
00c613 c8            INY      
00c614 b9 a1 c5      LDA $c5a1,Y     
00c617 9d 34 04      STA $0434,X     
00c61a a9 00         LDA #$00     
00c61c 8d cb 06      STA $06cb     	; 
00c61f a9 08         LDA #$08     
00c621 9d 9a 04      STA $049a,X     
00c624 a9 01         LDA #$01     
00c626 95 b6         STA $b6,X     
00c628 95 0f         STA $0f,X     
00c62a 4a            LSR      
00c62b 9d 01 04      STA $0401,X     
00c62e 95 1e         STA $1e,X     
00c630 60            RTS      
00c631 00 30         BRK $30     
00c633 60            RTS      
00c634 60            RTS      
00c635 00 20         BRK $20     
00c637 60            RTS      
00c638 40            RTI      
00c639 70 40         BVS $c67b     
00c63b 60            RTS      
00c63c 30 ad         BMI $c5eb     
00c63e 8f 07 d0 47   STA $47d007     
00c642 a9 20         LDA #$20     
00c644 8d 8f 07      STA $078f     	; 
00c647 ce d7 06      DEC $06d7          ; Decrement Firework Count.
00c64a a0 06         LDY #$06           ; Init Y+1.
00c64c 88            DEY      
00c64d b9 16 00      LDA $0016,Y        ; unknown.
00c650 c9 31         CMP #$31     
00c652 d0 f8         BNE $c64c

00c654 b9 87 00      LDA $0087,Y     
00c657 38            SEC      
00c658 e9 30         SBC #$30     
00c65a 48            PHA      
00c65b b9 6e 00      LDA $006e,Y     
00c65e e9 00         SBC #$00     
00c660 85 00         STA $00     
00c662 ad d7 06      LDA $06d7     	; 
00c665 18            CLC      
00c666 79 1e 00      ADC $001e,Y     
00c669 a8            TAY      
00c66a 68            PLA      
00c66b 18            CLC      
00c66c 79 31 c6      ADC $c631,Y     
00c66f 95 87         STA $87,X     
00c671 a5 00         LDA $00     
00c673 69 00         ADC #$00     
00c675 95 6e         STA $6e,X     
00c677 b9 37 c6      LDA $c637,Y     
00c67a 95 cf         STA $cf,X     
00c67c a9 01         LDA #$01     
00c67e 95 b6         STA $b6,X     
00c680 95 0f         STA $0f,X     
00c682 4a            LSR      
00c683 95 58         STA $58,X     
00c685 a9 08         LDA #$08     
00c687 95 a0         STA $a0,X     
00c689 60            RTS      
00c68a 01 02         ORA ($02,X)     
00c68c 04 08         TSB $08     
00c68e 10 20         BPL $c6b0     
00c690 40            RTI      
00c691 80 40         BRA $c6d3     
00c693 30 90         BMI $c625     
00c695 50 20         BVC $c6b7     
00c697 60            RTS      
00c698 a0 70         LDY #$70     
00c69a 0a            ASL      
00c69b 0b            PHD      
00c69c ad 8f 07      LDA $078f     	; 
00c69f d0 6f         BNE $c710     
00c6a1 ad 4e 07      LDA $074e     	; 
00c6a4 d0 57         BNE $c6fd     
00c6a6 e0 03         CPX #$03     
00c6a8 b0 66         BCS $c710     
00c6aa a0 00         LDY #$00     
00c6ac bd a7 07      LDA $07a7,X     
00c6af c9 aa         CMP #$aa     
00c6b1 90 01         BCC $c6b4     
00c6b3 c8            INY      
00c6b4 ad 5f 07      LDA $075f     	; 
00c6b7 c9 01         CMP #$01     
00c6b9 f0 01         BEQ $c6bc     
00c6bb c8            INY      
00c6bc 98            TYA      
00c6bd 29 01         AND #$01     
00c6bf a8            TAY      
00c6c0 b9 9a c6      LDA $c69a,Y     
00c6c3 95 16         STA $16,X     
00c6c5 ad dd 06      LDA $06dd     	; 
00c6c8 c9 ff         CMP #$ff     
00c6ca d0 05         BNE $c6d1     
00c6cc a9 00         LDA #$00     
00c6ce 8d dd 06      STA $06dd     	; 
00c6d1 bd a7 07      LDA $07a7,X     
00c6d4 29 07         AND #$07     
00c6d6 a8            TAY      
00c6d7 b9 8a c6      LDA $c68a,Y     
00c6da 2c dd 06      BIT $06dd     	; 
00c6dd f0 07         BEQ $c6e6     
00c6df c8            INY      
00c6e0 98            TYA      
00c6e1 29 07         AND #$07     
00c6e3 4c d6 c6      JMP $c6d6     	; 
00c6e6 0d dd 06      ORA $06dd     	; 
00c6e9 8d dd 06      STA $06dd     	; 
00c6ec b9 92 c6      LDA $c692,Y     
00c6ef 20 d8 c5      JSR $c5d8     	; 
00c6f2 9d 17 04      STA $0417,X     
00c6f5 a9 20         LDA #$20     
00c6f7 8d 8f 07      STA $078f     	; 
00c6fa 4c 6c c2      JMP $c26c     	; 
00c6fd a0 ff         LDY #$ff     
00c6ff c8            INY      
00c700 c0 05         CPY #$05     
00c702 b0 0d         BCS $c711     
00c704 b9 0f 00      LDA $000f,Y     
00c707 f0 f6         BEQ $c6ff     
00c709 b9 16 00      LDA $0016,Y     
00c70c c9 08         CMP #$08     
00c70e d0 ef         BNE $c6ff     
00c710 60            RTS      
00c711 a5 fe         LDA $fe     
00c713 09 08         ORA #$08     
00c715 85 fe         STA $fe     
00c717 a9 08         LDA #$08     
00c719 d0 a8         BNE $c6c3     
00c71b a0 00         LDY #$00     
00c71d 38            SEC      
00c71e e9 37         SBC #$37     
00c720 48            PHA      
00c721 c9 04         CMP #$04     
00c723 b0 0b         BCS $c730     
00c725 48            PHA      
00c726 a0 06         LDY #$06     
00c728 ad 6a 07      LDA $076a     	; 
00c72b f0 02         BEQ $c72f     
00c72d a0 02         LDY #$02     
00c72f 68            PLA      
00c730 84 01         STY $01     
00c732 a0 b0         LDY #$b0     
00c734 29 02         AND #$02     
00c736 f0 02         BEQ $c73a     
00c738 a0 70         LDY #$70     
00c73a 84 00         STY $00     
00c73c ad 1b 07      LDA $071b     	; 
00c73f 85 02         STA $02     
00c741 ad 1d 07      LDA $071d     	; 
00c744 85 03         STA $03     
00c746 a0 02         LDY #$02     
00c748 68            PLA      
00c749 4a            LSR      
00c74a 90 01         BCC $c74d     
00c74c c8            INY      
00c74d 8c d3 06      STY $06d3     	; 
00c750 a2 ff         LDX #$ff     
00c752 e8            INX      
00c753 e0 05         CPX #$05     
00c755 b0 2d         BCS $c784     
00c757 b5 0f         LDA $0f,X     
00c759 d0 f7         BNE $c752     
00c75b a5 01         LDA $01     
00c75d 95 16         STA $16,X     
00c75f a5 02         LDA $02     
00c761 95 6e         STA $6e,X     
00c763 a5 03         LDA $03     
00c765 95 87         STA $87,X     
00c767 18            CLC      
00c768 69 18         ADC #$18     
00c76a 85 03         STA $03     
00c76c a5 02         LDA $02     
00c76e 69 00         ADC #$00     
00c770 85 02         STA $02     
00c772 a5 00         LDA $00     
00c774 95 cf         STA $cf,X     
00c776 a9 01         LDA #$01     
00c778 95 b6         STA $b6,X     
00c77a 95 0f         STA $0f,X     
00c77c 20 6c c2      JSR $c26c     	; 
00c77f ce d3 06      DEC $06d3     	; 
00c782 d0 cc         BNE $c750     
00c784 4c 5e c2      JMP $c25e     	; 
00c787 a9 01         LDA #$01     
00c789 95 58         STA $58,X     
00c78b 4a            LSR      
00c78c 95 1e         STA $1e,X     
00c78e 95 a0         STA $a0,X     
00c790 b5 cf         LDA $cf,X     
00c792 9d 34 04      STA $0434,X     
00c795 38            SEC      
00c796 e9 18         SBC #$18     
00c798 9d 17 04      STA $0417,X     
00c79b a9 09         LDA #$09     
00c79d 4c db c7      JMP $c7db     	; 
00c7a0 b5 16         LDA $16,X     
00c7a2 8d cb 06      STA $06cb     	; 
00c7a5 38            SEC      
00c7a6 e9 12         SBC #$12     
00c7a8 20 04 8e      JSR $8e04     	; 
00c7ab a4 c3         LDY $c3     
00c7ad b7 c7         LDA [$c7],Y     
00c7af a8            TAY      
00c7b0 c4 a3         CPY $a3     
00c7b2 c5 3d         CMP $3d     
00c7b4 c6 9c         DEC $9c     
00c7b6 c6 60         DEC $60     
00c7b8 a0 05         LDY #$05     
00c7ba b9 16 00      LDA $0016,Y     
00c7bd c9 11         CMP #$11     
00c7bf d0 05         BNE $c7c6     
00c7c1 a9 01         LDA #$01     
00c7c3 99 1e 00      STA $001e,Y     
00c7c6 88            DEY      
00c7c7 10 f1         BPL $c7ba     
00c7c9 a9 00         LDA #$00     
00c7cb 8d cb 06      STA $06cb     	; 
00c7ce 95 0f         STA $0f,X     
00c7d0 60            RTS      
00c7d1 a9 02         LDA #$02     
00c7d3 95 46         STA $46,X     
00c7d5 a9 f8         LDA #$f8     
00c7d7 95 58         STA $58,X     
00c7d9 a9 03         LDA #$03     
00c7db 9d 9a 04      STA $049a,X     
00c7de 60            RTS      
00c7df d6 cf         DEC $cf,X     
00c7e1 d6 cf         DEC $cf,X     
00c7e3 ac cc 06      LDY $06cc     	; 
00c7e6 d0 05         BNE $c7ed     
00c7e8 a0 02         LDY #$02     
00c7ea 20 71 c8      JSR $c871     	; 
00c7ed a0 ff         LDY #$ff     
00c7ef ad a0 03      LDA $03a0     	; 
00c7f2 95 1e         STA $1e,X     
00c7f4 10 02         BPL $c7f8     
00c7f6 8a            TXA      
00c7f7 a8            TAY      
00c7f8 8c a0 03      STY $03a0     	; 
00c7fb a9 00         LDA #$00     
00c7fd 95 46         STA $46,X     
00c7ff a8            TAY      
00c800 20 71 c8      JSR $c871     	; 
00c803 a9 ff         LDA #$ff     
00c805 9d a2 03      STA $03a2,X     
00c808 4c 28 c8      JMP $c828     	; 
00c80b a9 00         LDA #$00     
00c80d 95 58         STA $58,X     
00c80f 4c 28 c8      JMP $c828     	; 
00c812 a0 40         LDY #$40     
00c814 b5 cf         LDA $cf,X     
00c816 10 07         BPL $c81f     
00c818 49 ff         EOR #$ff     
00c81a 18            CLC      
00c81b 69 01         ADC #$01     
00c81d a0 c0         LDY #$c0     
00c81f 9d 01 04      STA $0401,X     
00c822 98            TYA      
00c823 18            CLC      
00c824 75 cf         ADC $cf,X     
00c826 95 58         STA $58,X     
00c828 20 63 c3      JSR $c363     	; 
00c82b a9 05         LDA #$05     
00c82d ac 4e 07      LDY $074e     	; 
00c830 c0 03         CPY #$03     
00c832 f0 07         BEQ $c83b     
00c834 ac cc 06      LDY $06cc     	; 
00c837 d0 02         BNE $c83b     
00c839 a9 06         LDA #$06     
00c83b 9d 9a 04      STA $049a,X     
00c83e 60            RTS      
00c83f 20 4b c8      JSR $c84b     	; 
00c842 4c 48 c8      JMP $c848     	; 
00c845 20 57 c8      JSR $c857     	; 
00c848 4c 2b c8      JMP $c82b     	; 
00c84b a9 10         LDA #$10     
00c84d 9d 34 04      STA $0434,X     
00c850 a9 ff         LDA #$ff     
00c852 95 a0         STA $a0,X     
00c854 4c 60 c8      JMP $c860     	; 
00c857 a9 f0         LDA #$f0     
00c859 9d 34 04      STA $0434,X     
00c85c a9 00         LDA #$00     
00c85e 95 a0         STA $a0,X     
00c860 a0 01         LDY #$01     
00c862 20 71 c8      JSR $c871     	; 
00c865 a9 04         LDA #$04     
00c867 9d 9a 04      STA $049a,X     
00c86a 60            RTS      
00c86b 08            PHP      
00c86c 0c f8 00      TSB $00f8     
00c86f 00 ff         BRK $ff     
00c871 b5 87         LDA $87,X     
00c873 18            CLC      
00c874 79 6b c8      ADC $c86b,Y     
00c877 95 87         STA $87,X     
00c879 b5 6e         LDA $6e,X     
00c87b 79 6e c8      ADC $c86e,Y     
00c87e 95 6e         STA $6e,X     
00c880 60            RTS      
00c881 60            RTS      
00c882 a6 08         LDX $08     
00c884 a9 00         LDA #$00     
00c886 b4 16         LDY $16,X     
00c888 c0 15         CPY #$15     
00c88a 90 03         BCC $c88f     
00c88c 98            TYA      
00c88d e9 14         SBC #$14     
00c88f 20 04 8e      JSR $8e04     	; 
00c892 e0 c8         CPX #$c8     
00c894 35 c9         AND $c9,X     
00c896 95 d2         STA $d2,X     
00c898 d6 c8         DEC $c8,X     
00c89a d6 c8         DEC $c8,X     
00c89c d6 c8         DEC $c8,X     
00c89e d6 c8         DEC $c8,X     
00c8a0 47 c9         EOR [$c9]     
00c8a2 47 c9         EOR [$c9]     
00c8a4 47 c9         EOR [$c9]     
00c8a6 47 c9         EOR [$c9]     
00c8a8 47 c9         EOR [$c9]     
00c8aa 47 c9         EOR [$c9]     
00c8ac 47 c9         EOR [$c9]     
00c8ae 47 c9         EOR [$c9]     
00c8b0 d6 c8         DEC $c8,X     
00c8b2 65 c9         ADC $c9     
00c8b4 65 c9         ADC $c9     
00c8b6 65 c9         ADC $c9     
00c8b8 65 c9         ADC $c9     
00c8ba 65 c9         ADC $c9     
00c8bc 65 c9         ADC $c9     
00c8be 65 c9         ADC $c9     
00c8c0 4d c9 4d      EOR $4dc9     	; 
00c8c3 c9 65         CMP #$65     
00c8c5 d0 85         BNE $c84c     
00c8c7 bc 4b b9      LDY $b94b,X     
00c8ca d6 c8         DEC $c8,X     
00c8cc d9 d2 ba      CMP $bad2,Y     
00c8cf b8            CLV      
00c8d0 d6 c8         DEC $c8,X     
00c8d2 a4 b7         LDY $b7     
00c8d4 d7 c8         CMP [$c8],Y     
00c8d6 60            RTS      
00c8d7 20 af f1      JSR $f1af     	; 
00c8da 20 52 f1      JSR $f152     	; 
00c8dd 4c 7d e8      JMP $e87d     	; 
00c8e0 a9 00         LDA #$00     
00c8e2 9d c5 03      STA $03c5,X     
00c8e5 20 af f1      JSR $f1af     	; 
00c8e8 20 52 f1      JSR $f152     	; 
00c8eb 20 7d e8      JSR $e87d     	; 
00c8ee 20 43 e2      JSR $e243     	; 
00c8f1 20 c1 df      JSR $dfc1     	; 
00c8f4 20 33 da      JSR $da33     	; 
00c8f7 20 53 d8      JSR $d853     	; 
00c8fa ac 47 07      LDY $0747     	; 
00c8fd d0 03         BNE $c902     
00c8ff 20 05 c9      JSR $c905     	; 
00c902 4c 7a d6      JMP $d67a     	; 
00c905 b5 16         LDA $16,X     
00c907 20 04 8e      JSR $8e04     	; 
00c90a 77 ca         ADC [$ca],Y     
00c90c 77 ca         ADC [$ca],Y     
00c90e 77 ca         ADC [$ca],Y     
00c910 77 ca         ADC [$ca],Y     
00c912 77 ca         ADC [$ca],Y     
00c914 d8            CLD      
00c915 c9 77         CMP #$77     
00c917 ca            DEX      
00c918 89 cb         BIT #$cb     
00c91a 36 cc         ROL $cc,X     
00c91c 34 c9         BIT $c9,X     
00c91e 4a            LSR      
00c91f cc 4a cc      CPY $cc4a     	; 
00c922 b0 c9         BCS $c8ed     
00c924 b0 d3         BCS $c8f9     
00c926 f9 ca ff      SBC $ffca,Y     
00c929 ca            DEX      
00c92a 25 cb         AND $cb     
00c92c 28            PLP      
00c92d cf 77 ca 34   CMP $34ca77     
00c931 c9 df         CMP #$df     
00c933 ce 60 20      DEC $2060     	; 
00c936 eb            XBA      
00c937 d1 20         CMP ($20),Y     
00c939 af f1 20 52   LDA $5220f1     
00c93d f1 20         SBC ($20),Y     
00c93f 43 e2         EOR $e2,S     
00c941 20 53 d8      JSR $d853     	; 
00c944 4c 7a d6      JMP $d67a     	; 
00c947 20 3c cd      JSR $cd3c     	; 
00c94a 4c 7a d6      JMP $d67a     	; 
00c94d 20 af f1      JSR $f1af     	; 
00c950 20 52 f1      JSR $f152     	; 
00c953 20 4c e2      JSR $e24c     	; 
00c956 20 7b db      JSR $db7b     	; 
00c959 20 52 f1      JSR $f152     	; 
00c95c 20 66 ed      JSR $ed66     	; 
00c95f 20 55 d6      JSR $d655     	; 
00c962 4c 7a d6      JMP $d67a     	; 
00c965 20 af f1      JSR $f1af     	; 
00c968 20 52 f1      JSR $f152     	; 
00c96b 20 73 e2      JSR $e273     	; 
00c96e 20 45 db      JSR $db45     	; 
00c971 ad 47 07      LDA $0747     	; 
00c974 d0 03         BNE $c979     
00c976 20 82 c9      JSR $c982     	; 
00c979 20 52 f1      JSR $f152     	; 
00c97c 20 c8 e5      JSR $e5c8     	; 
00c97f 4c 7a d6      JMP $d67a     	; 
00c982 b5 16         LDA $16,X     
00c984 38            SEC      
00c985 e9 24         SBC #$24     
00c987 20 04 8e      JSR $8e04     	; 
00c98a 32 d4         AND ($d4)     
00c98c d3 d5         CMP ($d5,S),Y     
00c98e 4f d6 4f d6   EOR $d64fd6     
00c992 07 d6         ORA [$d6]     
00c994 31 d6         AND ($d6),Y     
00c996 3d d6 a9      AND $a9d6,X     
00c999 00 95         BRK $95     
00c99b 0f 95 16 95   ORA $951695     
00c99f 1e 9d 10      ASL $109d,X     
00c9a2 01 9d         ORA ($9d,X)     
00c9a4 96 07         STX $07,X     
00c9a6 9d 25 01      STA $0125,X     
00c9a9 9d c5 03      STA $03c5,X     
00c9ac 9d 8a 07      STA $078a,X     
00c9af 60            RTS      
00c9b0 bd 96 07      LDA $0796,X     
00c9b3 d0 16         BNE $c9cb     
00c9b5 20 f7 c2      JSR $c2f7     	; 
00c9b8 bd a8 07      LDA $07a8,X     
00c9bb 09 80         ORA #$80     
00c9bd 9d 34 04      STA $0434,X     
00c9c0 29 0f         AND #$0f     
00c9c2 09 06         ORA #$06     
00c9c4 9d 96 07      STA $0796,X     
00c9c7 a9 f9         LDA #$f9     
00c9c9 95 a0         STA $a0,X     
00c9cb 4c 92 bf      JMP $bf92     	; 
00c9ce 30 1c         BMI $c9ec     
00c9d0 00 e8         BRK $e8
00c9d2 00 18         BRK $18

00c9d4 08            PHP      
00c9d5 f8            SED      
00c9d6 0c f4         TSB $b5f4          ;


00c9d8 b5 1e         LDA $1e,X
00c9da 29 20         AND #$20
00c9dc f0 03         BEQ $c9e1     
00c9de 4c e5 ca      JMP $cae5     	; 
00c9e1 b5 3c         LDA $3c,X     
00c9e3 f0 2d         BEQ $ca12     
00c9e5 d6 3c         DEC $3c,X     
00c9e7 ad d1 03      LDA $03d1     	; 
00c9ea 29 0c         AND #$0c     
00c9ec d0 6a         BNE $ca58     
00c9ee bd a2 03      LDA $03a2,X     
00c9f1 d0 17         BNE $ca0a     
00c9f3 ac cc 06      LDY $06cc     	; 
00c9f6 b9 ce c9      LDA $c9ce,Y     
00c9f9 9d a2 03      STA $03a2,X     
00c9fc 20 94 ba      JSR $ba94     	; 
00c9ff 90 09         BCC $ca0a     
00ca01 b5 1e         LDA $1e,X     
00ca03 09 08         ORA #$08     
00ca05 95 1e         STA $1e,X     
00ca07 4c 58 ca      JMP $ca58     	; 
00ca0a de a2 03      DEC $03a2,X     
00ca0d 4c 58 ca      JMP $ca58     	; 
00ca10 20 37 b5      JSR $b537     	; 
00ca13 1e 29 07      ASL $0729,X     
00ca16 c9 01         CMP #$01     
00ca18 f0 3e         BEQ $ca58     
00ca1a a9 00         LDA #$00     
00ca1c 85 00         STA $00     
00ca1e a0 fa         LDY #$fa     
00ca20 b5 cf         LDA $cf,X     
00ca22 30 13         BMI $ca37     
00ca24 a0 fd         LDY #$fd     
00ca26 c9 70         CMP #$70     
00ca28 e6 00         INC $00     
00ca2a 90 0b         BCC $ca37     
00ca2c c6 00         DEC $00     
00ca2e bd a8 07      LDA $07a8,X     
00ca31 29 01         AND #$01     
00ca33 d0 02         BNE $ca37     
00ca35 a0 fa         LDY #$fa     
00ca37 94 a0         STY $a0,X     
00ca39 b5 1e         LDA $1e,X     
00ca3b 09 01         ORA #$01     
00ca3d 95 1e         STA $1e,X     
00ca3f a5 00         LDA $00     
00ca41 3d a9 07      AND $07a9,X     
00ca44 a8            TAY      
00ca45 ad cc 06      LDA $06cc     	; 
00ca48 d0 01         BNE $ca4b     
00ca4a a8            TAY      
00ca4b b9 10 ca      LDA $ca10,Y     
00ca4e 9d 8a 07      STA $078a,X     
00ca51 bd a8 07      LDA $07a8,X     
00ca54 09 c0         ORA #$c0     
00ca56 95 3c         STA $3c,X     
00ca58 a0 fc         LDY #$fc     
00ca5a a5 09         LDA $09     
00ca5c 29 40         AND #$40     
00ca5e d0 02         BNE $ca62     
00ca60 a0 04         LDY #$04     
00ca62 94 58         STY $58,X     
00ca64 a0 01         LDY #$01     
00ca66 20 43 e1      JSR $e143     	; 
00ca69 30 0a         BMI $ca75     
00ca6b c8            INY      
00ca6c bd 96 07      LDA $0796,X     
00ca6f d0 04         BNE $ca75     
00ca71 a9 f8         LDA #$f8     
00ca73 95 58         STA $58,X     
00ca75 94 46         STY $46,X     
00ca77 a0 00         LDY #$00     
00ca79 b5 1e         LDA $1e,X     
00ca7b 29 40         AND #$40     
00ca7d d0 19         BNE $ca98     
00ca7f b5 1e         LDA $1e,X     
00ca81 0a            ASL      
00ca82 b0 30         BCS $cab4     
00ca84 b5 1e         LDA $1e,X     
00ca86 29 20         AND #$20     
00ca88 d0 5b         BNE $cae5     
00ca8a b5 1e         LDA $1e,X     
00ca8c 29 07         AND #$07     
00ca8e f0 24         BEQ $cab4     
00ca90 c9 05         CMP #$05     
00ca92 f0 04         BEQ $ca98     
00ca94 c9 03         CMP #$03     
00ca96 b0 30         BCS $cac8     
00ca98 20 63 bf      JSR $bf63     	; 
00ca9b a0 00         LDY #$00     
00ca9d b5 1e         LDA $1e,X     
00ca9f c9 02         CMP #$02     
00caa1 f0 0c         BEQ $caaf     
00caa3 29 40         AND #$40     
00caa5 f0 0d         BEQ $cab4     
00caa7 b5 16         LDA $16,X     
00caa9 c9 2e         CMP #$2e     
00caab f0 07         BEQ $cab4     
00caad d0 03         BNE $cab2     
00caaf 4c 02 bf      JMP $bf02     	; 
00cab2 a0 01         LDY #$01     
00cab4 b5 58         LDA $58,X     
00cab6 48            PHA      
00cab7 10 02         BPL $cabb     
00cab9 c8            INY      
00caba c8            INY      
00cabb 18            CLC      
00cabc 79 d0 c9      ADC $c9d0,Y     
00cabf 95 58         STA $58,X     
00cac1 20 02 bf      JSR $bf02     	; 
00cac4 68            PLA      
00cac5 95 58         STA $58,X     
00cac7 60            RTS      
00cac8 bd 96 07      LDA $0796,X     
00cacb d0 1e         BNE $caeb     
00cacd 95 1e         STA $1e,X

00cacf a5 09         LDA $09     
00cad1 29 01         AND #$01     
00cad3 a8            TAY      
00cad4 c8            INY      
00cad5 94 46         STY $46,X     
00cad7 88            DEY      
00cad8 ad 6a 07      LDA $076a     	; 
00cadb f0 02         BEQ $cadf     
00cadd c8            INY      
00cade c8            INY      
00cadf b9 d4 c9      LDA $c9d4,Y     
00cae2 95 58         STA $58,X     
00cae4 60            RTS

00cae5 20 63 bf      JSR $bf63     	; 
00cae8 4c 02 bf      JMP $bf02     	; 
00caeb c9 0e         CMP #$0e     
00caed d0 09         BNE $caf8     
00caef b5 16         LDA $16,X     
00caf1 c9 06         CMP #$06     
00caf3 d0 03         BNE $caf8     
00caf5 20 98 c9      JSR $c998     	; 
00caf8 60            RTS      
00caf9 20 92 bf      JSR $bf92     	; 
00cafc 4c 02 bf      JMP $bf02     	; 
00caff b5 a0         LDA $a0,X     
00cb01 1d 34 04      ORA $0434,X     
00cb04 d0 13         BNE $cb19     
00cb06 9d 17 04      STA $0417,X     
00cb09 b5 cf         LDA $cf,X     
00cb0b dd 01 04      CMP $0401,X     
00cb0e b0 09         BCS $cb19     
00cb10 a5 09         LDA $09     
00cb12 29 07         AND #$07     
00cb14 d0 02         BNE $cb18     
00cb16 f6 cf         INC $cf,X     
00cb18 60            RTS      
00cb19 b5 cf         LDA $cf,X     
00cb1b d5 58         CMP $58,X     
00cb1d 90 03         BCC $cb22     
00cb1f 4c 75 bf      JMP $bf75     	; 
00cb22 4c 70 bf      JMP $bf70     	; 
00cb25 20 45 cb      JSR $cb45     	; 
00cb28 20 66 cb      JSR $cb66     	; 
00cb2b a0 01         LDY #$01     
00cb2d a5 09         LDA $09     
00cb2f 29 03         AND #$03     
00cb31 d0 11         BNE $cb44     
00cb33 a5 09         LDA $09     
00cb35 29 40         AND #$40     
00cb37 d0 02         BNE $cb3b     
00cb39 a0 ff         LDY #$ff     
00cb3b 84 00         STY $00     
00cb3d b5 cf         LDA $cf,X     
00cb3f 18            CLC      
00cb40 65 00         ADC $00     
00cb42 95 cf         STA $cf,X     
00cb44 60            RTS      
00cb45 a9 13         LDA #$13     
00cb47 85 01         STA $01     
00cb49 a5 09         LDA $09     
00cb4b 29 03         AND #$03     
00cb4d d0 0d         BNE $cb5c     
00cb4f b4 58         LDY $58,X     
00cb51 b5 a0         LDA $a0,X     
00cb53 4a            LSR      
00cb54 b0 0a         BCS $cb60     
00cb56 c4 01         CPY $01     
00cb58 f0 03         BEQ $cb5d     
00cb5a f6 58         INC $58,X     
00cb5c 60            RTS      
00cb5d f6 a0         INC $a0,X     
00cb5f 60            RTS      
00cb60 98            TYA      
00cb61 f0 fa         BEQ $cb5d     
00cb63 d6 58         DEC $58,X     
00cb65 60            RTS      
00cb66 b5 58         LDA $58,X     
00cb68 48            PHA      
00cb69 a0 01         LDY #$01     
00cb6b b5 a0         LDA $a0,X     
00cb6d 29 02         AND #$02     
00cb6f d0 0b         BNE $cb7c     
00cb71 b5 58         LDA $58,X     
00cb73 49 ff         EOR #$ff     
00cb75 18            CLC      
00cb76 69 01         ADC #$01     
00cb78 95 58         STA $58,X     
00cb7a a0 02         LDY #$02     
00cb7c 94 46         STY $46,X     
00cb7e 20 02 bf      JSR $bf02     	; 
00cb81 85 00         STA $00     
00cb83 68            PLA      
00cb84 95 58         STA $58,X     
00cb86 60            RTS      
00cb87 3f 03 b5 1e   AND $1eb503,X     
00cb8b 29 20         AND #$20     
00cb8d d0 4d         BNE $cbdc     
00cb8f ac cc 06      LDY $06cc     	; 
00cb92 bd a8 07      LDA $07a8,X     
00cb95 39 87 cb      AND $cb87,Y     
00cb98 d0 12         BNE $cbac     
00cb9a 8a            TXA      
00cb9b 4a            LSR      
00cb9c 90 04         BCC $cba2     
00cb9e a4 45         LDY $45     
00cba0 b0 08         BCS $cbaa     
00cba2 a0 02         LDY #$02     
00cba4 20 43 e1      JSR $e143     	; 
00cba7 10 01         BPL $cbaa     
00cba9 88            DEY      
00cbaa 94 46         STY $46,X     
00cbac 20 df cb      JSR $cbdf     	; 
00cbaf b5 cf         LDA $cf,X     
00cbb1 38            SEC      
00cbb2 fd 34 04      SBC $0434,X     
00cbb5 c9 20         CMP #$20     
00cbb7 90 02         BCC $cbbb     
00cbb9 95 cf         STA $cf,X     
00cbbb b4 46         LDY $46,X     
00cbbd 88            DEY      
00cbbe d0 0e         BNE $cbce     
00cbc0 b5 87         LDA $87,X     
00cbc2 18            CLC      
00cbc3 75 58         ADC $58,X     
00cbc5 95 87         STA $87,X     
00cbc7 b5 6e         LDA $6e,X     
00cbc9 69 00         ADC #$00     
00cbcb 95 6e         STA $6e,X     
00cbcd 60            RTS      
00cbce b5 87         LDA $87,X     
00cbd0 38            SEC      
00cbd1 f5 58         SBC $58,X     
00cbd3 95 87         STA $87,X     
00cbd5 b5 6e         LDA $6e,X     
00cbd7 e9 00         SBC #$00     
00cbd9 95 6e         STA $6e,X     
00cbdb 60            RTS      
00cbdc 4c 8c bf      JMP $bf8c     	; 
00cbdf b5 a0         LDA $a0,X     
00cbe1 29 02         AND #$02     
00cbe3 d0 37         BNE $cc1c     
00cbe5 a5 09         LDA $09     
00cbe7 29 07         AND #$07     
00cbe9 48            PHA      
00cbea b5 a0         LDA $a0,X     
00cbec 4a            LSR      
00cbed b0 15         BCS $cc04     
00cbef 68            PLA      
00cbf0 d0 11         BNE $cc03     
00cbf2 bd 34 04      LDA $0434,X     
00cbf5 18            CLC      
00cbf6 69 01         ADC #$01     
00cbf8 9d 34 04      STA $0434,X     
00cbfb 95 58         STA $58,X     
00cbfd c9 02         CMP #$02     
00cbff d0 02         BNE $cc03     
00cc01 f6 a0         INC $a0,X     
00cc03 60            RTS      
00cc04 68            PLA      
00cc05 d0 14         BNE $cc1b     
00cc07 bd 34 04      LDA $0434,X     
00cc0a 38            SEC      
00cc0b e9 01         SBC #$01     
00cc0d 9d 34 04      STA $0434,X     
00cc10 95 58         STA $58,X     
00cc12 d0 07         BNE $cc1b     
00cc14 f6 a0         INC $a0,X     
00cc16 a9 02         LDA #$02     
00cc18 9d 96 07      STA $0796,X     
00cc1b 60            RTS      
00cc1c bd 96 07      LDA $0796,X     
00cc1f f0 08         BEQ $cc29     
00cc21 a5 09         LDA $09     
00cc23 4a            LSR      
00cc24 b0 02         BCS $cc28     
00cc26 f6 cf         INC $cf,X     
00cc28 60            RTS      
00cc29 b5 cf         LDA $cf,X     
00cc2b 69 10         ADC #$10     
00cc2d c5 ce         CMP $ce     
00cc2f 90 f0         BCC $cc21     
00cc31 a9 00         LDA #$00     
00cc33 95 a0         STA $a0,X     
00cc35 60            RTS      
00cc36 b5 1e         LDA $1e,X     
00cc38 29 20         AND #$20     
00cc3a f0 03         BEQ $cc3f     
00cc3c 4c 92 bf      JMP $bf92     	; 
00cc3f a9 e8         LDA #$e8     
00cc41 95 58         STA $58,X     
00cc43 4c 02 bf      JMP $bf02     	; 
00cc46 40            RTI      
00cc47 80 04         BRA $cc4d     
00cc49 04 b5         TSB $b5     
00cc4b 1e 29 20      ASL $2029,X     
00cc4e f0 03         BEQ $cc53     
00cc50 4c 8c bf      JMP $bf8c     	; 
00cc53 85 03         STA $03     
00cc55 b5 16         LDA $16,X     
00cc57 38            SEC      
00cc58 e9 0a         SBC #$0a     
00cc5a a8            TAY      
00cc5b b9 46 cc      LDA $cc46,Y     
00cc5e 85 02         STA $02     
00cc60 bd 01 04      LDA $0401,X     
00cc63 38            SEC      
00cc64 e5 02         SBC $02     
00cc66 9d 01 04      STA $0401,X     
00cc69 b5 87         LDA $87,X     
00cc6b e9 00         SBC #$00     
00cc6d 95 87         STA $87,X     
00cc6f b5 6e         LDA $6e,X     
00cc71 e9 00         SBC #$00     
00cc73 95 6e         STA $6e,X     
00cc75 a9 20         LDA #$20     
00cc77 85 02         STA $02     
00cc79 e0 02         CPX #$02     
00cc7b 90 49         BCC $ccc6     
00cc7d b5 58         LDA $58,X     
00cc7f c9 10         CMP #$10     
00cc81 90 16         BCC $cc99     
00cc83 bd 17 04      LDA $0417,X     
00cc86 18            CLC      
00cc87 65 02         ADC $02     
00cc89 9d 17 04      STA $0417,X     
00cc8c b5 cf         LDA $cf,X     
00cc8e 65 03         ADC $03     
00cc90 95 cf         STA $cf,X     
00cc92 b5 b6         LDA $b6,X     
00cc94 69 00         ADC #$00     
00cc96 4c ac cc      JMP $ccac     	; 
00cc99 bd 17 04      LDA $0417,X     
00cc9c 38            SEC      
00cc9d e5 02         SBC $02     
00cc9f 9d 17 04      STA $0417,X     
00cca2 b5 cf         LDA $cf,X     
00cca4 e5 03         SBC $03     
00cca6 95 cf         STA $cf,X     
00cca8 b5 b6         LDA $b6,X     
00ccaa e9 00         SBC #$00     
00ccac 95 b6         STA $b6,X     
00ccae a0 00         LDY #$00     
00ccb0 b5 cf         LDA $cf,X     
00ccb2 38            SEC      
00ccb3 fd 34 04      SBC $0434,X     
00ccb6 10 07         BPL $ccbf     
00ccb8 a0 10         LDY #$10     
00ccba 49 ff         EOR #$ff     
00ccbc 18            CLC      
00ccbd 69 01         ADC #$01     
00ccbf c9 0f         CMP #$0f     
00ccc1 90 03         BCC $ccc6     
00ccc3 98            TYA      
00ccc4 95 58         STA $58,X     
00ccc6 60            RTS      
00ccc7 00 01         BRK $01     
00ccc9 03 04         ORA $4,S     
00cccb 05 06         ORA $06     
00cccd 07 07         ORA [$07]     
00cccf 08            PHP      
00ccd0 00 03         BRK $03     
00ccd2 06 09         ASL $09     
00ccd4 0b            PHD      
00ccd5 0d 0e 0f      ORA $0f0e     	; 
00ccd8 10 00         BPL $ccda     
00ccda 04 09         TSB $09     
00ccdc 0d 10 13      ORA $1310     	; 
00ccdf 16 17         ASL $17,X     
00cce1 18            CLC      
00cce2 00 06         BRK $06     
00cce4 0c 12 16      TSB $1612     	; 
00cce7 1a            INC      
00cce8 1d 1f 20      ORA $201f,X     
00cceb 00 07         BRK $07     
00cced 0f 16 1c 21   ORA $211c16     
00ccf1 25 27         AND $27     
00ccf3 28            PLP      
00ccf4 00 09         BRK $09     
00ccf6 12 1b         ORA ($1b)     
00ccf8 21 27         AND ($27,X)     
00ccfa 2c 2f 30      BIT $302f     	; 
00ccfd 00 0b         BRK $0b     
00ccff 15 1f         ORA $1f,X     
00cd01 27 2e         AND [$2e]     
00cd03 33 37         AND ($37,S),Y     
00cd05 38            SEC      
00cd06 00 0c         BRK $0c     
00cd08 18            CLC      
00cd09 24 2d         BIT $2d     
00cd0b 35 3b         AND $3b,X     
00cd0d 3e 40 00      ROL $0040,X     
00cd10 0e 1b 28      ASL $281b     	; 
00cd13 32 3b         AND ($3b)     
00cd15 42 46         WDM $46     
00cd17 48            PHA      
00cd18 00 0f         BRK $0f     
00cd1a 1f 2d 38 42   ORA $42382d,X     
00cd1e 4a            LSR      
00cd1f 4e 50 00      LSR $0050     
00cd22 11 22         ORA ($22),Y     
00cd24 31 3e         AND ($3e),Y     
00cd26 49 51         EOR #$51     
00cd28 56 58         LSR $58,X     
00cd2a 01 03         ORA ($03,X)     
00cd2c 02 00         COP $00     
00cd2e 00 09         BRK $09     
00cd30 12 1b         ORA ($1b)     
00cd32 24 2d         BIT $2d     
00cd34 36 3f         ROL $3f,X     
00cd36 48            PHA      
00cd37 51 5a         EOR ($5a),Y     
00cd39 63 0c         ADC $c,S     
00cd3b 18            CLC      
00cd3c 20 af f1      JSR $f1af     	; 
00cd3f ad d1 03      LDA $03d1     	; 
00cd42 29 08         AND #$08     
00cd44 d0 74         BNE $cdba     
00cd46 ad 47 07      LDA $0747     	; 
00cd49 d0 0a         BNE $cd55     
00cd4b bd 88 03      LDA $0388,X     
00cd4e 20 10 d4      JSR $d410     	; 
00cd51 29 1f         AND #$1f     
00cd53 95 a0         STA $a0,X     
00cd55 b5 a0         LDA $a0,X     
00cd57 b4 16         LDY $16,X     
00cd59 c0 1f         CPY #$1f     
00cd5b 90 0d         BCC $cd6a     
00cd5d c9 08         CMP #$08     
00cd5f f0 04         BEQ $cd65     
00cd61 c9 18         CMP #$18     
00cd63 d0 05         BNE $cd6a     
00cd65 18            CLC      
00cd66 69 01         ADC #$01     
00cd68 95 a0         STA $a0,X     
00cd6a 85 ef         STA $ef     
00cd6c 20 52 f1      JSR $f152     	; 
00cd6f 20 8e ce      JSR $ce8e     	; 
00cd72 bc e5 06      LDY $06e5,X     
00cd75 ad b9 03      LDA $03b9     	; 
00cd78 99 00 02      STA $0200,Y     
00cd7b 85 07         STA $07     
00cd7d ad ae 03      LDA $03ae     	; 
00cd80 99 03 02      STA $0203,Y     
00cd83 85 06         STA $06     
00cd85 a9 01         LDA #$01     
00cd87 85 00         STA $00     
00cd89 20 08 ce      JSR $ce08     	; 
00cd8c a0 05         LDY #$05     
00cd8e b5 16         LDA $16,X     
00cd90 c9 1f         CMP #$1f     
00cd92 90 02         BCC $cd96     
00cd94 a0 0b         LDY #$0b     
00cd96 84 ed         STY $ed     
00cd98 a9 00         LDA #$00     
00cd9a 85 00         STA $00     
00cd9c a5 ef         LDA $ef     
00cd9e 20 8e ce      JSR $ce8e     	; 
00cda1 20 bb cd      JSR $cdbb     	; 
00cda4 a5 00         LDA $00     
00cda6 c9 04         CMP #$04     
00cda8 d0 08         BNE $cdb2     
00cdaa ac cf 06      LDY $06cf     	; 
00cdad b9 e5 06      LDA $06e5,Y     
00cdb0 85 06         STA $06     
00cdb2 e6 00         INC $00     
00cdb4 a5 00         LDA $00     
00cdb6 c5 ed         CMP $ed     
00cdb8 90 e2         BCC $cd9c     
00cdba 60            RTS      
00cdbb a5 03         LDA $03     
00cdbd 85 05         STA $05     
00cdbf a4 06         LDY $06     
00cdc1 a5 01         LDA $01     
00cdc3 46 05         LSR $05     
00cdc5 b0 04         BCS $cdcb     
00cdc7 49 ff         EOR #$ff     
00cdc9 69 01         ADC #$01     
00cdcb 18            CLC      
00cdcc 6d ae 03      ADC $03ae     	; 
00cdcf 99 03 02      STA $0203,Y     
00cdd2 85 06         STA $06     
00cdd4 cd ae 03      CMP $03ae     	; 
00cdd7 b0 09         BCS $cde2     
00cdd9 ad ae 03      LDA $03ae     	; 
00cddc 38            SEC      
00cddd e5 06         SBC $06     
00cddf 4c e6 cd      JMP $cde6     	; 
00cde2 38            SEC      
00cde3 ed ae 03      SBC $03ae     	; 
00cde6 c9 59         CMP #$59     
00cde8 90 04         BCC $cdee     
00cdea a9 f8         LDA #$f8     
00cdec d0 15         BNE $ce03     
00cdee ad b9 03      LDA $03b9     	; 
00cdf1 c9 f8         CMP #$f8     
00cdf3 f0 0e         BEQ $ce03     
00cdf5 a5 02         LDA $02     
00cdf7 46 05         LSR $05     
00cdf9 b0 04         BCS $cdff     
00cdfb 49 ff         EOR #$ff     
00cdfd 69 01         ADC #$01     
00cdff 18            CLC      
00ce00 6d b9 03      ADC $03b9     	; 
00ce03 99 00 02      STA $0200,Y     
00ce06 85 07         STA $07     
00ce08 20 ed ec      JSR $eced     	; 
00ce0b 98            TYA      
00ce0c 48            PHA      
00ce0d ad 9f 07      LDA $079f     	; 
00ce10 0d 47 07      ORA $0747     	; 
00ce13 d0 70         BNE $ce85     
00ce15 85 05         STA $05     
00ce17 a4 b5         LDY $b5     
00ce19 88            DEY      
00ce1a d0 69         BNE $ce85     
00ce1c a4 ce         LDY $ce     
00ce1e ad 54 07      LDA $0754     	; 
00ce21 d0 05         BNE $ce28     
00ce23 ad 14 07      LDA $0714     	; 
00ce26 f0 09         BEQ $ce31     
00ce28 e6 05         INC $05     
00ce2a e6 05         INC $05     
00ce2c 98            TYA      
00ce2d 18            CLC      
00ce2e 69 18         ADC #$18     
00ce30 a8            TAY      
00ce31 98            TYA      
00ce32 38            SEC      
00ce33 e5 07         SBC $07     
00ce35 10 05         BPL $ce3c     
00ce37 49 ff         EOR #$ff     
00ce39 18            CLC      
00ce3a 69 01         ADC #$01     
00ce3c c9 08         CMP #$08     
00ce3e b0 1c         BCS $ce5c     
00ce40 a5 06         LDA $06     
00ce42 c9 f0         CMP #$f0     
00ce44 b0 16         BCS $ce5c     
00ce46 ad 07 02      LDA $0207     	; 
00ce49 18            CLC      
00ce4a 69 04         ADC #$04     
00ce4c 85 04         STA $04     
00ce4e 38            SEC      
00ce4f e5 06         SBC $06     
00ce51 10 05         BPL $ce58     
00ce53 49 ff         EOR #$ff     
00ce55 18            CLC      
00ce56 69 01         ADC #$01     
00ce58 c9 08         CMP #$08     
00ce5a 90 13         BCC $ce6f     
00ce5c a5 05         LDA $05     
00ce5e c9 02         CMP #$02     
00ce60 f0 23         BEQ $ce85     
00ce62 a4 05         LDY $05     
00ce64 a5 ce         LDA $ce     
00ce66 18            CLC      
00ce67 79 3a cd      ADC $cd3a,Y     
00ce6a e6 05         INC $05     
00ce6c 4c 32 ce      JMP $ce32     	; 
00ce6f a2 01         LDX #$01     
00ce71 a5 04         LDA $04     
00ce73 c5 06         CMP $06     
00ce75 b0 01         BCS $ce78     
00ce77 e8            INX      
00ce78 86 46         STX $46     
00ce7a a2 00         LDX #$00     
00ce7c a5 00         LDA $00     
00ce7e 48            PHA      
00ce7f 20 2c d9      JSR $d92c     	; 
00ce82 68            PLA      
00ce83 85 00         STA $00     
00ce85 68            PLA      
00ce86 18            CLC      
00ce87 69 04         ADC #$04     
00ce89 85 06         STA $06     
00ce8b a6 08         LDX $08     
00ce8d 60            RTS      
00ce8e 48            PHA      
00ce8f 29 0f         AND #$0f     
00ce91 c9 09         CMP #$09     
00ce93 90 05         BCC $ce9a     
00ce95 49 0f         EOR #$0f     
00ce97 18            CLC      
00ce98 69 01         ADC #$01     
00ce9a 85 01         STA $01     
00ce9c a4 00         LDY $00     
00ce9e b9 2e cd      LDA $cd2e,Y     
00cea1 18            CLC      
00cea2 65 01         ADC $01     
00cea4 a8            TAY      
00cea5 b9 c7 cc      LDA $ccc7,Y     
00cea8 85 01         STA $01     
00ceaa 68            PLA      
00ceab 48            PHA      
00ceac 18            CLC      
00cead 69 08         ADC #$08     
00ceaf 29 0f         AND #$0f     
00ceb1 c9 09         CMP #$09     
00ceb3 90 05         BCC $ceba     
00ceb5 49 0f         EOR #$0f     
00ceb7 18            CLC      
00ceb8 69 01         ADC #$01     
00ceba 85 02         STA $02     
00cebc a4 00         LDY $00     
00cebe b9 2e cd      LDA $cd2e,Y     
00cec1 18            CLC      
00cec2 65 02         ADC $02     
00cec4 a8            TAY      
00cec5 b9 c7 cc      LDA $ccc7,Y     
00cec8 85 02         STA $02     
00ceca 68            PLA      
00cecb 4a            LSR      
00cecc 4a            LSR      
00cecd 4a            LSR      
00cece a8            TAY      
00cecf b9 2a cd      LDA $cd2a,Y     
00ced2 85 03         STA $03     
00ced4 60            RTS      
00ced5 f8            SED      
00ced6 a0 70         LDY #$70     
00ced8 bd 00 20      LDA $2000,X     
00cedb 20 20 00      JSR $0020     
00cede 00 b5         BRK $b5     
00cee0 1e 29 20      ASL $2029,X     
00cee3 f0 08         BEQ $ceed     
00cee5 a9 00         LDA #$00     
00cee7 9d c5 03      STA $03c5,X     
00ceea 4c 92 bf      JMP $bf92     	; 
00ceed 20 02 bf      JSR $bf02     	; 
00cef0 a0 0d         LDY #$0d     
00cef2 a9 05         LDA #$05     
00cef4 20 96 bf      JSR $bf96     	; 
00cef7 bd 34 04      LDA $0434,X     
00cefa 4a            LSR      
00cefb 4a            LSR      
00cefc 4a            LSR      
00cefd 4a            LSR      
00cefe a8            TAY      
00ceff b5 cf         LDA $cf,X     
00cf01 38            SEC      
00cf02 f9 d5 ce      SBC $ced5,Y     
00cf05 10 05         BPL $cf0c     
00cf07 49 ff         EOR #$ff     
00cf09 18            CLC      
00cf0a 69 01         ADC #$01     
00cf0c c9 08         CMP #$08     
00cf0e b0 0e         BCS $cf1e     
00cf10 bd 34 04      LDA $0434,X     
00cf13 18            CLC      
00cf14 69 10         ADC #$10     
00cf16 9d 34 04      STA $0434,X     
00cf19 4a            LSR      
00cf1a 4a            LSR      
00cf1b 4a            LSR      
00cf1c 4a            LSR      
00cf1d a8            TAY      
00cf1e b9 da ce      LDA $ceda,Y     
00cf21 9d c5 03      STA $03c5,X     
00cf24 60            RTS      
00cf25 15 30         ORA $30,X     
00cf27 40            RTI      
00cf28 b5 1e         LDA $1e,X     
00cf2a 29 20         AND #$20     
00cf2c f0 03         BEQ $cf31     
00cf2e 4c 63 bf      JMP $bf63     	; 
00cf31 b5 1e         LDA $1e,X     
00cf33 f0 0b         BEQ $cf40     
00cf35 a9 00         LDA #$00     
00cf37 95 a0         STA $a0,X     
00cf39 8d cb 06      STA $06cb     	; 
00cf3c a9 10         LDA #$10     
00cf3e d0 13         BNE $cf53     
00cf40 a9 12         LDA #$12     
00cf42 8d cb 06      STA $06cb     	; 
00cf45 a0 02         LDY #$02     
00cf47 b9 25 cf      LDA $cf25,Y     
00cf4a 99 01 00      STA $0001,Y     
00cf4d 88            DEY      
00cf4e 10 f7         BPL $cf47     
00cf50 20 6c cf      JSR $cf6c     	; 
00cf53 95 58         STA $58,X     
00cf55 a0 01         LDY #$01     
00cf57 b5 a0         LDA $a0,X     
00cf59 29 01         AND #$01     
00cf5b d0 0a         BNE $cf67     
00cf5d b5 58         LDA $58,X     
00cf5f 49 ff         EOR #$ff     
00cf61 18            CLC      
00cf62 69 01         ADC #$01     
00cf64 95 58         STA $58,X     
00cf66 c8            INY      
00cf67 94 46         STY $46,X     
00cf69 4c 02 bf      JMP $bf02     	; 
00cf6c a0 00         LDY #$00     
00cf6e 20 43 e1      JSR $e143     	; 
00cf71 10 0a         BPL $cf7d     
00cf73 c8            INY      
00cf74 a5 00         LDA $00     
00cf76 49 ff         EOR #$ff     
00cf78 18            CLC      
00cf79 69 01         ADC #$01     
00cf7b 85 00         STA $00     
00cf7d a5 00         LDA $00     
00cf7f c9 3c         CMP #$3c     
00cf81 90 1c         BCC $cf9f     
00cf83 a9 3c         LDA #$3c     
00cf85 85 00         STA $00     
00cf87 b5 16         LDA $16,X     
00cf89 c9 11         CMP #$11     
00cf8b d0 12         BNE $cf9f     
00cf8d 98            TYA      
00cf8e d5 a0         CMP $a0,X     
00cf90 f0 0d         BEQ $cf9f     
00cf92 b5 a0         LDA $a0,X     
00cf94 f0 06         BEQ $cf9c     
00cf96 d6 58         DEC $58,X     
00cf98 b5 58         LDA $58,X     
00cf9a d0 40         BNE $cfdc     
00cf9c 98            TYA      
00cf9d 95 a0         STA $a0,X     
00cf9f a5 00         LDA $00     
00cfa1 29 3c         AND #$3c     
00cfa3 4a            LSR      
00cfa4 4a            LSR      
00cfa5 85 00         STA $00     
00cfa7 a0 00         LDY #$00     
00cfa9 a5 57         LDA $57     
00cfab f0 24         BEQ $cfd1     
00cfad ad 75 07      LDA $0775     	; 
00cfb0 f0 1f         BEQ $cfd1     
00cfb2 c8            INY      
00cfb3 a5 57         LDA $57     
00cfb5 c9 19         CMP #$19     
00cfb7 90 08         BCC $cfc1     
00cfb9 ad 75 07      LDA $0775     	; 
00cfbc c9 02         CMP #$02     
00cfbe 90 01         BCC $cfc1     
00cfc0 c8            INY      
00cfc1 b5 16         LDA $16,X     
00cfc3 c9 12         CMP #$12     
00cfc5 d0 04         BNE $cfcb     
00cfc7 a5 57         LDA $57     
00cfc9 d0 06         BNE $cfd1     
00cfcb b5 a0         LDA $a0,X     
00cfcd d0 02         BNE $cfd1     
00cfcf a0 00         LDY #$00     
00cfd1 b9 01 00      LDA $0001,Y     
00cfd4 a4 00         LDY $00     
00cfd6 38            SEC      
00cfd7 e9 01         SBC #$01     
00cfd9 88            DEY      
00cfda 10 fa         BPL $cfd6     
00cfdc 60            RTS      
00cfdd 1a            INC      
00cfde 58            CLI      
00cfdf 98            TYA      
00cfe0 96 94         STX $94,X     
00cfe2 92 90         STA ($90)     
00cfe4 8e 8c 8a      STX $8a8c     	; 
00cfe7 88            DEY      
00cfe8 86 84         STX $84     
00cfea 82 80 ae      BRL $007e6d     
00cfed 68            PLA      
00cfee 03 b5         ORA $b5,S     
00cff0 16 c9         ASL $c9,X     
00cff2 2d d0 10      AND $10d0     	; 
00cff5 86 08         STX $08     
00cff7 b5 1e         LDA $1e,X     
00cff9 f0 1a         BEQ $d015     
00cffb 29 40         AND #$40     
00cffd f0 06         BEQ $d005     
00cfff b5 cf         LDA $cf,X     
00d001 c9 e0         CMP #$e0     
00d003 90 0a         BCC $d00f     
00d005 a9 80         LDA #$80     
00d007 85 fc         STA $fc     
00d009 ee 72 07      INC $0772     	; 
00d00c 4c 71 d0      JMP $d071     	; 
00d00f 20 8c bf      JSR $bf8c     	; 
00d012 4c 7b d1      JMP $d17b     	; 
00d015 ce 64 03      DEC $0364     	; 
00d018 d0 44         BNE $d05e     
00d01a a9 04         LDA #$04     
00d01c 8d 64 03      STA $0364     	; 
00d01f ad 63 03      LDA $0363     	; 
00d022 49 01         EOR #$01     
00d024 8d 63 03      STA $0363     	; 
00d027 a9 22         LDA #$22     
00d029 85 05         STA $05     
00d02b ac 69 03      LDY $0369     	; 
00d02e b9 dd cf      LDA $cfdd,Y     
00d031 85 04         STA $04     
00d033 ac 00 03      LDY $0300     	; 
00d036 c8            INY      
00d037 a2 0c         LDX #$0c     
00d039 20 cd 8a      JSR $8acd     	; 
00d03c a6 08         LDX $08     
00d03e 20 8f 8a      JSR $8a8f     	; 
00d041 a9 08         LDA #$08     
00d043 85 fe         STA $fe     
00d045 a9 01         LDA #$01     
00d047 85 fd         STA $fd     
00d049 ee 69 03      INC $0369     	; 
00d04c ad 69 03      LDA $0369     	; 
00d04f c9 0f         CMP #$0f     
00d051 d0 0b         BNE $d05e     
00d053 20 63 c3      JSR $c363     	; 
00d056 a9 40         LDA #$40     
00d058 95 1e         STA $1e,X     
00d05a a9 80         LDA #$80     
00d05c 85 fe         STA $fe     
00d05e 4c 7b d1      JMP $d17b     	; 
00d061 21 41         AND ($41,X)     
00d063 11 31         ORA ($31),Y     
00d065 b5 1e         LDA $1e,X     
00d067 29 20         AND #$20     
00d069 f0 14         BEQ $d07f     
00d06b b5 cf         LDA $cf,X     
00d06d c9 e0         CMP #$e0     
00d06f 90 9e         BCC $d00f     
00d071 a2 04         LDX #$04     
00d073 20 98 c9      JSR $c998     	; 
00d076 ca            DEX      
00d077 10 fa         BPL $d073     
00d079 8d cb 06      STA $06cb     	; 
00d07c a6 08         LDX $08     
00d07e 60            RTS      
00d07f a9 00         LDA #$00     
00d081 8d cb 06      STA $06cb     	; 
00d084 ad 47 07      LDA $0747     	; 
00d087 f0 03         BEQ $d08c     
00d089 4c 39 d1      JMP $d139     	; 
00d08c ad 63 03      LDA $0363     	; 
00d08f 10 03         BPL $d094     
00d091 4c 0f d1      JMP $d10f     	; 
00d094 ce 64 03      DEC $0364     	; 
00d097 d0 0d         BNE $d0a6     
00d099 a9 20         LDA #$20     
00d09b 8d 64 03      STA $0364     	; 
00d09e ad 63 03      LDA $0363     	; 
00d0a1 49 01         EOR #$01     
00d0a3 8d 63 03      STA $0363     	; 
00d0a6 a5 09         LDA $09     
00d0a8 29 0f         AND #$0f     
00d0aa d0 04         BNE $d0b0     
00d0ac a9 02         LDA #$02     
00d0ae 95 46         STA $46,X     
00d0b0 bd 8a 07      LDA $078a,X     
00d0b3 f0 1c         BEQ $d0d1     
00d0b5 20 43 e1      JSR $e143     	; 
00d0b8 10 17         BPL $d0d1     
00d0ba a9 01         LDA #$01     
00d0bc 95 46         STA $46,X     
00d0be a9 02         LDA #$02     
00d0c0 8d 65 03      STA $0365     	; 
00d0c3 a9 20         LDA #$20     
00d0c5 9d 8a 07      STA $078a,X     
00d0c8 8d 90 07      STA $0790     	; 
00d0cb b5 87         LDA $87,X     
00d0cd c9 c8         CMP #$c8     
00d0cf b0 3e         BCS $d10f     
00d0d1 a5 09         LDA $09     
00d0d3 29 03         AND #$03     
00d0d5 d0 38         BNE $d10f     
00d0d7 b5 87         LDA $87,X     
00d0d9 cd 66 03      CMP $0366     	; 
00d0dc d0 0c         BNE $d0ea     
00d0de bd a7 07      LDA $07a7,X     
00d0e1 29 03         AND #$03     
00d0e3 a8            TAY      
00d0e4 b9 61 d0      LDA $d061,Y     
00d0e7 8d dc 06      STA $06dc     	; 
00d0ea b5 87         LDA $87,X     
00d0ec 18            CLC      
00d0ed 6d 65 03      ADC $0365     	; 
00d0f0 95 87         STA $87,X     
00d0f2 b4 46         LDY $46,X     
00d0f4 c0 01         CPY #$01     
00d0f6 f0 17         BEQ $d10f     
00d0f8 a0 ff         LDY #$ff     
00d0fa 38            SEC      
00d0fb ed 66 03      SBC $0366     	; 
00d0fe 10 07         BPL $d107     
00d100 49 ff         EOR #$ff     
00d102 18            CLC      
00d103 69 01         ADC #$01     
00d105 a0 01         LDY #$01     
00d107 cd dc 06      CMP $06dc     	; 
00d10a 90 03         BCC $d10f     
00d10c 8c 65 03      STY $0365     	; 
00d10f bd 8a 07      LDA $078a,X     
00d112 d0 28         BNE $d13c     
00d114 20 8c bf      JSR $bf8c     	; 
00d117 ad 5f 07      LDA $075f     	; 
00d11a c9 05         CMP #$05     
00d11c 90 09         BCC $d127     
00d11e a5 09         LDA $09     
00d120 29 03         AND #$03     
00d122 d0 03         BNE $d127     
00d124 20 94 ba      JSR $ba94     	; 
00d127 b5 cf         LDA $cf,X     
00d129 c9 80         CMP #$80     
00d12b 90 1c         BCC $d149     
00d12d bd a7 07      LDA $07a7,X     
00d130 29 03         AND #$03     
00d132 a8            TAY      
00d133 b9 61 d0      LDA $d061,Y     
00d136 9d 8a 07      STA $078a,X     
00d139 4c 49 d1      JMP $d149     	; 
00d13c c9 01         CMP #$01     
00d13e d0 09         BNE $d149     
00d140 d6 cf         DEC $cf,X     
00d142 20 63 c3      JSR $c363     	; 
00d145 a9 fe         LDA #$fe     
00d147 95 a0         STA $a0,X     
00d149 ad 5f 07      LDA $075f     	; 
00d14c c9 07         CMP #$07     
00d14e f0 04         BEQ $d154     
00d150 c9 05         CMP #$05     
00d152 b0 27         BCS $d17b     
00d154 ad 90 07      LDA $0790     	; 
00d157 d0 22         BNE $d17b     
00d159 a9 20         LDA #$20     
00d15b 8d 90 07      STA $0790     	; 
00d15e ad 63 03      LDA $0363     	; 
00d161 49 80         EOR #$80     
00d163 8d 63 03      STA $0363     	; 
00d166 30 e1         BMI $d149     
00d168 20 d9 d1      JSR $d1d9     	; 
00d16b ac cc 06      LDY $06cc     	; 
00d16e f0 03         BEQ $d173     
00d170 38            SEC      
00d171 e9 10         SBC #$10     
00d173 8d 90 07      STA $0790     	; 
00d176 a9 15         LDA #$15     
00d178 8d cb 06      STA $06cb     	; 
00d17b 20 bc d1      JSR $d1bc     	; 
00d17e a0 10         LDY #$10     
00d180 b5 46         LDA $46,X     
00d182 4a            LSR      
00d183 90 02         BCC $d187     
00d185 a0 f0         LDY #$f0     
00d187 98            TYA      
00d188 18            CLC      
00d189 75 87         ADC $87,X     
00d18b ac cf 06      LDY $06cf     	; 
00d18e 99 87 00      STA $0087,Y     
00d191 b5 cf         LDA $cf,X     
00d193 18            CLC      
00d194 69 08         ADC #$08     
00d196 99 cf 00      STA $00cf,Y     
00d199 b5 1e         LDA $1e,X     
00d19b 99 1e 00      STA $001e,Y     
00d19e b5 46         LDA $46,X     
00d1a0 99 46 00      STA $0046,Y     
00d1a3 a5 08         LDA $08     
00d1a5 48            PHA      
00d1a6 ae cf 06      LDX $06cf     	; 
00d1a9 86 08         STX $08     
00d1ab a9 2d         LDA #$2d     
00d1ad 95 16         STA $16,X     
00d1af 20 bc d1      JSR $d1bc     	; 
00d1b2 68            PLA      
00d1b3 85 08         STA $08     
00d1b5 aa            TAX      
00d1b6 a9 00         LDA #$00     
00d1b8 8d 6a 03      STA $036a     	; 
00d1bb 60            RTS      
00d1bc ee 6a 03      INC $036a     	; 
00d1bf 20 d7 c8      JSR $c8d7     	; 
00d1c2 b5 1e         LDA $1e,X     
00d1c4 d0 f5         BNE $d1bb     
00d1c6 a9 0a         LDA #$0a     
00d1c8 9d 9a 04      STA $049a,X     
00d1cb 20 43 e2      JSR $e243     	; 
00d1ce 4c 53 d8      JMP $d853     	; 
00d1d1 bf 40 bf bf   LDA $bfbf40,X     
00d1d5 bf 40 40 bf   LDA $bf4040,X     
00d1d9 ac 67 03      LDY $0367     	; 
00d1dc ee 67 03      INC $0367     	; 
00d1df ad 67 03      LDA $0367     	; 
00d1e2 29 07         AND #$07     
00d1e4 8d 67 03      STA $0367     	; 
00d1e7 b9 d1 d1      LDA $d1d1,Y     
00d1ea 60            RTS      
00d1eb ad 47 07      LDA $0747     	; 
00d1ee d0 30         BNE $d220     
00d1f0 a9 40         LDA #$40     
00d1f2 ac cc 06      LDY $06cc     	; 
00d1f5 f0 02         BEQ $d1f9     
00d1f7 a9 60         LDA #$60     
00d1f9 85 00         STA $00     
00d1fb bd 01 04      LDA $0401,X     
00d1fe 38            SEC      
00d1ff e5 00         SBC $00     
00d201 9d 01 04      STA $0401,X     
00d204 b5 87         LDA $87,X     
00d206 e9 01         SBC #$01     
00d208 95 87         STA $87,X     
00d20a b5 6e         LDA $6e,X     
00d20c e9 00         SBC #$00     
00d20e 95 6e         STA $6e,X     
00d210 bc 17 04      LDY $0417,X     
00d213 b5 cf         LDA $cf,X     
00d215 d9 9d c5      CMP $c59d,Y     
00d218 f0 06         BEQ $d220     
00d21a 18            CLC      
00d21b 7d 34 04      ADC $0434,X     
00d21e 95 cf         STA $cf,X     
00d220 20 52 f1      JSR $f152     	; 
00d223 b5 1e         LDA $1e,X     
00d225 d0 c3         BNE $d1ea     
00d227 a9 51         LDA #$51     
00d229 85 00         STA $00     
00d22b a0 02         LDY #$02     
00d22d a5 09         LDA $09     
00d22f 29 02         AND #$02     
00d231 f0 02         BEQ $d235     
00d233 a0 82         LDY #$82     
00d235 84 01         STY $01     
00d237 bc e5 06      LDY $06e5,X     
00d23a a2 00         LDX #$00     
00d23c ad b9 03      LDA $03b9     	; 
00d23f 99 00 02      STA $0200,Y     
00d242 a5 00         LDA $00     
00d244 99 01 02      STA $0201,Y     
00d247 e6 00         INC $00     
00d249 a5 01         LDA $01     
00d24b 99 02 02      STA $0202,Y     
00d24e ad ae 03      LDA $03ae     	; 
00d251 99 03 02      STA $0203,Y     
00d254 18            CLC      
00d255 69 08         ADC #$08     
00d257 8d ae 03      STA $03ae     	; 
00d25a c8            INY      
00d25b c8            INY      
00d25c c8            INY      
00d25d c8            INY      
00d25e e8            INX      
00d25f e0 03         CPX #$03     
00d261 90 d9         BCC $d23c     
00d263 a6 08         LDX $08     
00d265 20 af f1      JSR $f1af     	; 
00d268 bc e5 06      LDY $06e5,X     
00d26b ad d1 03      LDA $03d1     	; 
00d26e 4a            LSR      
00d26f 48            PHA      
00d270 90 05         BCC $d277     
00d272 a9 f8         LDA #$f8     
00d274 99 0c 02      STA $020c,Y     
00d277 68            PLA      
00d278 4a            LSR      
00d279 48            PHA      
00d27a 90 05         BCC $d281     
00d27c a9 f8         LDA #$f8     
00d27e 99 08 02      STA $0208,Y     
00d281 68            PLA      
00d282 4a            LSR      
00d283 48            PHA      
00d284 90 05         BCC $d28b     
00d286 a9 f8         LDA #$f8     
00d288 99 04 02      STA $0204,Y     
00d28b 68            PLA      
00d28c 4a            LSR      
00d28d 90 05         BCC $d294     
00d28f a9 f8         LDA #$f8     
00d291 99 00 02      STA $0200,Y     
00d294 60            RTS      
00d295 d6 a0         DEC $a0,X     
00d297 d0 0c         BNE $d2a5     
00d299 a9 08         LDA #$08     
00d29b 95 a0         STA $a0,X     
00d29d f6 58         INC $58,X     
00d29f b5 58         LDA $58,X     
00d2a1 c9 03         CMP #$03     
00d2a3 b0 18         BCS $d2bd     
00d2a5 20 52 f1      JSR $f152     	; 
00d2a8 ad b9 03      LDA $03b9     	; 
00d2ab 8d ba 03      STA $03ba     	; 
00d2ae ad ae 03      LDA $03ae     	; 
00d2b1 8d af 03      STA $03af     	; 
00d2b4 bc e5 06      LDY $06e5,X     
00d2b7 b5 58         LDA $58,X     
00d2b9 20 17 ed      JSR $ed17     	; 
00d2bc 60            RTS      
00d2bd a9 00         LDA #$00     
00d2bf 95 0f         STA $0f,X     
00d2c1 a9 08         LDA #$08     
00d2c3 85 fe         STA $fe     
00d2c5 a9 05         LDA #$05     
00d2c7 8d 38 01      STA $0138     	; 
00d2ca 4c 36 d3      JMP $d336     	; 
00d2cd 00 00         BRK $00     
00d2cf 08            PHP      
00d2d0 08            PHP      
00d2d1 00 08         BRK $08     
00d2d3 00 08         BRK $08     
00d2d5 54 55 56      MVN $55,$56     
00d2d8 57 a9         EOR [$a9],Y     
00d2da 00 8d         BRK $8d     
00d2dc cb            WAI      
00d2dd 06 ad         ASL $ad     
00d2df 46 07         LSR $07     
00d2e1 c9 05         CMP #$05     
00d2e3 b0 2c         BCS $d311     
00d2e5 20 04 8e      JSR $8e04     	; 
00d2e8 11 d3         ORA ($d3),Y     
00d2ea f2 d2         SBC ($d2)     
00d2ec 12 d3         ORA ($d3)     
00d2ee 4e d3 a2      LSR $a2d3     	; 
00d2f1 d3


;Could this be the "fireworks" on the flag???
;Y affects the positions of the fireworks.
00d2f2 a0 05         LDY #$05
00d2f4 ad fa 07      LDA $07fa 
00d2f7 c9 01         CMP #$01
00d2f9 f0 0e         BEQ $d309
00d2fb a0 03         LDY #$03
00d2fd c9 03         CMP #$03     
00d2ff f0 08         BEQ $d309     
00d301 a0 00         LDY #$00     
00d303 c9 06         CMP #$06     
00d305 f0 02         BEQ $d309     
00d307 a9 ff         LDA #$ff           ; Set to no fireworks!
00d309 8d d7 06      STA $06d7          ; Firework Count.
00d30c 94 1e         STY $1e,X          ; Firework positions.
00d30e ee 46 07      INC $0746          ; hmm.. stage increment?! maybe??
00d311 60            RTS

;another check to see if time = 0?
00d312 ad f8 07      LDA $07f8     	; 
00d315 0d f9 07      ORA $07f9     	; 
00d318 0d fa 07      ORA $07fa     	; 
00d31b f0 f1         BEQ $d30e

00d31d a5 09         LDA $09     
00d31f 29 04         AND #$04     
00d321 f0 04         BEQ $d327     
00d323 a9 10         LDA #$10     
00d325 85 fe         STA $fe     
00d327 a0 23         LDY #$23     
00d329 a9 ff         LDA #$ff     
00d32b 8d 39 01      STA $0139     	; 
00d32e 20 5f 8f      JSR $8f5f     	; 
00d331 a9 05         LDA #$05     
00d333 8d 39 01      STA $0139     	; 
00d336 a0 0b         LDY #$0b     
00d338 ad 53 07      LDA $0753     	; 
00d33b f0 02         BEQ $d33f     
00d33d a0 11         LDY #$11     
00d33f 20 5f 8f      JSR $8f5f     	; 
00d342 ad 53 07      LDA $0753     	; 
00d345 0a            ASL      
00d346 0a            ASL      
00d347 0a            ASL      
00d348 0a            ASL      
00d349 09 04         ORA #$04     
00d34b 4c 36 bc      JMP $bc36     	; 
00d34e b5 cf         LDA $cf,X     
00d350 c9 72         CMP #$72     
00d352 90 05         BCC $d359     
00d354 d6 cf         DEC $cf,X     
00d356 4c 65 d3      JMP $d365     	; 
00d359 ad d7 06      LDA $06d7     	; 
00d35c f0 38         BEQ $d396     
00d35e 30 36         BMI $d396     
00d360 a9 16         LDA #$16     
00d362 8d cb 06      STA $06cb     	; 
00d365 20 52 f1      JSR $f152     	; 
00d368 bc e5 06      LDY $06e5,X     
00d36b a2 03         LDX #$03     
00d36d ad b9 03      LDA $03b9     	; 
00d370 18            CLC      
00d371 7d cd d2      ADC $d2cd,X     
00d374 99 00 02      STA $0200,Y     
00d377 bd d5 d2      LDA $d2d5,X     
00d37a 99 01 02      STA $0201,Y     
00d37d a9 22         LDA #$22     
00d37f 99 02 02      STA $0202,Y     
00d382 ad ae 03      LDA $03ae     	; 
00d385 18            CLC      
00d386 7d d1 d2      ADC $d2d1,X     
00d389 99 03 02      STA $0203,Y     
00d38c c8            INY      
00d38d c8            INY      
00d38e c8            INY      
00d38f c8            INY      
00d390 ca            DEX      
00d391 10 da         BPL $d36d     
00d393 a6 08         LDX $08     
00d395 60            RTS      
00d396 20 65 d3      JSR $d365     	; 
00d399 a9 06         LDA #$06     
00d39b 9d 96 07      STA $0796,X     
00d39e ee 46 07      INC $0746     	; 
00d3a1 60            RTS      
00d3a2 20 65 d3      JSR $d365     	; 
00d3a5 bd 96 07      LDA $0796,X     
00d3a8 d0 05         BNE $d3af     
00d3aa ad b1 07      LDA $07b1     	; 
00d3ad f0 ef         BEQ $d39e     
00d3af 60            RTS      
00d3b0 b5 1e         LDA $1e,X     
00d3b2 d0 56         BNE $d40a     
00d3b4 bd 8a 07      LDA $078a,X     
00d3b7 d0 51         BNE $d40a     
00d3b9 b5 a0         LDA $a0,X     
00d3bb d0 23         BNE $d3e0     
00d3bd b5 58         LDA $58,X     
00d3bf 30 14         BMI $d3d5     
00d3c1 20 43 e1      JSR $e143     	; 
00d3c4 10 09         BPL $d3cf     
00d3c6 a5 00         LDA $00     
00d3c8 49 ff         EOR #$ff     
00d3ca 18            CLC      
00d3cb 69 01         ADC #$01     
00d3cd 85 00         STA $00     
00d3cf a5 00         LDA $00     
00d3d1 c9 21         CMP #$21     
00d3d3 90 35         BCC $d40a     
00d3d5 b5 58         LDA $58,X     
00d3d7 49 ff         EOR #$ff     
00d3d9 18            CLC      
00d3da 69 01         ADC #$01     
00d3dc 95 58         STA $58,X     
00d3de f6 a0         INC $a0,X     
00d3e0 bd 34 04      LDA $0434,X     
00d3e3 b4 58         LDY $58,X     
00d3e5 10 03         BPL $d3ea     
00d3e7 bd 17 04      LDA $0417,X     
00d3ea 85 00         STA $00     
00d3ec a5 09         LDA $09     
00d3ee 4a            LSR      
00d3ef 90 19         BCC $d40a     
00d3f1 ad 47 07      LDA $0747     	; 
00d3f4 d0 14         BNE $d40a     
00d3f6 b5 cf         LDA $cf,X     
00d3f8 18            CLC      
00d3f9 75 58         ADC $58,X     
00d3fb 95 cf         STA $cf,X     
00d3fd c5 00         CMP $00     
00d3ff d0 09         BNE $d40a     
00d401 a9 00         LDA #$00     
00d403 95 a0         STA $a0,X     
00d405 a9 40         LDA #$40     
00d407 9d 8a 07      STA $078a,X     
00d40a a9 20         LDA #$20     
00d40c 9d c5 03      STA $03c5,X     
00d40f 60            RTS      
00d410 85 07         STA $07     
00d412 b5 34         LDA $34,X     
00d414 d0 0e         BNE $d424     
00d416 a0 18         LDY #$18     
00d418 b5 58         LDA $58,X     
00d41a 18            CLC      
00d41b 65 07         ADC $07     
00d41d 95 58         STA $58,X     
00d41f b5 a0         LDA $a0,X     
00d421 69 00         ADC #$00     
00d423 60            RTS      
00d424 a0 08         LDY #$08     
00d426 b5 58         LDA $58,X     
00d428 38            SEC      
00d429 e5 07         SBC $07     
00d42b 95 58         STA $58,X     
00d42d b5 a0         LDA $a0,X     
00d42f e9 00         SBC #$00     
00d431 60            RTS      
00d432 b5 b6         LDA $b6,X     
00d434 c9 03         CMP #$03     
00d436 d0 03         BNE $d43b     
00d438 4c 98 c9      JMP $c998     	; 
00d43b b5 1e         LDA $1e,X     
00d43d 10 01         BPL $d440     
00d43f 60            RTS      
00d440 a8            TAY      
00d441 bd a2 03      LDA $03a2,X     
00d444 85 00         STA $00     
00d446 b5 46         LDA $46,X     
00d448 f0 03         BEQ $d44d     
00d44a 4c bb d5      JMP $d5bb     	; 
00d44d a9 2d         LDA #$2d     
00d44f d5 cf         CMP $cf,X     
00d451 90 0f         BCC $d462     
00d453 c4 00         CPY $00     
00d455 f0 08         BEQ $d45f     
00d457 18            CLC      
00d458 69 02         ADC #$02     
00d45a 95 cf         STA $cf,X     
00d45c 4c b1 d5      JMP $d5b1     	; 
00d45f 4c 98 d5      JMP $d598     	; 
00d462 d9 cf 00      CMP $00cf,Y     
00d465 90 0d         BCC $d474     
00d467 e4 00         CPX $00     
00d469 f0 f4         BEQ $d45f     
00d46b 18            CLC      
00d46c 69 02         ADC #$02     
00d46e 99 cf 00      STA $00cf,Y     
00d471 4c b1 d5      JMP $d5b1     	; 
00d474 b5 cf         LDA $cf,X     
00d476 48            PHA      
00d477 bd a2 03      LDA $03a2,X     
00d47a 10 18         BPL $d494     
00d47c bd 34 04      LDA $0434,X     
00d47f 18            CLC      
00d480 69 05         ADC #$05     
00d482 85 00         STA $00     
00d484 b5 a0         LDA $a0,X     
00d486 69 00         ADC #$00     
00d488 30 1a         BMI $d4a4     
00d48a d0 0c         BNE $d498     
00d48c a5 00         LDA $00     
00d48e c9 0b         CMP #$0b     
00d490 90 0c         BCC $d49e     
00d492 b0 04         BCS $d498     
00d494 c5 08         CMP $08     
00d496 f0 0c         BEQ $d4a4     
00d498 20 b7 bf      JSR $bfb7     	; 
00d49b 4c a7 d4      JMP $d4a7     	; 
00d49e 20 b1 d5      JSR $d5b1     	; 
00d4a1 4c a7 d4      JMP $d4a7     	; 
00d4a4 20 b4 bf      JSR $bfb4     	; 
00d4a7 b4 1e         LDY $1e,X     
00d4a9 68            PLA      
00d4aa 38            SEC      
00d4ab f5 cf         SBC $cf,X     
00d4ad 18            CLC      
00d4ae 79 cf 00      ADC $00cf,Y     
00d4b1 99 cf 00      STA $00cf,Y     
00d4b4 bd a2 03      LDA $03a2,X     
00d4b7 30 04         BMI $d4bd     
00d4b9 aa            TAX      
00d4ba 20 21 dc      JSR $dc21     	; 
00d4bd a4 08         LDY $08     
00d4bf b9 a0 00      LDA $00a0,Y     
00d4c2 19 34 04      ORA $0434,Y     
00d4c5 f0 77         BEQ $d53e     
00d4c7 ae 00 03      LDX $0300     	; 
00d4ca e0 20         CPX #$20     
00d4cc b0 70         BCS $d53e     
00d4ce b9 a0 00      LDA $00a0,Y     
00d4d1 48            PHA      
00d4d2 48            PHA      
00d4d3 20 41 d5      JSR $d541     	; 
00d4d6 a5 01         LDA $01     
00d4d8 9d 01 03      STA $0301,X     
00d4db a5 00         LDA $00     
00d4dd 9d 02 03      STA $0302,X     
00d4e0 a9 02         LDA #$02     
00d4e2 9d 03 03      STA $0303,X     
00d4e5 b9 a0 00      LDA $00a0,Y     
00d4e8 30 0d         BMI $d4f7     
00d4ea a9 a2         LDA #$a2     
00d4ec 9d 04 03      STA $0304,X     
00d4ef a9 a3         LDA #$a3     
00d4f1 9d 05 03      STA $0305,X     
00d4f4 4c ff d4      JMP $d4ff     	; 
00d4f7 a9 24         LDA #$24     
00d4f9 9d 04 03      STA $0304,X     
00d4fc 9d 05 03      STA $0305,X     
00d4ff b9 1e 00      LDA $001e,Y     
00d502 a8            TAY      
00d503 68            PLA      
00d504 49 ff         EOR #$ff     
00d506 20 41 d5      JSR $d541     	; 
00d509 a5 01         LDA $01     
00d50b 9d 06 03      STA $0306,X     
00d50e a5 00         LDA $00     
00d510 9d 07 03      STA $0307,X     
00d513 a9 02         LDA #$02     
00d515 9d 08 03      STA $0308,X     
00d518 68            PLA      
00d519 10 0d         BPL $d528     
00d51b a9 a2         LDA #$a2     
00d51d 9d 09 03      STA $0309,X     
00d520 a9 a3         LDA #$a3     
00d522 9d 0a 03      STA $030a,X     
00d525 4c 30 d5      JMP $d530     	; 
00d528 a9 24         LDA #$24     
00d52a 9d 09 03      STA $0309,X     
00d52d 9d 0a 03      STA $030a,X     
00d530 a9 00         LDA #$00     
00d532 9d 0b 03      STA $030b,X     
00d535 ad 00 03      LDA $0300     	; 
00d538 18            CLC      
00d539 69 0a         ADC #$0a     
00d53b 8d 00 03      STA $0300     	; 
00d53e a6 08         LDX $08     
00d540 60            RTS      
00d541 48            PHA      
00d542 b9 87 00      LDA $0087,Y     
00d545 18            CLC      
00d546 69 08         ADC #$08     
00d548 ae cc 06      LDX $06cc     	; 
00d54b d0 03         BNE $d550     
00d54d 18            CLC      
00d54e 69 10         ADC #$10     
00d550 48            PHA      
00d551 b9 6e 00      LDA $006e,Y     
00d554 69 00         ADC #$00     
00d556 85 02         STA $02     
00d558 68            PLA      
00d559 29 f0         AND #$f0     
00d55b 4a            LSR      
00d55c 4a            LSR      
00d55d 4a            LSR      
00d55e 85 00         STA $00     
00d560 b6 cf         LDX $cf,Y     
00d562 68            PLA      
00d563 10 05         BPL $d56a     
00d565 8a            TXA      
00d566 18            CLC      
00d567 69 08         ADC #$08     
00d569 aa            TAX      
00d56a 8a            TXA      
00d56b ae 00 03      LDX $0300     	; 
00d56e 0a            ASL      
00d56f 2a            ROL      
00d570 48            PHA      
00d571 2a            ROL      
00d572 29 03         AND #$03     
00d574 09 20         ORA #$20     
00d576 85 01         STA $01     
00d578 a5 02         LDA $02     
00d57a 29 01         AND #$01     
00d57c 0a            ASL      
00d57d 0a            ASL      
00d57e 05 01         ORA $01     
00d580 85 01         STA $01     
00d582 68            PLA      
00d583 29 e0         AND #$e0     
00d585 18            CLC      
00d586 65 00         ADC $00     
00d588 85 00         STA $00     
00d58a b9 cf 00      LDA $00cf,Y     
00d58d c9 e8         CMP #$e8     
00d58f 90 06         BCC $d597     
00d591 a5 00         LDA $00     
00d593 29 bf         AND #$bf     
00d595 85 00         STA $00     
00d597 60            RTS      
00d598 98            TYA      
00d599 aa            TAX      
00d59a 20 af f1      JSR $f1af     	; 
00d59d a9 06         LDA #$06     
00d59f 20 11 da      JSR $da11     	; 
00d5a2 ad ad 03      LDA $03ad     	; 
00d5a5 9d 17 01      STA $0117,X     
00d5a8 a5 ce         LDA $ce     
00d5aa 9d 1e 01      STA $011e,X     
00d5ad a9 01         LDA #$01     
00d5af 95 46         STA $46,X     
00d5b1 20 63 c3      JSR $c363     	; 
00d5b4 99 a0 00      STA $00a0,Y     
00d5b7 99 34 04      STA $0434,Y     
00d5ba 60            RTS

00d5bb 98            TYA      
00d5bc 48            PHA      
00d5bd 20 6b bf      JSR $bf6b     	; 
00d5c0 68            PLA      
00d5c1 aa            TAX      
00d5c2 20 6b bf      JSR $bf6b     	; 
00d5c5 a6 08         LDX $08     
00d5c7 bd a2 03      LDA $03a2,X     
00d5ca 30 04         BMI $d5d0     
00d5cc aa            TAX      
00d5cd 20 21 dc      JSR $dc21     	; 
00d5d0 a6 08         LDX $08     
00d5d2 60            RTS      
00d5d3 b5 a0         LDA $a0,X     
00d5d5 1d 34 04      ORA $0434,X     
00d5d8 d0 15         BNE $d5ef     
00d5da 9d 17 04      STA $0417,X     
00d5dd b5 cf         LDA $cf,X     
00d5df dd 01 04      CMP $0401,X     
00d5e2 b0 0b         BCS $d5ef     
00d5e4 a5 09         LDA $09     
00d5e6 29 07         AND #$07     
00d5e8 d0 02         BNE $d5ec     
00d5ea f6 cf         INC $cf,X     
00d5ec 4c fe d5      JMP $d5fe     	; 
00d5ef b5 cf         LDA $cf,X     
00d5f1 d5 58         CMP $58,X     
00d5f3 90 06         BCC $d5fb     
00d5f5 20 b7 bf      JSR $bfb7     	; 
00d5f8 4c fe d5      JMP $d5fe     	; 
00d5fb 20 b4 bf      JSR $bfb4     	; 
00d5fe bd a2 03      LDA $03a2,X     
00d601 30 03         BMI $d606     
00d603 20 21 dc      JSR $dc21     	; 
00d606 60            RTS

00d607 a9 0e         LDA #$0e     
00d609 20 47 cb      JSR $cb47     	; 
00d60c 20 66 cb      JSR $cb66     	; 
00d60f bd a2 03      LDA $03a2,X     
00d612 30 1c         BMI $d630     
00d614 a5 86         LDA $86     
00d616 18            CLC      
00d617 65 00         ADC $00     
00d619 85 86         STA $86     
00d61b a5 6d         LDA $6d     
00d61d a4 00         LDY $00     
00d61f 30 05         BMI $d626     
00d621 69 00         ADC #$00     
00d623 4c 28 d6      JMP $d628     	;

00d626 e9 00         SBC #$00     
00d628 85 6d         STA $6d     
00d62a 8c a1 03      STY $03a1     	; 
00d62d 20 21 dc      JSR $dc21     	; 
00d630 60            RTS      
00d631 bd a2 03      LDA $03a2,X     
00d634 30 06         BMI $d63c     
00d636 20 88 bf      JSR $bf88     	; 
00d639 20 21 dc      JSR $dc21     	; 
00d63c 60            RTS      
00d63d 20 02 bf      JSR $bf02     	; 
00d640 85 00         STA $00     
00d642 bd a2 03      LDA $03a2,X     
00d645 30 07         BMI $d64e     
00d647 a9 10         LDA #$10     
00d649 95 58         STA $58,X     
00d64b 20 14 d6      JSR $d614     	; 
00d64e 60            RTS

00d64f 20 5b d6      JSR $d65b     	; 
00d652 4c fe d5      JMP $d5fe     	; 
00d655 20 5b d6      JSR $d65b     	; 
00d658 4c 71 d6      JMP $d671     	; 
00d65b ad 47 07      LDA $0747     	; 
00d65e d0 19         BNE $d679     
00d660 bd 17 04      LDA $0417,X     
00d663 18            CLC      
00d664 7d 34 04      ADC $0434,X     
00d667 9d 17 04      STA $0417,X     
00d66a b5 cf         LDA $cf,X     
00d66c 75 a0         ADC $a0,X     
00d66e 95 cf         STA $cf,X     
00d670 60            RTS      
00d671 bd a2 03      LDA $03a2,X     
00d674 f0 03         BEQ $d679     
00d676 20 19 dc      JSR $dc19     	; 
00d679 60            RTS      
00d67a b5 16         LDA $16,X     
00d67c c9 14         CMP #$14     
00d67e f0 55         BEQ $d6d5     
00d680 ad 1c 07      LDA $071c     	; 
00d683 b4 16         LDY $16,X     
00d685 c0 05         CPY #$05     
00d687 f0 04         BEQ $d68d     
00d689 c0 0d         CPY #$0d     
00d68b d0 02         BNE $d68f     
00d68d 69 38         ADC #$38     
00d68f e9 48         SBC #$48     
00d691 85 01         STA $01     
00d693 ad 1a 07      LDA $071a     	; 
00d696 e9 00         SBC #$00     
00d698 85 00         STA $00     
00d69a ad 1d 07      LDA $071d     	; 
00d69d 69 48         ADC #$48     
00d69f 85 03         STA $03     
00d6a1 ad 1b 07      LDA $071b     	; 
00d6a4 69 00         ADC #$00     
00d6a6 85 02         STA $02     
00d6a8 b5 87         LDA $87,X     
00d6aa c5 01         CMP $01     
00d6ac b5 6e         LDA $6e,X     
00d6ae e5 00         SBC $00     
00d6b0 30 20         BMI $d6d2     
00d6b2 b5 87         LDA $87,X     
00d6b4 c5 03         CMP $03     
00d6b6 b5 6e         LDA $6e,X     
00d6b8 e5 02         SBC $02     
00d6ba 30 19         BMI $d6d5     
00d6bc b5 1e         LDA $1e,X     
00d6be c9 05         CMP #$05     
00d6c0 f0 13         BEQ $d6d5     
00d6c2 c0 0d         CPY #$0d     
00d6c4 f0 0f         BEQ $d6d5     
00d6c6 c0 30         CPY #$30     
00d6c8 f0 0b         BEQ $d6d5     
00d6ca c0 31         CPY #$31     
00d6cc f0 07         BEQ $d6d5     
00d6ce c0 32         CPY #$32     
00d6d0 f0 03         BEQ $d6d5     
00d6d2 20 98 c9      JSR $c998     	; 
00d6d5 60            RTS      
00d6d6 ff ff ff b5   SBC $b5ffff,X     
00d6da 24 f0         BIT $f0     
00d6dc 56 0a         LSR $0a,X     
00d6de b0 53         BCS $d733     
00d6e0 a5 09         LDA $09     
00d6e2 4a            LSR      
00d6e3 b0 4e         BCS $d733     
00d6e5 8a            TXA      
00d6e6 0a            ASL      
00d6e7 0a            ASL      
00d6e8 18            CLC      
00d6e9 69 1c         ADC #$1c     
00d6eb a8            TAY      
00d6ec a2 04         LDX #$04     
00d6ee 86 01         STX $01     
00d6f0 98            TYA      
00d6f1 48            PHA      
00d6f2 b5 1e         LDA $1e,X     
00d6f4 29 20         AND #$20     
00d6f6 d0 34         BNE $d72c     
00d6f8 b5 0f         LDA $0f,X     
00d6fa f0 30         BEQ $d72c     
00d6fc b5 16         LDA $16,X     
00d6fe c9 24         CMP #$24     
00d700 90 04         BCC $d706     
00d702 c9 2b         CMP #$2b     
00d704 90 26         BCC $d72c     
00d706 c9 06         CMP #$06     
00d708 d0 06         BNE $d710     
00d70a b5 1e         LDA $1e,X     
00d70c c9 02         CMP #$02     
00d70e b0 1c         BCS $d72c     
00d710 bd d8 03      LDA $03d8,X     
00d713 d0 17         BNE $d72c     
00d715 8a            TXA      
00d716 0a            ASL      
00d717 0a            ASL      
00d718 18            CLC      
00d719 69 04         ADC #$04     
00d71b aa            TAX      
00d71c 20 27 e3      JSR $e327     	; 
00d71f a6 08         LDX $08     
00d721 90 09         BCC $d72c     
00d723 a9 80         LDA #$80     
00d725 95 24         STA $24,X     
00d727 a6 01         LDX $01     
00d729 20 3e d7      JSR $d73e     	; 
00d72c 68            PLA      
00d72d a8            TAY      
00d72e a6 01         LDX $01     
00d730 ca            DEX      
00d731 10 bb         BPL $d6ee     
00d733 a6 08         LDX $08     
00d735 60            RTS      
00d736 06 00         ASL $00     
00d738 02 12         COP $12     
00d73a 11 07         ORA ($07),Y     
00d73c 05 2d         ORA $2d     
00d73e 20 52 f1      JSR $f152     	; 
00d741 a6 01         LDX $01     
00d743 b5 0f         LDA $0f,X     
00d745 10 0b         BPL $d752     
00d747 29 0f         AND #$0f     
00d749 aa            TAX      
00d74a b5 16         LDA $16,X     
00d74c c9 2d         CMP #$2d     
00d74e f0 0c         BEQ $d75c     
00d750 a6 01         LDX $01     
00d752 b5 16         LDA $16,X     
00d754 c9 02         CMP #$02     
00d756 f0 6b         BEQ $d7c3     
00d758 c9 2d         CMP #$2d     
00d75a d0 2d         BNE $d789     
00d75c ce 83 04      DEC $0483     	; 
00d75f d0 62         BNE $d7c3     
00d761 20 63 c3      JSR $c363     	; 
00d764 95 58         STA $58,X     
00d766 8d cb 06      STA $06cb     	; 
00d769 a9 fe         LDA #$fe     
00d76b 95 a0         STA $a0,X     
00d76d ac 5f 07      LDY $075f     	; 
00d770 b9 36 d7      LDA $d736,Y     
00d773 95 16         STA $16,X     
00d775 a9 20         LDA #$20     
00d777 c0 03         CPY #$03     
00d779 b0 02         BCS $d77d     
00d77b 09 03         ORA #$03     
00d77d 95 1e         STA $1e,X     
00d77f a9 80         LDA #$80     
00d781 85 fe         STA $fe     
00d783 a6 01         LDX $01     
00d785 a9 09         LDA #$09     
00d787 d0 33         BNE $d7bc     
00d789 c9 08         CMP #$08     
00d78b f0 36         BEQ $d7c3     
00d78d c9 0c         CMP #$0c     
00d78f f0 32         BEQ $d7c3     
00d791 c9 15         CMP #$15     
00d793 b0 2e         BCS $d7c3     
00d795 b5 16         LDA $16,X     
00d797 c9 0d         CMP #$0d     
00d799 d0 06         BNE $d7a1     
00d79b b5 cf         LDA $cf,X     
00d79d 69 18         ADC #$18     
00d79f 95 cf         STA $cf,X     
00d7a1 20 1b e0      JSR $e01b     	; 
00d7a4 b5 1e         LDA $1e,X     
00d7a6 29 1f         AND #$1f     
00d7a8 09 20         ORA #$20     
00d7aa 95 1e         STA $1e,X     
00d7ac a9 02         LDA #$02     
00d7ae b4 16         LDY $16,X     
00d7b0 c0 05         CPY #$05     
00d7b2 d0 02         BNE $d7b6     
00d7b4 a9 06         LDA #$06     
00d7b6 c0 06         CPY #$06     
00d7b8 d0 02         BNE $d7bc     
00d7ba a9 01         LDA #$01     
00d7bc 20 11 da      JSR $da11     	; 
00d7bf a9 08         LDA #$08     
00d7c1 85 ff         STA $ff     
00d7c3 60            RTS      
00d7c4 a5 09         LDA $09     
00d7c6 4a            LSR      
00d7c7 90 36         BCC $d7ff     
00d7c9 ad 47 07      LDA $0747     	; 
00d7cc 0d d6 03      ORA $03d6     	; 
00d7cf d0 2e         BNE $d7ff     
00d7d1 8a            TXA      
00d7d2 0a            ASL      
00d7d3 0a            ASL      
00d7d4 18            CLC      
00d7d5 69 24         ADC #$24     
00d7d7 a8            TAY      
00d7d8 20 25 e3      JSR $e325     	; 
00d7db a6 08         LDX $08     
00d7dd 90 1b         BCC $d7fa     
00d7df bd be 06      LDA $06be,X     
00d7e2 d0 1b         BNE $d7ff     
00d7e4 a9 01         LDA #$01     
00d7e6 9d be 06      STA $06be,X     
00d7e9 b5 64         LDA $64,X     
00d7eb 49 ff         EOR #$ff     
00d7ed 18            CLC      
00d7ee 69 01         ADC #$01     
00d7f0 95 64         STA $64,X     
00d7f2 ad 9f 07      LDA $079f     	; 
00d7f5 d0 08         BNE $d7ff     
00d7f7 4c 2c d9      JMP $d92c     	; 
00d7fa a9 00         LDA #$00     
00d7fc 9d be 06      STA $06be,X     
00d7ff 60            RTS      
00d800 20 98 c9      JSR $c998     	; 
00d803 a9 06         LDA #$06     
00d805 20 11 da      JSR $da11     	; 
00d808 a9 20         LDA #$20     
00d80a 85 fe         STA $fe     
00d80c a5 39         LDA $39     
00d80e c9 02         CMP #$02     
00d810 90 0e         BCC $d820     
00d812 c9 03         CMP #$03     
00d814 f0 24         BEQ $d83a     
00d816 a9 23         LDA #$23     
00d818 8d 9f 07      STA $079f     	; 
00d81b a9 40         LDA #$40           ; Default tune number.
00d81d 85 fb         STA $fb            ; Tune number.
00d81f 60            RTS      
00d820 ad 56 07      LDA $0756     	; 
00d823 f0 1b         BEQ $d840     
00d825 c9 01         CMP #$01     
00d827 d0 23         BNE $d84c     
00d829 a6 08         LDX $08     
00d82b a9 02         LDA #$02     
00d82d 8d 56 07      STA $0756     	; 
00d830 20 f1 85      JSR $85f1     	; 
00d833 a6 08         LDX $08     
00d835 a9 0c         LDA #$0c     
00d837 4c 47 d8      JMP $d847     	; 
00d83a a9 0b         LDA #$0b     
00d83c 9d 10 01      STA $0110,X     
00d83f 60            RTS      
00d840 a9 01         LDA #$01     
00d842 8d 56 07      STA $0756     	; 
00d845 a9 09         LDA #$09     
00d847 a0 00         LDY #$00     
00d849 20 48 d9      JSR $d948     	; 
00d84c 60            RTS      
00d84d 18            CLC      
00d84e e8            INX      
00d84f 30 d0         BMI $d821     
00d851 08            PHP      
00d852 f8            SED      
00d853 a5 09         LDA $09     
00d855 4a            LSR      
00d856 b0 f4         BCS $d84c     
00d858 20 41 dc      JSR $dc41     	; 
00d85b b0 23         BCS $d880     
00d85d bd d8 03      LDA $03d8,X     
00d860 d0 1e         BNE $d880     
00d862 a5 0e         LDA $0e     
00d864 c9 08         CMP #$08     
00d866 d0 18         BNE $d880     
00d868 b5 1e         LDA $1e,X     
00d86a 29 20         AND #$20     
00d86c d0 12         BNE $d880     
00d86e 20 52 dc      JSR $dc52     	; 
00d871 20 25 e3      JSR $e325     	; 
00d874 a6 08         LDX $08     
00d876 b0 09         BCS $d881     
00d878 bd 91 04      LDA $0491,X     
00d87b 29 fe         AND #$fe     
00d87d 9d 91 04      STA $0491,X     
00d880 60            RTS      
00d881 b4 16         LDY $16,X     
00d883 c0 2e         CPY #$2e     
00d885 d0 03         BNE $d88a     
00d887 4c 00 d8      JMP $d800     	; 
00d88a ad 9f 07      LDA $079f     	; 
00d88d f0 06         BEQ $d895     
00d88f 4c 95 d7      JMP $d795     	; 
00d892 0a            ASL      
00d893 06 04         ASL $04     
00d895 bd 91 04      LDA $0491,X     
00d898 29 01         AND #$01     
00d89a 1d d8 03      ORA $03d8,X     
00d89d d0 59         BNE $d8f8     
00d89f a9 01         LDA #$01     
00d8a1 1d 91 04      ORA $0491,X     
00d8a4 9d 91 04      STA $0491,X     
00d8a7 c0 12         CPY #$12     
00d8a9 f0 4e         BEQ $d8f9     
00d8ab c0 0d         CPY #$0d     
00d8ad f0 7d         BEQ $d92c     
00d8af c0 0c         CPY #$0c     
00d8b1 f0 79         BEQ $d92c     
00d8b3 c0 33         CPY #$33     
00d8b5 f0 42         BEQ $d8f9     
00d8b7 c0 15         CPY #$15     
00d8b9 b0 71         BCS $d92c     
00d8bb ad 4e 07      LDA $074e     	; 
00d8be f0 6c         BEQ $d92c     
00d8c0 b5 1e         LDA $1e,X     
00d8c2 0a            ASL      
00d8c3 b0 34         BCS $d8f9     
00d8c5 b5 1e         LDA $1e,X     
00d8c7 29 07         AND #$07     
00d8c9 c9 02         CMP #$02     
00d8cb 90 2c         BCC $d8f9     
00d8cd b5 16         LDA $16,X     
00d8cf c9 06         CMP #$06     
00d8d1 f0 25         BEQ $d8f8     
00d8d3 a9 08         LDA #$08     
00d8d5 85 ff         STA $ff     
00d8d7 b5 1e         LDA $1e,X     
00d8d9 09 80         ORA #$80     
00d8db 95 1e         STA $1e,X     
00d8dd 20 05 da      JSR $da05     	; 
00d8e0 b9 4f d8      LDA $d84f,Y     
00d8e3 95 58         STA $58,X     
00d8e5 a9 03         LDA #$03     
00d8e7 18            CLC      
00d8e8 6d 84 04      ADC $0484     	; 
00d8eb bc 96 07      LDY $0796,X     
00d8ee c0 03         CPY #$03     
00d8f0 b0 03         BCS $d8f5     
00d8f2 b9 92 d8      LDA $d892,Y     
00d8f5 20 11 da      JSR $da11     	; 
00d8f8 60            RTS      
00d8f9 a5 9f         LDA $9f     
00d8fb 30 02         BMI $d8ff     
00d8fd d0 6a         BNE $d969     
00d8ff b5 16         LDA $16,X     
00d901 c9 07         CMP #$07     
00d903 90 09         BCC $d90e     
00d905 a5 ce         LDA $ce     
00d907 18            CLC      
00d908 69 0c         ADC #$0c     
00d90a d5 cf         CMP $cf,X     
00d90c 90 5b         BCC $d969     
00d90e ad 91 07      LDA $0791     	; 
00d911 d0 56         BNE $d969     
00d913 ad 9e 07      LDA $079e     	; 
00d916 d0 3d         BNE $d955     
00d918 ad ad 03      LDA $03ad     	; 
00d91b cd ae 03      CMP $03ae     	; 
00d91e 90 03         BCC $d923     
00d920 4c f6 d9      JMP $d9f6     	; 
00d923 b5 46         LDA $46,X     
00d925 c9 01         CMP #$01     
00d927 d0 03         BNE $d92c     
00d929 4c ff d9      JMP $d9ff     	; 
00d92c ad 9e 07      LDA $079e     	; 
00d92f d0 24         BNE $d955

00d931 ae 56 07      LDX $0756     	; 
00d934 f0 22         BEQ $d958     
00d936 8d 56 07      STA $0756     	; 
00d939 a9 08         LDA #$08     
00d93b 8d 9e 07      STA $079e     	; 
00d93e 0a            ASL      
00d93f 85 ff         STA $ff     
00d941 20 f1 85      JSR $85f1     	; 
00d944 a9 0a         LDA #$0a     
00d946 a0 01         LDY #$01     
00d948 85 0e         STA $0e     
00d94a 84 1d         STY $1d     
00d94c a0 ff         LDY #$ff     
00d94e 8c 47 07      STY $0747     	; 
00d951 c8            INY      
00d952 8c 75 07      STY $0775     	; 
00d955 a6 08         LDX $08     
00d957 60            RTS

00d958 86 57         STX $57     
00d95a e8            INX      
00d95b 86 fc         STX $fc     
00d95d a9 fc         LDA #$fc     
00d95f 85 9f         STA $9f     
00d961 a9 0b         LDA #$0b     
00d963 d0 e1         BNE $d946     
00d965 02 06         COP $06     
00d967 05 06         ORA $06     
00d969 b5 16         LDA $16,X     
00d96b c9 12         CMP #$12     
00d96d f0 bd         BEQ $d92c     
00d96f a9 04         LDA #$04     
00d971 85 ff         STA $ff     
00d973 b5 16         LDA $16,X     
00d975 a0 00         LDY #$00     
00d977 c9 14         CMP #$14     
00d979 f0 1b         BEQ $d996     
00d97b c9 08         CMP #$08     
00d97d f0 17         BEQ $d996     
00d97f c9 33         CMP #$33     
00d981 f0 13         BEQ $d996     
00d983 c9 0c         CMP #$0c     
00d985 f0 0f         BEQ $d996     
00d987 c8            INY      
00d988 c9 05         CMP #$05     
00d98a f0 0a         BEQ $d996     
00d98c c8            INY      
00d98d c9 11         CMP #$11     
00d98f f0 05         BEQ $d996     
00d991 c8            INY      
00d992 c9 07         CMP #$07     
00d994 d0 1d         BNE $d9b3     
00d996 b9 65 d9      LDA $d965,Y     
00d999 20 11 da      JSR $da11     	; 
00d99c b5 46         LDA $46,X     
00d99e 48            PHA      
00d99f 20 2f e0      JSR $e02f     	; 
00d9a2 68            PLA      
00d9a3 95 46         STA $46,X     
00d9a5 a9 20         LDA #$20     
00d9a7 95 1e         STA $1e,X     
00d9a9 20 63 c3      JSR $c363     	; 
00d9ac 95 58         STA $58,X     
00d9ae a9 fd         LDA #$fd     
00d9b0 85 9f         STA $9f     
00d9b2 60            RTS      
00d9b3 c9 09         CMP #$09     
00d9b5 90 1d         BCC $d9d4     
00d9b7 29 01         AND #$01     
00d9b9 95 16         STA $16,X     
00d9bb a0 00         LDY #$00     
00d9bd 94 1e         STY $1e,X     
00d9bf a9 03         LDA #$03     
00d9c1 20 11 da      JSR $da11     	; 
00d9c4 20 63 c3      JSR $c363     	; 
00d9c7 20 05 da      JSR $da05     	; 
00d9ca b9 51 d8      LDA $d851,Y     
00d9cd 95 58         STA $58,X     
00d9cf 4c f1 d9      JMP $d9f1     	;

00d9d2 10 0b         BPL $d9df

00d9d4 a9 04         LDA #$04     
00d9d6 95 1e         STA $1e,X     
00d9d8 ee 84 04      INC $0484     	; 
00d9db ad 84 04      LDA $0484     	; 
00d9de 18            CLC      
00d9df 6d 91 07      ADC $0791     	; 
00d9e2 20 11 da      JSR $da11     	; 
00d9e5 ee 91 07      INC $0791     	; 
00d9e8 ac 6a 07      LDY $076a     	; 
00d9eb b9 d2 d9      LDA $d9d2,Y     
00d9ee 9d 96 07      STA $0796,X     
00d9f1 a9 fc         LDA #$fc     
00d9f3 85 9f         STA $9f     
00d9f5 60            RTS      
00d9f6 b5 46         LDA $46,X     
00d9f8 c9 01         CMP #$01     
00d9fa d0 03         BNE $d9ff     
00d9fc 4c 2c d9      JMP $d92c     	; 
00d9ff 20 1c db      JSR $db1c     	; 
00da02 4c 2c d9      JMP $d92c     	; 
00da05 a0 01         LDY #$01     
00da07 20 43 e1      JSR $e143     	; 
00da0a 10 01         BPL $da0d     
00da0c c8            INY      
00da0d 94 46         STY $46,X     
00da0f 88            DEY      
00da10 60            RTS

00da11 9d 10 01      STA $0110,X
00da14 a9 30         LDA #$30     
00da16 9d 2c 01      STA $012c,X     
00da19 b5 cf         LDA $cf,X     
00da1b 9d 1e 01      STA $011e,X     
00da1e ad ae 03      LDA $03ae     	; 
00da21 9d 17 01      STA $0117,X     
00da24 60            RTS      
00da25 80 40         BRA $da67     
00da27 20 10 08      JSR $0810     	; 
00da2a 04 02         TSB $02     
00da2c 7f bf df ef   ADC $efdfbf,X     
00da30 f7 fb         SBC [$fb],Y     
00da32 fd a5 09      SBC $09a5,X     
00da35 4a            LSR      
00da36 90 ec         BCC $da24     
00da38 ad 4e 07      LDA $074e     	; 
00da3b f0 e7         BEQ $da24     
00da3d b5 16         LDA $16,X     
00da3f c9 15         CMP #$15     
00da41 b0 6e         BCS $dab1     
00da43 c9 11         CMP #$11     
00da45 f0 6a         BEQ $dab1     
00da47 c9 0d         CMP #$0d     
00da49 f0 66         BEQ $dab1     
00da4b bd d8 03      LDA $03d8,X     
00da4e d0 61         BNE $dab1     
00da50 20 52 dc      JSR $dc52     	; 
00da53 ca            DEX      
00da54 30 5b         BMI $dab1     
00da56 86 01         STX $01     
00da58 98            TYA      
00da59 48            PHA      
00da5a b5 0f         LDA $0f,X     
00da5c f0 4c         BEQ $daaa     
00da5e b5 16         LDA $16,X     
00da60 c9 15         CMP #$15     
00da62 b0 46         BCS $daaa     
00da64 c9 11         CMP #$11     
00da66 f0 42         BEQ $daaa     
00da68 c9 0d         CMP #$0d     
00da6a f0 3e         BEQ $daaa     
00da6c bd d8 03      LDA $03d8,X     
00da6f d0 39         BNE $daaa     
00da71 8a            TXA      
00da72 0a            ASL      
00da73 0a            ASL      
00da74 18            CLC      
00da75 69 04         ADC #$04     
00da77 aa            TAX      
00da78 20 27 e3      JSR $e327     	; 
00da7b a6 08         LDX $08     
00da7d a4 01         LDY $01     
00da7f 90 20         BCC $daa1     
00da81 b5 1e         LDA $1e,X     
00da83 19 1e 00      ORA $001e,Y     
00da86 29 80         AND #$80     
00da88 d0 11         BNE $da9b     
00da8a b9 91 04      LDA $0491,Y     
00da8d 3d 25 da      AND $da25,X     
00da90 d0 18         BNE $daaa     
00da92 b9 91 04      LDA $0491,Y     
00da95 1d 25 da      ORA $da25,X     
00da98 99 91 04      STA $0491,Y     
00da9b 20 b4 da      JSR $dab4     	; 
00da9e 4c aa da      JMP $daaa     	; 
00daa1 b9 91 04      LDA $0491,Y     
00daa4 3d 2c da      AND $da2c,X     
00daa7 99 91 04      STA $0491,Y     
00daaa 68            PLA      
00daab a8            TAY      
00daac a6 01         LDX $01     
00daae ca            DEX      
00daaf 10 a5         BPL $da56     
00dab1 a6 08         LDX $08     
00dab3 60            RTS      
00dab4 b9 1e 00      LDA $001e,Y     
00dab7 15 1e         ORA $1e,X     
00dab9 29 20         AND #$20     
00dabb d0 33         BNE $daf0     
00dabd b5 1e         LDA $1e,X     
00dabf c9 06         CMP #$06     
00dac1 90 2e         BCC $daf1     
00dac3 b5 16         LDA $16,X     
00dac5 c9 05         CMP #$05     
00dac7 f0 27         BEQ $daf0     
00dac9 b9 1e 00      LDA $001e,Y     
00dacc 0a            ASL      
00dacd 90 0a         BCC $dad9     
00dacf a9 06         LDA #$06     
00dad1 20 11 da      JSR $da11     	; 
00dad4 20 95 d7      JSR $d795     	; 
00dad7 a4 01         LDY $01     
00dad9 98            TYA      
00dada aa            TAX      
00dadb 20 95 d7      JSR $d795     	; 
00dade a6 08         LDX $08     
00dae0 bd 25 01      LDA $0125,X     
00dae3 18            CLC      
00dae4 69 04         ADC #$04     
00dae6 a6 01         LDX $01     
00dae8 20 11 da      JSR $da11     	; 
00daeb a6 08         LDX $08     
00daed fe 25 01      INC $0125,X     
00daf0 60            RTS      
00daf1 b9 1e 00      LDA $001e,Y     
00daf4 c9 06         CMP #$06     
00daf6 90 1d         BCC $db15     
00daf8 b9 16 00      LDA $0016,Y     
00dafb c9 05         CMP #$05     
00dafd f0 f1         BEQ $daf0     
00daff 20 95 d7      JSR $d795     	; 
00db02 a4 01         LDY $01     
00db04 b9 25 01      LDA $0125,Y     
00db07 18            CLC      
00db08 69 04         ADC #$04     
00db0a a6 08         LDX $08     
00db0c 20 11 da      JSR $da11     	; 
00db0f a6 01         LDX $01     
00db11 fe 25 01      INC $0125,X     
00db14 60            RTS      
00db15 98            TYA      
00db16 aa            TAX      
00db17 20 1c db      JSR $db1c     	; 
00db1a a6 08         LDX $08     
00db1c b5 16         LDA $16,X     
00db1e c9 0d         CMP #$0d     
00db20 f0 22         BEQ $db44     
00db22 c9 11         CMP #$11     
00db24 f0 1e         BEQ $db44     
00db26 c9 05         CMP #$05     
00db28 f0 1a         BEQ $db44     
00db2a c9 12         CMP #$12     
00db2c f0 08         BEQ $db36     
00db2e c9 0e         CMP #$0e     
00db30 f0 04         BEQ $db36     
00db32 c9 07         CMP #$07     
00db34 b0 0e         BCS $db44     
00db36 b5 58         LDA $58,X     
00db38 49 ff         EOR #$ff     
00db3a a8            TAY      
00db3b c8            INY      
00db3c 94 58         STY $58,X     
00db3e b5 46         LDA $46,X     
00db40 49 03         EOR #$03     
00db42 95 46         STA $46,X     
00db44 60            RTS      
00db45 a9 ff         LDA #$ff     
00db47 9d a2 03      STA $03a2,X     
00db4a ad 47 07      LDA $0747     	; 
00db4d d0 29         BNE $db78     
00db4f b5 1e         LDA $1e,X     
00db51 30 25         BMI $db78     
00db53 b5 16         LDA $16,X     
00db55 c9 24         CMP #$24     
00db57 d0 06         BNE $db5f     
00db59 b5 1e         LDA $1e,X     
00db5b aa            TAX      
00db5c 20 5f db      JSR $db5f     	; 
00db5f 20 41 dc      JSR $dc41     	; 
00db62 b0 14         BCS $db78     
00db64 8a            TXA      
00db65 20 54 dc      JSR $dc54     	; 
00db68 b5 cf         LDA $cf,X     
00db6a 85 00         STA $00     
00db6c 8a            TXA      
00db6d 48            PHA      
00db6e 20 25 e3      JSR $e325     	; 
00db71 68            PLA      
00db72 aa            TAX      
00db73 90 03         BCC $db78     
00db75 20 bc db      JSR $dbbc     	; 
00db78 a6 08         LDX $08     
00db7a 60            RTS      
00db7b ad 47 07      LDA $0747     	; 
00db7e d0 37         BNE $dbb7     
00db80 9d a2 03      STA $03a2,X     
00db83 20 41 dc      JSR $dc41     	; 
00db86 b0 2f         BCS $dbb7     
00db88 a9 02         LDA #$02     
00db8a 85 00         STA $00     
00db8c a6 08         LDX $08     
00db8e 20 52 dc      JSR $dc52     	; 
00db91 29 02         AND #$02     
00db93 d0 22         BNE $dbb7     
00db95 b9 ad 04      LDA $04ad,Y     
00db98 c9 20         CMP #$20     
00db9a 90 05         BCC $dba1     
00db9c 20 25 e3      JSR $e325     	; 
00db9f b0 19         BCS $dbba     
00dba1 b9 ad 04      LDA $04ad,Y     
00dba4 18            CLC      
00dba5 69 80         ADC #$80     
00dba7 99 ad 04      STA $04ad,Y     
00dbaa b9 af 04      LDA $04af,Y     
00dbad 18            CLC      
00dbae 69 80         ADC #$80     
00dbb0 99 af 04      STA $04af,Y     
00dbb3 c6 00         DEC $00     
00dbb5 d0 d5         BNE $db8c     
00dbb7 a6 08         LDX $08     
00dbb9 60            RTS      
00dbba a6 08         LDX $08     
00dbbc b9 af 04      LDA $04af,Y     
00dbbf 38            SEC      
00dbc0 ed ad 04      SBC $04ad     	; 
00dbc3 c9 04         CMP #$04     
00dbc5 b0 08         BCS $dbcf     
00dbc7 a5 9f         LDA $9f     
00dbc9 10 04         BPL $dbcf     
00dbcb a9 01         LDA #$01     
00dbcd 85 9f         STA $9f     
00dbcf ad af 04      LDA $04af     	; 
00dbd2 38            SEC      
00dbd3 f9 ad 04      SBC $04ad,Y     
00dbd6 c9 06         CMP #$06     
00dbd8 b0 1b         BCS $dbf5     
00dbda a5 9f         LDA $9f     
00dbdc 30 17         BMI $dbf5     
00dbde a5 00         LDA $00     
00dbe0 b4 16         LDY $16,X     
00dbe2 c0 2b         CPY #$2b     
00dbe4 f0 05         BEQ $dbeb     
00dbe6 c0 2c         CPY #$2c     
00dbe8 f0 01         BEQ $dbeb     
00dbea 8a            TXA      
00dbeb a6 08         LDX $08     
00dbed 9d a2 03      STA $03a2,X     
00dbf0 a9 00         LDA #$00     
00dbf2 85 1d         STA $1d     
00dbf4 60            RTS      
00dbf5 a9 01         LDA #$01     
00dbf7 85 00         STA $00     
00dbf9 ad ae 04      LDA $04ae     	; 
00dbfc 38            SEC      
00dbfd f9 ac 04      SBC $04ac,Y     
00dc00 c9 08         CMP #$08     
00dc02 90 0d         BCC $dc11     
00dc04 e6 00         INC $00     
00dc06 b9 ae 04      LDA $04ae,Y     
00dc09 18            CLC      
00dc0a ed ac 04      SBC $04ac     	; 
00dc0d c9 09         CMP #$09     
00dc0f b0 03         BCS $dc14     
00dc11 20 4b df      JSR $df4b     	; 
00dc14 a6 08         LDX $08     
00dc16 60            RTS      
00dc17 80 00         BRA $dc19     
00dc19 a8            TAY      
00dc1a b5 cf         LDA $cf,X     
00dc1c 18            CLC      
00dc1d 79 16 dc      ADC $dc16,Y     
00dc20 2c b5 cf      BIT $cfb5     	; 
00dc23 a4 0e         LDY $0e     
00dc25 c0 0b         CPY #$0b     
00dc27 f0 17         BEQ $dc40     
00dc29 b4 b6         LDY $b6,X     
00dc2b c0 01         CPY #$01     
00dc2d d0 11         BNE $dc40     
00dc2f 38            SEC      
00dc30 e9 20         SBC #$20     
00dc32 85 ce         STA $ce     
00dc34 98            TYA      
00dc35 e9 00         SBC #$00     
00dc37 85 b5         STA $b5     
00dc39 a9 00         LDA #$00     
00dc3b 85 9f         STA $9f     
00dc3d 8d 33 04      STA $0433     	; 
00dc40 60            RTS      
00dc41 ad d0 03      LDA $03d0     	; 
00dc44 c9 f0         CMP #$f0     
00dc46 b0 09         BCS $dc51     
00dc48 a4 b5         LDY $b5     
00dc4a 88            DEY      
00dc4b d0 04         BNE $dc51     
00dc4d a5 ce         LDA $ce     
00dc4f c9 d0         CMP #$d0     
00dc51 60            RTS      
00dc52 a5 08         LDA $08     
00dc54 0a            ASL      
00dc55 0a            ASL      
00dc56 18            CLC      
00dc57 69 04         ADC #$04     
00dc59 a8            TAY      
00dc5a ad d1 03      LDA $03d1     	; 
00dc5d 29 0f         AND #$0f     
00dc5f c9 0f         CMP #$0f     
00dc61 60            RTS      
00dc62 20 10 ad      JSR $ad10     	; 
00dc65 16 07         ASL $07,X     
00dc67 d0 2e         BNE $dc97     
00dc69 a5 0e         LDA $0e     
00dc6b c9 0b         CMP #$0b     
00dc6d f0 28         BEQ $dc97     
00dc6f c9 04         CMP #$04     
00dc71 90 24         BCC $dc97     
00dc73 a9 01         LDA #$01     
00dc75 ac 04 07      LDY $0704     	; 
00dc78 d0 0a         BNE $dc84     
00dc7a a5 1d         LDA $1d     
00dc7c f0 04         BEQ $dc82     
00dc7e c9 03         CMP #$03     
00dc80 d0 04         BNE $dc86     
00dc82 a9 02         LDA #$02     
00dc84 85 1d         STA $1d     
00dc86 a5 b5         LDA $b5     
00dc88 c9 01         CMP #$01     
00dc8a d0 0b         BNE $dc97     
00dc8c a9 ff         LDA #$ff     
00dc8e 8d 90 04      STA $0490     	; 
00dc91 a5 ce         LDA $ce     
00dc93 c9 cf         CMP #$cf     
00dc95 90 01         BCC $dc98     
00dc97 60            RTS      
00dc98 a0 02         LDY #$02     
00dc9a ad 14 07      LDA $0714     	; 
00dc9d d0 0c         BNE $dcab     
00dc9f ad 54 07      LDA $0754     	; 
00dca2 d0 07         BNE $dcab     
00dca4 88            DEY      
00dca5 ad 04 07      LDA $0704     	; 
00dca8 d0 01         BNE $dcab     
00dcaa 88            DEY      
00dcab b9 ad e3      LDA $e3ad,Y     
00dcae 85 eb         STA $eb     
00dcb0 a8            TAY      
00dcb1 ae 54 07      LDX $0754     	; 
00dcb4 ad 14 07      LDA $0714     	; 
00dcb7 f0 01         BEQ $dcba     
00dcb9 e8            INX      
00dcba a5 ce         LDA $ce     
00dcbc dd 62 dc      CMP $dc62,X     
00dcbf 90 35         BCC $dcf6     
00dcc1 20 e9 e3      JSR $e3e9     	; 
00dcc4 f0 30         BEQ $dcf6     
00dcc6 20 a1 df      JSR $dfa1     	; 
00dcc9 b0 4f         BCS $dd1a     
00dccb a4 9f         LDY $9f     
00dccd 10 27         BPL $dcf6     
00dccf a4 04         LDY $04     
00dcd1 c0 04         CPY #$04     
00dcd3 90 21         BCC $dcf6     
00dcd5 20 8f df      JSR $df8f     	; 
00dcd8 b0 10         BCS $dcea     
00dcda ac 4e 07      LDY $074e     	; 
00dcdd f0 13         BEQ $dcf2     
00dcdf ac 84 07      LDY $0784     	; 
00dce2 d0 0e         BNE $dcf2     
00dce4 20 ed bc      JSR $bced     	; 
00dce7 4c f6 dc      JMP $dcf6     	; 
00dcea c9 26         CMP #$26     
00dcec f0 04         BEQ $dcf2     
00dcee a9 02         LDA #$02     
00dcf0 85 ff         STA $ff     
00dcf2 a9 01         LDA #$01     
00dcf4 85 9f         STA $9f     
00dcf6 a4 eb         LDY $eb     
00dcf8 a5 ce         LDA $ce     
00dcfa c9 cf         CMP #$cf     
00dcfc b0 60         BCS $dd5e     
00dcfe 20 e8 e3      JSR $e3e8     	; 
00dd01 20 a1 df      JSR $dfa1     	; 
00dd04 b0 14         BCS $dd1a     
00dd06 48            PHA      
00dd07 20 e8 e3      JSR $e3e8     	; 
00dd0a 85 00         STA $00     
00dd0c 68            PLA      
00dd0d 85 01         STA $01     
00dd0f d0 0c         BNE $dd1d     
00dd11 a5 00         LDA $00     
00dd13 f0 49         BEQ $dd5e     
00dd15 20 a1 df      JSR $dfa1     	; 
00dd18 90 03         BCC $dd1d     
00dd1a 4c 05 de      JMP $de05     	; 
00dd1d 20 9a df      JSR $df9a     	; 
00dd20 b0 3c         BCS $dd5e     
00dd22 a4 9f         LDY $9f     
00dd24 30 38         BMI $dd5e     
00dd26 c9 c5         CMP #$c5     
00dd28 d0 03         BNE $dd2d     
00dd2a 4c 0e de      JMP $de0e     	; 
00dd2d 20 bd de      JSR $debd     	; 
00dd30 f0 2c         BEQ $dd5e     
00dd32 ac 0e 07      LDY $070e     	; 
00dd35 d0 23         BNE $dd5a     
00dd37 a4 04         LDY $04     
00dd39 c0 05         CPY #$05     
00dd3b 90 07         BCC $dd44     
00dd3d a5 45         LDA $45     
00dd3f 85 00         STA $00     
00dd41 4c 4b df      JMP $df4b     	; 
00dd44 20 c4 de      JSR $dec4     	; 
00dd47 a9 f0         LDA #$f0     
00dd49 25 ce         AND $ce     
00dd4b 85 ce         STA $ce     
00dd4d 20 e8 de      JSR $dee8     	; 
00dd50 a9 00         LDA #$00     
00dd52 85 9f         STA $9f     
00dd54 8d 33 04      STA $0433     	; 
00dd57 8d 84 04      STA $0484     	; 
00dd5a a9 00         LDA #$00     
00dd5c 85 1d         STA $1d     
00dd5e a4 eb         LDY $eb     
00dd60 c8            INY      
00dd61 c8            INY      
00dd62 a9 02         LDA #$02     
00dd64 85 00         STA $00     
00dd66 c8            INY      
00dd67 84 eb         STY $eb     
00dd69 a5 ce         LDA $ce     
00dd6b c9 20         CMP #$20     
00dd6d 90 16         BCC $dd85     
00dd6f c9 e4         CMP #$e4     
00dd71 b0 28         BCS $dd9b     
00dd73 20 ec e3      JSR $e3ec     	; 
00dd76 f0 0d         BEQ $dd85     
00dd78 c9 1c         CMP #$1c     
00dd7a f0 09         BEQ $dd85     
00dd7c c9 6b         CMP #$6b     
00dd7e f0 05         BEQ $dd85     
00dd80 20 9a df      JSR $df9a     	; 
00dd83 90 17         BCC $dd9c     
00dd85 a4 eb         LDY $eb     
00dd87 c8            INY      
00dd88 a5 ce         LDA $ce     
00dd8a c9 08         CMP #$08     
00dd8c 90 0d         BCC $dd9b     
00dd8e c9 d0         CMP #$d0     
00dd90 b0 09         BCS $dd9b     
00dd92 20 ec e3      JSR $e3ec     	; 
00dd95 d0 05         BNE $dd9c     
00dd97 c6 00         DEC $00     
00dd99 d0 cb         BNE $dd66     
00dd9b 60            RTS      
00dd9c 20 bd de      JSR $debd     	; 
00dd9f f0 61         BEQ $de02     
00dda1 20 9a df      JSR $df9a     	; 
00dda4 90 03         BCC $dda9     
00dda6 4c 2e de      JMP $de2e     	; 
00dda9 20 a1 df      JSR $dfa1     	; 
00ddac b0 57         BCS $de05     
00ddae 20 dd de      JSR $dedd     	; 
00ddb1 90 08         BCC $ddbb     
00ddb3 ad 0e 07      LDA $070e     	; 
00ddb6 d0 4a         BNE $de02     
00ddb8 4c ff dd      JMP $ddff     	; 
00ddbb a4 1d         LDY $1d     
00ddbd c0 00         CPY #$00     
00ddbf d0 3e         BNE $ddff     
00ddc1 a4 33         LDY $33     
00ddc3 88            DEY      
00ddc4 d0 39         BNE $ddff     
00ddc6 c9 6c         CMP #$6c     
00ddc8 f0 04         BEQ $ddce     
00ddca c9 1f         CMP #$1f     
00ddcc d0 31         BNE $ddff     
00ddce ad c4 03      LDA $03c4     	; 
00ddd1 d0 04         BNE $ddd7     
00ddd3 a0 10         LDY #$10     
00ddd5 84 ff         STY $ff     
00ddd7 09 20         ORA #$20     
00ddd9 8d c4 03      STA $03c4     	; 
00dddc a5 86         LDA $86     
00ddde 29 0f         AND #$0f     
00dde0 f0 0e         BEQ $ddf0     
00dde2 a0 00         LDY #$00     
00dde4 ad 1a 07      LDA $071a     	; 
00dde7 f0 01         BEQ $ddea     
00dde9 c8            INY      
00ddea b9 03 de      LDA $de03,Y     
00dded 8d de 06      STA $06de     	; 
00ddf0 a5 0e         LDA $0e     
00ddf2 c9 07         CMP #$07     
00ddf4 f0 0c         BEQ $de02     
00ddf6 c9 08         CMP #$08     
00ddf8 d0 08         BNE $de02     
00ddfa a9 02         LDA #$02     
00ddfc 85 0e         STA $0e     
00ddfe 60            RTS      
00ddff 20 4b df      JSR $df4b     	; 
00de02 60            RTS      
00de03 a0 34         LDY #$34     
00de05 20 1c de      JSR $de1c     	; 
00de08 ee 48 07      INC $0748     	; 
00de0b 4c fe bb      JMP $bbfe     	; 
00de0e a9 00         LDA #$00     
00de10 8d 72 07      STA $0772     	; 
00de13 a9 02         LDA #$02     
00de15 8d 70 07      STA $0770     	; 
00de18 a9 18         LDA #$18     
00de1a 85 57         STA $57     
00de1c a4 02         LDY $02     
00de1e a9 00         LDA #$00     
00de20 91 06         STA ($06),Y     
00de22 4c 4d 8a      JMP $8a4d     	; 
00de25 f9 07 ff      SBC $ff07,Y     
00de28 00 18         BRK $18     
00de2a 22 50 68 90   JSL $906850     
00de2e a4 04         LDY $04     
00de30 c0 06         CPY #$06     
00de32 90 04         BCC $de38     
00de34 c0 0a         CPY #$0a     
00de36 90 01         BCC $de39     
00de38 60            RTS      
00de39 c9 24         CMP #$24     
00de3b f0 04         BEQ $de41     
00de3d c9 25         CMP #$25     
00de3f d0 39         BNE $de7a     
00de41 a5 0e         LDA $0e     
00de43 c9 05         CMP #$05     
00de45 f0 41         BEQ $de88     
00de47 a9 01         LDA #$01     
00de49 85 33         STA $33     
00de4b ee 23 07      INC $0723     	; 
00de4e a5 0e         LDA $0e     
00de50 c9 04         CMP #$04     
00de52 f0 1f         BEQ $de73     
00de54 a9 33         LDA #$33     
00de56 20 16 97      JSR $9716     	; 
00de59 a9 80         LDA #$80     
00de5b 85 fc         STA $fc     
00de5d 4a            LSR      
00de5e 8d 13 07      STA $0713     	; 
00de61 a2 04         LDX #$04     
00de63 a5 ce         LDA $ce     
00de65 8d 0f 07      STA $070f     	; 
00de68 dd 29 de      CMP $de29,X     
00de6b b0 03         BCS $de70     
00de6d ca            DEX      
00de6e d0 f8         BNE $de68     
00de70 8e 0f 01      STX $010f     	; 
00de73 a9 04         LDA #$04     
00de75 85 0e         STA $0e     
00de77 4c 88 de      JMP $de88     	; 
00de7a c9 26         CMP #$26     
00de7c d0 0a         BNE $de88     
00de7e a5 ce         LDA $ce     
00de80 c9 20         CMP #$20     
00de82 b0 04         BCS $de88     
00de84 a9 01         LDA #$01     
00de86 85 0e         STA $0e     
00de88 a9 03         LDA #$03     
00de8a 85 1d         STA $1d     
00de8c a9 00         LDA #$00     
00de8e 85 57         STA $57     
00de90 8d 05 07      STA $0705     	; 
00de93 a5 86         LDA $86     
00de95 38            SEC      
00de96 ed 1c 07      SBC $071c     	; 
00de99 c9 10         CMP #$10     
00de9b b0 04         BCS $dea1     
00de9d a9 02         LDA #$02     
00de9f 85 33         STA $33     
00dea1 a4 33         LDY $33     
00dea3 a5 06         LDA $06     
00dea5 0a            ASL      
00dea6 0a            ASL      
00dea7 0a            ASL      
00dea8 0a            ASL      
00dea9 18            CLC      
00deaa 79 24 de      ADC $de24,Y     
00dead 85 86         STA $86     
00deaf a5 06         LDA $06     
00deb1 d0 09         BNE $debc     
00deb3 ad 1b 07      LDA $071b     	; 
00deb6 18            CLC      
00deb7 79 26 de      ADC $de26,Y     
00deba 85 6d         STA $6d     
00debc 60            RTS      
00debd c9 5f         CMP #$5f     
00debf f0 02         BEQ $dec3     
00dec1 c9 60         CMP #$60     
00dec3 60            RTS      
00dec4 20 dd de      JSR $dedd     	; 
00dec7 90 13         BCC $dedc     
00dec9 a9 70         LDA #$70     
00decb 8d 09 07      STA $0709     	; 
00dece a9 f9         LDA #$f9     
00ded0 8d db 06      STA $06db     	; 
00ded3 a9 03         LDA #$03     
00ded5 8d 86 07      STA $0786     	; 
00ded8 4a            LSR      
00ded9 8d 0e 07      STA $070e     	; 
00dedc 60            RTS      
00dedd c9 67         CMP #$67     
00dedf f0 05         BEQ $dee6     
00dee1 c9 68         CMP #$68     
00dee3 18            CLC      
00dee4 d0 01         BNE $dee7     
00dee6 38            SEC      
00dee7 60            RTS      
00dee8 a5 0b         LDA $0b     
00deea 29 04         AND #$04     
00deec f0 5c         BEQ $df4a     
00deee a5 00         LDA $00     
00def0 c9 11         CMP #$11     
00def2 d0 56         BNE $df4a     
00def4 a5 01         LDA $01     
00def6 c9 10         CMP #$10     
00def8 d0 50         BNE $df4a     
00defa a9 30         LDA #$30     
00defc 8d de 06      STA $06de     	; 
00deff a9 03         LDA #$03     
00df01 85 0e         STA $0e     
00df03 a9 10         LDA #$10     
00df05 85 ff         STA $ff     
00df07 a9 20         LDA #$20     
00df09 8d c4 03      STA $03c4     	; 
00df0c ad d6 06      LDA $06d6     	; 
00df0f f0 39         BEQ $df4a     
00df11 29 03         AND #$03     
00df13 0a            ASL      
00df14 0a            ASL      
00df15 aa            TAX      
00df16 a5 86         LDA $86     
00df18 c9 60         CMP #$60     
00df1a 90 06         BCC $df22     
00df1c e8            INX      
00df1d c9 a0         CMP #$a0     
00df1f 90 01         BCC $df22     
00df21 e8            INX      
00df22 bc f2 87      LDY $87f2,X     
00df25 88            DEY      
00df26 8c 5f 07      STY $075f     	; 
00df29 be b4 9c      LDX $9cb4,Y     
00df2c bd bc 9c      LDA $9cbc,X     
00df2f 8d 50 07      STA $0750     	; 
00df32 a9 80         LDA #$80     
00df34 85 fc         STA $fc     
00df36 a9 00         LDA #$00     
00df38 8d 51 07      STA $0751     	; 
00df3b 8d 60 07      STA $0760     	; 
00df3e 8d 5c 07      STA $075c     	; 
00df41 8d 52 07      STA $0752     	; 
00df44 ee 5d 07      INC $075d     	; 
00df47 ee 57 07      INC $0757     	; 
00df4a 60            RTS      
00df4b a9 00         LDA #$00     
00df4d a4 57         LDY $57     
00df4f a6 00         LDX $00     
00df51 ca            DEX      
00df52 d0 0a         BNE $df5e     
00df54 e8            INX      
00df55 c0 00         CPY #$00     
00df57 30 28         BMI $df81     
00df59 a9 ff         LDA #$ff     
00df5b 4c 66 df      JMP $df66     	; 
00df5e a2 02         LDX #$02     
00df60 c0 01         CPY #$01     
00df62 10 1d         BPL $df81     
00df64 a9 01         LDA #$01     
00df66 a0 10         LDY #$10     
00df68 8c 85 07      STY $0785     	; 
00df6b a0 00         LDY #$00     
00df6d 84 57         STY $57     
00df6f c9 00         CMP #$00     
00df71 10 01         BPL $df74     
00df73 88            DEY      
00df74 84 00         STY $00     
00df76 18            CLC      
00df77 65 86         ADC $86     
00df79 85 86         STA $86     
00df7b a5 6d         LDA $6d     
00df7d 65 00         ADC $00     
00df7f 85 6d         STA $6d     
00df81 8a            TXA      
00df82 49 ff         EOR #$ff     
00df84 2d 90 04      AND $0490     	; 
00df87 8d 90 04      STA $0490     	; 
00df8a 60            RTS      
00df8b 10 61         BPL $dfee     
00df8d 88            DEY      
00df8e c4 20         CPY $20     
00df90 b0 df         BCS $df71     
00df92 dd 8b df      CMP $df8b,X     
00df95 60            RTS      
00df96 24 6d         BIT $6d     
00df98 8a            TXA      
00df99 c6 20         DEC $20     
00df9b b0 df         BCS $df7c     
00df9d dd 96 df      CMP $df96,X     
00dfa0 60            RTS      
00dfa1 c9 c2         CMP #$c2     
00dfa3 f0 06         BEQ $dfab     
00dfa5 c9 c3         CMP #$c3     
00dfa7 f0 02         BEQ $dfab     
00dfa9 18            CLC      
00dfaa 60            RTS      
00dfab a9 01         LDA #$01     
00dfad 85 fe         STA $fe     
00dfaf 60            RTS      
00dfb0 a8            TAY      
00dfb1 29 c0         AND #$c0     
00dfb3 0a            ASL      
00dfb4 2a            ROL      
00dfb5 2a            ROL      
00dfb6 aa            TAX      
00dfb7 98            TYA      
00dfb8 60            RTS      
00dfb9 01 01         ORA ($01,X)     
00dfbb 02 02         COP $02     
00dfbd 02 05         COP $05     
00dfbf 10 f0         BPL $dfb1     
00dfc1 b5 1e         LDA $1e,X     
00dfc3 29 20         AND #$20     
00dfc5 d0 f1         BNE $dfb8     
00dfc7 20 5b e1      JSR $e15b     	; 
00dfca 90 ec         BCC $dfb8     
00dfcc b4 16         LDY $16,X     
00dfce c0 12         CPY #$12     
00dfd0 d0 06         BNE $dfd8     
00dfd2 b5 cf         LDA $cf,X     
00dfd4 c9 25         CMP #$25     
00dfd6 90 e0         BCC $dfb8     
00dfd8 c0 0e         CPY #$0e     
00dfda d0 03         BNE $dfdf     
00dfdc 4c 63 e1      JMP $e163     	; 
00dfdf c0 05         CPY #$05     
00dfe1 d0 03         BNE $dfe6     
00dfe3 4c 85 e1      JMP $e185     	; 
00dfe6 c0 12         CPY #$12     
00dfe8 f0 08         BEQ $dff2     
00dfea c0 2e         CPY #$2e     
00dfec f0 04         BEQ $dff2     
00dfee c0 07         CPY #$07     
00dff0 b0 74         BCS $e066     
00dff2 20 ae e1      JSR $e1ae     	; 
00dff5 d0 03         BNE $dffa     
00dff7 4c e2 e0      JMP $e0e2     	; 
00dffa 20 b5 e1      JSR $e1b5     	; 
00dffd f0 f8         BEQ $dff7     
00dfff c9 23         CMP #$23     
00e001 d0 64         BNE $e067     
00e003 a4 02         LDY $02     
00e005 a9 00         LDA #$00     
00e007 91 06         STA ($06),Y     
00e009 b5 16         LDA $16,X     
00e00b c9 15         CMP #$15     
00e00d b0 0c         BCS $e01b     
00e00f c9 06         CMP #$06     
00e011 d0 03         BNE $e016     
00e013 20 8e e1      JSR $e18e     	; 
00e016 a9 01         LDA #$01     
00e018 20 11 da      JSR $da11     	; 
00e01b c9 09         CMP #$09     
00e01d 90 10         BCC $e02f     
00e01f c9 11         CMP #$11     
00e021 b0 0c         BCS $e02f     
00e023 c9 0a         CMP #$0a     
00e025 90 04         BCC $e02b     
00e027 c9 0d         CMP #$0d     
00e029 90 04         BCC $e02f     
00e02b 29 01         AND #$01     
00e02d 95 16         STA $16,X     
00e02f b5 1e         LDA $1e,X     
00e031 29 f0         AND #$f0     
00e033 09 02         ORA #$02     
00e035 95 1e         STA $1e,X     
00e037 d6 cf         DEC $cf,X     
00e039 d6 cf         DEC $cf,X     
00e03b b5 16         LDA $16,X     
00e03d c9 07         CMP #$07     
00e03f f0 07         BEQ $e048     
00e041 a9 fd         LDA #$fd     
00e043 ac 4e 07      LDY $074e     	; 
00e046 d0 02         BNE $e04a     
00e048 a9 ff         LDA #$ff     
00e04a 95 a0         STA $a0,X     
00e04c a0 01         LDY #$01     
00e04e 20 43 e1      JSR $e143     	; 
00e051 10 01         BPL $e054     
00e053 c8            INY      
00e054 b5 16         LDA $16,X     
00e056 c9 33         CMP #$33     
00e058 f0 06         BEQ $e060     
00e05a c9 08         CMP #$08     
00e05c f0 02         BEQ $e060     
00e05e 94 46         STY $46,X     
00e060 88            DEY      
00e061 b9 bf df      LDA $dfbf,Y     
00e064 95 58         STA $58,X     
00e066 60            RTS      
00e067 a5 04         LDA $04     
00e069 38            SEC      
00e06a e9 08         SBC #$08     
00e06c c9 05         CMP #$05     
00e06e b0 72         BCS $e0e2     
00e070 b5 1e         LDA $1e,X     
00e072 29 40         AND #$40     
00e074 d0 57         BNE $e0cd     
00e076 b5 1e         LDA $1e,X     
00e078 0a            ASL      
00e079 90 03         BCC $e07e     
00e07b 4c fe e0      JMP $e0fe     	; 
00e07e b5 1e         LDA $1e,X     
00e080 f0 f9         BEQ $e07b     
00e082 c9 05         CMP #$05     
00e084 f0 1f         BEQ $e0a5     
00e086 c9 03         CMP #$03     
00e088 b0 1a         BCS $e0a4     
00e08a b5 1e         LDA $1e,X     
00e08c c9 02         CMP #$02     
00e08e d0 15         BNE $e0a5     
00e090 a9 10         LDA #$10     
00e092 b4 16         LDY $16,X     
00e094 c0 12         CPY #$12     
00e096 d0 02         BNE $e09a     
00e098 a9 00         LDA #$00     
00e09a 9d 96 07      STA $0796,X     
00e09d a9 03         LDA #$03     
00e09f 95 1e         STA $1e,X     
00e0a1 20 4f e1      JSR $e14f     	; 
00e0a4 60            RTS      
00e0a5 b5 16         LDA $16,X     
00e0a7 c9 06         CMP #$06     
00e0a9 f0 22         BEQ $e0cd     
00e0ab c9 12         CMP #$12     
00e0ad d0 0e         BNE $e0bd     
00e0af a9 01         LDA #$01     
00e0b1 95 46         STA $46,X     
00e0b3 a9 08         LDA #$08     
00e0b5 95 58         STA $58,X     
00e0b7 a5 09         LDA $09     
00e0b9 29 07         AND #$07     
00e0bb f0 10         BEQ $e0cd     
00e0bd a0 01         LDY #$01     
00e0bf 20 43 e1      JSR $e143     	; 
00e0c2 10 01         BPL $e0c5     
00e0c4 c8            INY      
00e0c5 98            TYA      
00e0c6 d5 46         CMP $46,X     
00e0c8 d0 03         BNE $e0cd     
00e0ca 20 24 e1      JSR $e124     	; 
00e0cd 20 4f e1      JSR $e14f     	; 
00e0d0 b5 1e         LDA $1e,X     
00e0d2 29 80         AND #$80     
00e0d4 d0 05         BNE $e0db     
00e0d6 a9 00         LDA #$00     
00e0d8 95 1e         STA $1e,X     
00e0da 60            RTS      
00e0db b5 1e         LDA $1e,X     
00e0dd 29 bf         AND #$bf     
00e0df 95 1e         STA $1e,X     
00e0e1 60            RTS      
00e0e2 b5 16         LDA $16,X     
00e0e4 c9 03         CMP #$03     
00e0e6 d0 04         BNE $e0ec     
00e0e8 b5 1e         LDA $1e,X     
00e0ea f0 38         BEQ $e124     
00e0ec b5 1e         LDA $1e,X     
00e0ee a8            TAY      
00e0ef 0a            ASL      
00e0f0 90 07         BCC $e0f9     
00e0f2 b5 1e         LDA $1e,X     
00e0f4 09 40         ORA #$40     
00e0f6 4c fc e0      JMP $e0fc     	; 
00e0f9 b9 b9 df      LDA $dfb9,Y     
00e0fc 95 1e         STA $1e,X     
00e0fe b5 cf         LDA $cf,X     
00e100 c9 20         CMP #$20     
00e102 90 1f         BCC $e123     
00e104 a0 16         LDY #$16     
00e106 a9 02         LDA #$02     
00e108 85 eb         STA $eb     
00e10a a5 eb         LDA $eb     
00e10c d5 46         CMP $46,X     
00e10e d0 0c         BNE $e11c     
00e110 a9 01         LDA #$01     
00e112 20 88 e3      JSR $e388     	; 
00e115 f0 05         BEQ $e11c     
00e117 20 b5 e1      JSR $e1b5     	; 
00e11a d0 08         BNE $e124     
00e11c c6 eb         DEC $eb     
00e11e c8            INY      
00e11f c0 18         CPY #$18     
00e121 90 e7         BCC $e10a     
00e123 60            RTS      
00e124 e0 05         CPX #$05     
00e126 f0 09         BEQ $e131     
00e128 b5 1e         LDA $1e,X     
00e12a 0a            ASL      
00e12b 90 04         BCC $e131     
00e12d a9 02         LDA #$02     
00e12f 85 ff         STA $ff     
00e131 b5 16         LDA $16,X     
00e133 c9 05         CMP #$05     
00e135 d0 09         BNE $e140     
00e137 a9 00         LDA #$00     
00e139 85 00         STA $00     
00e13b a0 fa         LDY #$fa     
00e13d 4c 37 ca      JMP $ca37     	; 
00e140 4c 36 db      JMP $db36     	; 
00e143 b5 87         LDA $87,X     
00e145 38            SEC      
00e146 e5 86         SBC $86     
00e148 85 00         STA $00     
00e14a b5 6e         LDA $6e,X     
00e14c e5 6d         SBC $6d     
00e14e 60            RTS      
00e14f 20 63 c3      JSR $c363     	; 
00e152 b5 cf         LDA $cf,X     
00e154 29 f0         AND #$f0     
00e156 09 08         ORA #$08     
00e158 95 cf         STA $cf,X     
00e15a 60            RTS      
00e15b b5 cf         LDA $cf,X     
00e15d 18            CLC      
00e15e 69 3e         ADC #$3e     
00e160 c9 44         CMP #$44     
00e162 60            RTS      
00e163 20 5b e1      JSR $e15b     	; 
00e166 90 1a         BCC $e182     
00e168 b5 a0         LDA $a0,X     
00e16a 18            CLC      
00e16b 69 02         ADC #$02     
00e16d c9 03         CMP #$03     
00e16f 90 11         BCC $e182     
00e171 20 ae e1      JSR $e1ae     	; 
00e174 f0 0c         BEQ $e182     
00e176 20 b5 e1      JSR $e1b5     	; 
00e179 f0 07         BEQ $e182     
00e17b 20 4f e1      JSR $e14f     	; 
00e17e a9 fd         LDA #$fd     
00e180 95 a0         STA $a0,X     
00e182 4c fe e0      JMP $e0fe     	; 
00e185 20 ae e1      JSR $e1ae     	; 
00e188 f0 1d         BEQ $e1a7     
00e18a c9 23         CMP #$23     
00e18c d0 08         BNE $e196     
00e18e 20 95 d7      JSR $d795     	; 
00e191 a9 fc         LDA #$fc     
00e193 95 a0         STA $a0,X     
00e195 60            RTS      
00e196 bd 8a 07      LDA $078a,X     
00e199 d0 0c         BNE $e1a7     
00e19b b5 1e         LDA $1e,X     
00e19d 29 88         AND #$88     
00e19f 95 1e         STA $1e,X     
00e1a1 20 4f e1      JSR $e14f     	; 
00e1a4 4c fe e0      JMP $e0fe     	; 
00e1a7 b5 1e         LDA $1e,X     
00e1a9 09 01         ORA #$01     
00e1ab 95 1e         STA $1e,X     
00e1ad 60            RTS      
00e1ae a9 00         LDA #$00     
00e1b0 a0 15         LDY #$15     
00e1b2 4c 88 e3      JMP $e388     	; 
00e1b5 c9 26         CMP #$26     
00e1b7 f0 0e         BEQ $e1c7     
00e1b9 c9 c2         CMP #$c2     
00e1bb f0 0a         BEQ $e1c7     
00e1bd c9 c3         CMP #$c3     
00e1bf f0 06         BEQ $e1c7     
00e1c1 c9 5f         CMP #$5f     
00e1c3 f0 02         BEQ $e1c7     
00e1c5 c9 60         CMP #$60     
00e1c7 60            RTS      
00e1c8 b5 d5         LDA $d5,X     
00e1ca c9 18         CMP #$18     
00e1cc 90 21         BCC $e1ef     
00e1ce 20 9c e3      JSR $e39c     	; 
00e1d1 f0 1c         BEQ $e1ef     
00e1d3 20 b5 e1      JSR $e1b5     	; 
00e1d6 f0 17         BEQ $e1ef     
00e1d8 b5 a6         LDA $a6,X     
00e1da 30 18         BMI $e1f4     
00e1dc b5 3a         LDA $3a,X     
00e1de d0 14         BNE $e1f4     
00e1e0 a9 fd         LDA #$fd     
00e1e2 95 a6         STA $a6,X     
00e1e4 a9 01         LDA #$01     
00e1e6 95 3a         STA $3a,X     
00e1e8 b5 d5         LDA $d5,X     
00e1ea 29 f8         AND #$f8     
00e1ec 95 d5         STA $d5,X     
00e1ee 60            RTS      
00e1ef a9 00         LDA #$00     
00e1f1 95 3a         STA $3a,X     
00e1f3 60            RTS      
00e1f4 a9 80         LDA #$80     
00e1f6 95 24         STA $24,X     
00e1f8 a9 02         LDA #$02     
00e1fa 85 ff         STA $ff     
00e1fc 60            RTS      
00e1fd 02 08         COP $08     
00e1ff 0e 20 03      ASL $0320     	; 
00e202 14 0d         TRB $0d     
00e204 20 02 14      JSR $1402     	; 
00e207 0e 20 02      ASL $0220     	; 
00e20a 09 0e         ORA #$0e     
00e20c 15 00         ORA $00,X     
00e20e 00 18         BRK $18     
00e210 06 00         ASL $00     
00e212 00 20         BRK $20     
00e214 0d 00 00      ORA $0000     
00e217 30 0d         BMI $e226     
00e219 00 00         BRK $00     
00e21b 08            PHP      
00e21c 08            PHP      
00e21d 06 04         ASL $04     
00e21f 0a            ASL      
00e220 08            PHP      
00e221 03 0e         ORA $e,S     
00e223 0d 14 00      ORA $0014     
00e226 02 10         COP $10     
00e228 15 04         ORA $04,X     
00e22a 04 0c         TSB $0c     
00e22c 1c 8a 18      TRB $188a     	; 
00e22f 69 07         ADC #$07     
00e231 aa            TAX      
00e232 a0 02         LDY #$02     
00e234 d0 07         BNE $e23d     
00e236 8a            TXA      
00e237 18            CLC      
00e238 69 09         ADC #$09     
00e23a aa            TAX      
00e23b a0 06         LDY #$06     
00e23d 20 9c e2      JSR $e29c     	; 
00e240 4c de e2      JMP $e2de     	; 
00e243 a0 48         LDY #$48     
00e245 84 00         STY $00     
00e247 a0 44         LDY #$44     
00e249 4c 52 e2      JMP $e252     	; 
00e24c a0 08         LDY #$08     
00e24e 84 00         STY $00     
00e250 a0 04         LDY #$04     
00e252 b5 87         LDA $87,X     
00e254 38            SEC      
00e255 ed 1c 07      SBC $071c     	; 
00e258 85 01         STA $01     
00e25a b5 6e         LDA $6e,X     
00e25c ed 1a 07      SBC $071a     	; 
00e25f 30 06         BMI $e267     
00e261 05 01         ORA $01     
00e263 f0 02         BEQ $e267     
00e265 a4 00         LDY $00     
00e267 98            TYA      
00e268 2d d1 03      AND $03d1     	; 
00e26b 9d d8 03      STA $03d8,X     
00e26e d0 19         BNE $e289     
00e270 4c 7c e2      JMP $e27c     	; 
00e273 e8            INX      
00e274 20 f6 f1      JSR $f1f6     	; 
00e277 ca            DEX      
00e278 c9 fe         CMP #$fe     
00e27a b0 0d         BCS $e289     
00e27c 8a            TXA      
00e27d 18            CLC      
00e27e 69 01         ADC #$01     
00e280 aa            TAX      
00e281 a0 01         LDY #$01     
00e283 20 9c e2      JSR $e29c     	; 
00e286 4c de e2      JMP $e2de     	; 
00e289 8a            TXA      
00e28a 0a            ASL      
00e28b 0a            ASL      
00e28c a8            TAY      
00e28d a9 ff         LDA #$ff     
00e28f 99 b0 04      STA $04b0,Y     
00e292 99 b1 04      STA $04b1,Y     
00e295 99 b2 04      STA $04b2,Y     
00e298 99 b3 04      STA $04b3,Y     
00e29b 60            RTS      
00e29c 86 00         STX $00     
00e29e b9 b8 03      LDA $03b8,Y     
00e2a1 85 02         STA $02     
00e2a3 b9 ad 03      LDA $03ad,Y     
00e2a6 85 01         STA $01     
00e2a8 8a            TXA      
00e2a9 0a            ASL      
00e2aa 0a            ASL      
00e2ab 48            PHA      
00e2ac a8            TAY      
00e2ad bd 99 04      LDA $0499,X     
00e2b0 0a            ASL      
00e2b1 0a            ASL      
00e2b2 aa            TAX      
00e2b3 a5 01         LDA $01     
00e2b5 18            CLC      
00e2b6 7d fd e1      ADC $e1fd,X     
00e2b9 99 ac 04      STA $04ac,Y     
00e2bc a5 01         LDA $01     
00e2be 18            CLC      
00e2bf 7d ff e1      ADC $e1ff,X     
00e2c2 99 ae 04      STA $04ae,Y     
00e2c5 e8            INX      
00e2c6 c8            INY      
00e2c7 a5 02         LDA $02     
00e2c9 18            CLC      
00e2ca 7d fd e1      ADC $e1fd,X     
00e2cd 99 ac 04      STA $04ac,Y     
00e2d0 a5 02         LDA $02     
00e2d2 18            CLC      
00e2d3 7d ff e1      ADC $e1ff,X     
00e2d6 99 ae 04      STA $04ae,Y     
00e2d9 68            PLA      
00e2da a8            TAY      
00e2db a6 00         LDX $00     
00e2dd 60            RTS      
00e2de ad 1c 07      LDA $071c     	; 
00e2e1 18            CLC      
00e2e2 69 80         ADC #$80     
00e2e4 85 02         STA $02     
00e2e6 ad 1a 07      LDA $071a     	; 
00e2e9 69 00         ADC #$00     
00e2eb 85 01         STA $01     
00e2ed b5 86         LDA $86,X     
00e2ef c5 02         CMP $02     
00e2f1 b5 6d         LDA $6d,X     
00e2f3 e5 01         SBC $01     
00e2f5 90 15         BCC $e30c     
00e2f7 b9 ae 04      LDA $04ae,Y     
00e2fa 30 0d         BMI $e309     
00e2fc a9 ff         LDA #$ff     
00e2fe be ac 04      LDX $04ac,Y     
00e301 30 03         BMI $e306     
00e303 99 ac 04      STA $04ac,Y     
00e306 99 ae 04      STA $04ae,Y     
00e309 a6 08         LDX $08     
00e30b 60            RTS      
00e30c b9 ac 04      LDA $04ac,Y     
00e30f 10 11         BPL $e322     
00e311 c9 a0         CMP #$a0     
00e313 90 0d         BCC $e322     
00e315 a9 00         LDA #$00     
00e317 be ae 04      LDX $04ae,Y     
00e31a 10 03         BPL $e31f     
00e31c 99 ae 04      STA $04ae,Y     
00e31f 99 ac 04      STA $04ac,Y     
00e322 a6 08         LDX $08     
00e324 60            RTS      
00e325 a2 00         LDX #$00     
00e327 84 06         STY $06     
00e329 a9 01         LDA #$01     
00e32b 85 07         STA $07     
00e32d b9 ac 04      LDA $04ac,Y     
00e330 dd ac 04      CMP $04ac,X     
00e333 b0 2a         BCS $e35f     
00e335 dd ae 04      CMP $04ae,X     
00e338 90 12         BCC $e34c     
00e33a f0 42         BEQ $e37e     
00e33c b9 ae 04      LDA $04ae,Y     
00e33f d9 ac 04      CMP $04ac,Y     
00e342 90 3a         BCC $e37e     
00e344 dd ac 04      CMP $04ac,X     
00e347 b0 35         BCS $e37e     
00e349 a4 06         LDY $06     
00e34b 60            RTS      
00e34c bd ae 04      LDA $04ae,X     
00e34f dd ac 04      CMP $04ac,X     
00e352 90 2a         BCC $e37e     
00e354 b9 ae 04      LDA $04ae,Y     
00e357 dd ac 04      CMP $04ac,X     
00e35a b0 22         BCS $e37e     
00e35c a4 06         LDY $06     
00e35e 60            RTS      
00e35f dd ac 04      CMP $04ac,X     
00e362 f0 1a         BEQ $e37e     
00e364 dd ae 04      CMP $04ae,X     
00e367 90 15         BCC $e37e     
00e369 f0 13         BEQ $e37e     
00e36b d9 ae 04      CMP $04ae,Y     
00e36e 90 0a         BCC $e37a     
00e370 f0 08         BEQ $e37a     
00e372 b9 ae 04      LDA $04ae,Y     
00e375 dd ac 04      CMP $04ac,X     
00e378 b0 04         BCS $e37e     
00e37a 18            CLC      
00e37b a4 06         LDY $06     
00e37d 60            RTS      
00e37e e8            INX      
00e37f c8            INY      
00e380 c6 07         DEC $07     
00e382 10 a9         BPL $e32d     
00e384 38            SEC      
00e385 a4 06         LDY $06     
00e387 60            RTS      
00e388 48            PHA      
00e389 8a            TXA      
00e38a 18            CLC      
00e38b 69 01         ADC #$01     
00e38d aa            TAX      
00e38e 68            PLA      
00e38f 4c a5 e3      JMP $e3a5     	; 
00e392 8a            TXA      
00e393 18            CLC      
00e394 69 0d         ADC #$0d     
00e396 aa            TAX      
00e397 a0 1b         LDY #$1b     
00e399 4c a3 e3      JMP $e3a3     	; 
00e39c a0 1a         LDY #$1a     
00e39e 8a            TXA      
00e39f 18            CLC      
00e3a0 69 07         ADC #$07     
00e3a2 aa            TAX      
00e3a3 a9 00         LDA #$00     
00e3a5 20 f0 e3      JSR $e3f0     	; 
00e3a8 a6 08         LDX $08     
00e3aa c9 00         CMP #$00     
00e3ac 60            RTS      
00e3ad 00 07         BRK $07     
00e3af 0e 08 03      ASL $0308     	; 
00e3b2 0c 02 02      TSB $0202     	; 
00e3b5 0d 0d 08      ORA $080d     	; 
00e3b8 03 0c         ORA $c,S     
00e3ba 02 02         COP $02     
00e3bc 0d 0d 08      ORA $080d     	; 
00e3bf 03 0c         ORA $c,S     
00e3c1 02 02         COP $02     
00e3c3 0d 0d 08      ORA $080d     	; 
00e3c6 00 10         BRK $10     
00e3c8 04 14         TSB $14     
00e3ca 04 04         TSB $04     
00e3cc 04 20         TSB $20     
00e3ce 20 08 18      JSR $1808     	; 
00e3d1 08            PHP      
00e3d2 18            CLC      
00e3d3 02 20         COP $20     
00e3d5 20 08 18      JSR $1808     	; 
00e3d8 08            PHP      
00e3d9 18            CLC      
00e3da 12 20         ORA ($20)     
00e3dc 20 18 18      JSR $1818     	; 
00e3df 18            CLC      
00e3e0 18            CLC      
00e3e1 18            CLC      
00e3e2 14 14         TRB $14     
00e3e4 06 06         ASL $06     
00e3e6 08            PHP      
00e3e7 10 c8         BPL $e3b1     
00e3e9 a9 00         LDA #$00     
00e3eb 2c a9 01      BIT $01a9     	; 
00e3ee a2 00         LDX #$00     
00e3f0 48            PHA      
00e3f1 84 04         STY $04     
00e3f3 b9 b0 e3      LDA $e3b0,Y     
00e3f6 18            CLC      
00e3f7 75 86         ADC $86,X     
00e3f9 85 05         STA $05     
00e3fb b5 6d         LDA $6d,X     
00e3fd 69 00         ADC #$00     
00e3ff 29 01         AND #$01     
00e401 4a            LSR      
00e402 05 05         ORA $05     
00e404 6a            ROR      
00e405 4a            LSR      
00e406 4a            LSR      
00e407 4a            LSR      
00e408 20 e1 9b      JSR $9be1     	; 
00e40b a4 04         LDY $04     
00e40d b5 ce         LDA $ce,X     
00e40f 18            CLC      
00e410 79 cc e3      ADC $e3cc,Y     
00e413 29 f0         AND #$f0     
00e415 38            SEC      
00e416 e9 20         SBC #$20     
00e418 85 02         STA $02     
00e41a a8            TAY      
00e41b b1 06         LDA ($06),Y     
00e41d 85 03         STA $03     
00e41f a4 04         LDY $04     
00e421 68            PLA      
00e422 d0 05         BNE $e429     
00e424 b5 ce         LDA $ce,X     
00e426 4c 2b e4      JMP $e42b     	; 
00e429 b5 86         LDA $86,X     
00e42b 29 0f         AND #$0f     
00e42d 85 04         STA $04     
00e42f a5 03         LDA $03     
00e431 60            RTS      
00e432 ff 00 30 84   SBC $843000,X     
00e436 00 ad         BRK $ad     
00e438 b9 03 18      LDA $1803,Y     
00e43b 79 33 e4      ADC $e433,Y     
00e43e be 9a 03      LDX $039a,Y     
00e441 bc e5 06      LDY $06e5,X     
00e444 84 02         STY $02     
00e446 20 ae e4      JSR $e4ae     	; 
00e449 ad ae 03      LDA $03ae     	; 
00e44c 99 03 02      STA $0203,Y     
00e44f 99 0b 02      STA $020b,Y     
00e452 99 13 02      STA $0213,Y     
00e455 18            CLC      
00e456 69 06         ADC #$06     
00e458 99 07 02      STA $0207,Y     
00e45b 99 0f 02      STA $020f,Y     
00e45e 99 17 02      STA $0217,Y     
00e461 a9 21         LDA #$21     
00e463 99 02 02      STA $0202,Y     
00e466 99 0a 02      STA $020a,Y     
00e469 99 12 02      STA $0212,Y     
00e46c 09 40         ORA #$40     
00e46e 99 06 02      STA $0206,Y     
00e471 99 0e 02      STA $020e,Y     
00e474 99 16 02      STA $0216,Y     
00e477 a2 05         LDX #$05     
00e479 a9 e1         LDA #$e1     
00e47b 99 01 02      STA $0201,Y     
00e47e c8            INY      
00e47f c8            INY      
00e480 c8            INY      
00e481 c8            INY      
00e482 ca            DEX      
00e483 10 f4         BPL $e479     
00e485 a4 02         LDY $02     
00e487 a5 00         LDA $00     
00e489 d0 05         BNE $e490     
00e48b a9 e0         LDA #$e0     
00e48d 99 01 02      STA $0201,Y     
00e490 a2 00         LDX #$00     
00e492 ad 9d 03      LDA $039d     	; 
00e495 38            SEC      
00e496 f9 00 02      SBC $0200,Y     
00e499 c9 64         CMP #$64     
00e49b 90 05         BCC $e4a2     
00e49d a9 f8         LDA #$f8     
00e49f 99 00 02      STA $0200,Y     
00e4a2 c8            INY      
00e4a3 c8            INY      
00e4a4 c8            INY      
00e4a5 c8            INY      
00e4a6 e8            INX      
00e4a7 e0 06         CPX #$06     
00e4a9 d0 e7         BNE $e492     
00e4ab a4 00         LDY $00     
00e4ad 60            RTS      
00e4ae a2 06         LDX #$06     
00e4b0 99 00 02      STA $0200,Y     
00e4b3 18            CLC      
00e4b4 69 08         ADC #$08     
00e4b6 c8            INY      
00e4b7 c8            INY      
00e4b8 c8            INY      
00e4b9 c8            INY      
00e4ba ca            DEX      
00e4bb d0 f3         BNE $e4b0     
00e4bd a4 02         LDY $02     
00e4bf 60            RTS      
00e4c0 04 00         TSB $00     
00e4c2 04 00         TSB $00     
00e4c4 00 04         BRK $04     
00e4c6 00 04         BRK $04     
00e4c8 00 08         BRK $08     
00e4ca 00 08         BRK $08     
00e4cc 08            PHP      
00e4cd 00 08         BRK $08     
00e4cf 00 80         BRK $80     
00e4d1 82 81 83      BRL $006855     
00e4d4 81 83         STA ($83,X)     
00e4d6 80 82         BRA $e45a     
00e4d8 03 03         ORA $3,S     
00e4da c3 c3         CMP $c3,S     
00e4dc bc f3 06      LDY $06f3,X     
00e4df ad 47 07      LDA $0747     	; 
00e4e2 d0 08         BNE $e4ec     
00e4e4 b5 2a         LDA $2a,X     
00e4e6 29 7f         AND #$7f     
00e4e8 c9 01         CMP #$01     
00e4ea f0 04         BEQ $e4f0     
00e4ec a2 00         LDX #$00     
00e4ee f0 07         BEQ $e4f7     
00e4f0 a5 09         LDA $09     
00e4f2 4a            LSR      
00e4f3 4a            LSR      
00e4f4 29 03         AND #$03     
00e4f6 aa            TAX      
00e4f7 ad be 03      LDA $03be     	; 
00e4fa 18            CLC      
00e4fb 7d c4 e4      ADC $e4c4,X     
00e4fe 99 00 02      STA $0200,Y     
00e501 18            CLC      
00e502 7d cc e4      ADC $e4cc,X     
00e505 99 04 02      STA $0204,Y     
00e508 ad b3 03      LDA $03b3     	; 
00e50b 18            CLC      
00e50c 7d c0 e4      ADC $e4c0,X     
00e50f 99 03 02      STA $0203,Y     
00e512 18            CLC      
00e513 7d c8 e4      ADC $e4c8,X     
00e516 99 07 02      STA $0207,Y     
00e519 bd d0 e4      LDA $e4d0,X     
00e51c 99 01 02      STA $0201,Y     
00e51f bd d4 e4      LDA $e4d4,X     
00e522 99 05 02      STA $0205,Y     
00e525 bd d8 e4      LDA $e4d8,X     
00e528 99 02 02      STA $0202,Y     
00e52b 99 06 02      STA $0206,Y     
00e52e a6 08         LDX $08     
00e530 ad d6 03      LDA $03d6     	; 
00e533 29 fc         AND #$fc     
00e535 f0 09         BEQ $e540     
00e537 a9 00         LDA #$00     
00e539 95 2a         STA $2a,X     
00e53b a9 f8         LDA #$f8     
00e53d 20 c1 e5      JSR $e5c1     	; 
00e540 60            RTS      
00e541 f9 50 f7      SBC $f750,Y     
00e544 50 fa         BVC $e540     
00e546 fb            XCE      
00e547 f8            SED      
00e548 fb            XCE      
00e549 f6 fb         INC $fb,X     
00e54b bc e5 06      LDY $06e5,X     
00e54e ad ae 03      LDA $03ae     	; 
00e551 99 03 02      STA $0203,Y     
00e554 18            CLC      
00e555 69 08         ADC #$08     
00e557 99 07 02      STA $0207,Y     
00e55a 99 0b 02      STA $020b,Y     
00e55d 18            CLC      
00e55e 69 0c         ADC #$0c     
00e560 85 05         STA $05     
00e562 b5 cf         LDA $cf,X     
00e564 20 c1 e5      JSR $e5c1     	; 
00e567 69 08         ADC #$08     
00e569 99 08 02      STA $0208,Y     
00e56c ad 0d 01      LDA $010d     	; 
00e56f 85 02         STA $02     
00e571 a9 01         LDA #$01     
00e573 85 03         STA $03     
00e575 85 04         STA $04     
00e577 99 02 02      STA $0202,Y     
00e57a 99 06 02      STA $0206,Y     
00e57d 99 0a 02      STA $020a,Y     
00e580 a9 7e         LDA #$7e     
00e582 99 01 02      STA $0201,Y     
00e585 99 09 02      STA $0209,Y     
00e588 a9 7f         LDA #$7f     
00e58a 99 05 02      STA $0205,Y     
00e58d ad 0f 07      LDA $070f     	; 
00e590 f0 15         BEQ $e5a7     
00e592 98            TYA      
00e593 18            CLC      
00e594 69 0c         ADC #$0c     
00e596 a8            TAY      
00e597 ad 0f 01      LDA $010f     	; 
00e59a 0a            ASL      
00e59b aa            TAX      
00e59c bd 41 e5      LDA $e541,X     
00e59f 85 00         STA $00     
00e5a1 bd 42 e5      LDA $e542,X     
00e5a4 20 b2 eb      JSR $ebb2     	; 
00e5a7 a6 08         LDX $08     
00e5a9 bc e5 06      LDY $06e5,X     
00e5ac ad d1 03      LDA $03d1     	; 
00e5af 29 0e         AND #$0e     
00e5b1 f0 14         BEQ $e5c7     
00e5b3 a9 f8         LDA #$f8     
00e5b5 99 14 02      STA $0214,Y     
00e5b8 99 10 02      STA $0210,Y     
00e5bb 99 0c 02      STA $020c,Y     
00e5be 99 08 02      STA $0208,Y     
00e5c1 99 04 02      STA $0204,Y     
00e5c4 99 00 02      STA $0200,Y     
00e5c7 60            RTS      
00e5c8 bc e5 06      LDY $06e5,X     
00e5cb 84 02         STY $02     
00e5cd c8            INY      
00e5ce c8            INY      
00e5cf c8            INY      
00e5d0 ad ae 03      LDA $03ae     	; 
00e5d3 20 ae e4      JSR $e4ae     	; 
00e5d6 a6 08         LDX $08     
00e5d8 b5 cf         LDA $cf,X     
00e5da 20 bb e5      JSR $e5bb     	; 
00e5dd ac 4e 07      LDY $074e     	; 
00e5e0 c0 03         CPY #$03     
00e5e2 f0 05         BEQ $e5e9     
00e5e4 ac cc 06      LDY $06cc     	; 
00e5e7 f0 02         BEQ $e5eb     
00e5e9 a9 f8         LDA #$f8     
00e5eb bc e5 06      LDY $06e5,X     
00e5ee 99 10 02      STA $0210,Y     
00e5f1 99 14 02      STA $0214,Y     
00e5f4 a9 5b         LDA #$5b     
00e5f6 ae 43 07      LDX $0743     	; 
00e5f9 f0 02         BEQ $e5fd     
00e5fb a9 75         LDA #$75     
00e5fd a6 08         LDX $08     
00e5ff c8            INY      
00e600 20 b5 e5      JSR $e5b5     	; 
00e603 a9 02         LDA #$02     
00e605 c8            INY      
00e606 20 b5 e5      JSR $e5b5     	; 
00e609 e8            INX      
00e60a 20 f6 f1      JSR $f1f6     	; 
00e60d ca            DEX      
00e60e bc e5 06      LDY $06e5,X     
00e611 0a            ASL      
00e612 48            PHA      
00e613 90 05         BCC $e61a     
00e615 a9 f8         LDA #$f8     
00e617 99 00 02      STA $0200,Y     
00e61a 68            PLA      
00e61b 0a            ASL      
00e61c 48            PHA      
00e61d 90 05         BCC $e624     
00e61f a9 f8         LDA #$f8     
00e621 99 04 02      STA $0204,Y     
00e624 68            PLA      
00e625 0a            ASL      
00e626 48            PHA      
00e627 90 05         BCC $e62e     
00e629 a9 f8         LDA #$f8     
00e62b 99 08 02      STA $0208,Y     
00e62e 68            PLA      
00e62f 0a            ASL      
00e630 48            PHA      
00e631 90 05         BCC $e638     
00e633 a9 f8         LDA #$f8     
00e635 99 0c 02      STA $020c,Y     
00e638 68            PLA      
00e639 0a            ASL      
00e63a 48            PHA      
00e63b 90 05         BCC $e642     
00e63d a9 f8         LDA #$f8
00e63f 99 10 02      STA $0210,Y     
00e642 68            PLA      
00e643 0a            ASL      
00e644 90 05         BCC $e64b     
00e646 a9 f8         LDA #$f8     
00e648 99 14 02      STA $0214,Y     
00e64b ad d1 03      LDA $03d1     	; 
00e64e 0a            ASL      
00e64f 90 03         BCC $e654     
00e651 20 b3 e5      JSR $e5b3     	; 
00e654 60            RTS      
00e655 a5 09         LDA $09     
00e657 4a            LSR      
00e658 b0 02         BCS $e65c     
00e65a d6 db         DEC $db,X     
00e65c b5 db         LDA $db,X     
00e65e 20 c1 e5      JSR $e5c1     	; 
00e661 ad b3 03      LDA $03b3     	; 
00e664 99 03 02      STA $0203,Y     
00e667 18            CLC      
00e668 69 08         ADC #$08     
00e66a 99 07 02      STA $0207,Y     
00e66d a9 02         LDA #$02     
00e66f 99 02 02      STA $0202,Y     
00e672 99 06 02      STA $0206,Y     
00e675 a9 f7         LDA #$f7     
00e677 99 01 02      STA $0201,Y     
00e67a a9 fb         LDA #$fb     
00e67c 99 05 02      STA $0205,Y     
00e67f 4c bd e6      JMP $e6bd     	; 
00e682 60            RTS      
00e683 61 62         ADC ($62,X)     
00e685 63 bc         ADC $bc,S     
00e687 f3 06         SBC ($06,S),Y     
00e689 b5 2a         LDA $2a,X     
00e68b c9 02         CMP #$02     
00e68d b0 c6         BCS $e655     
00e68f b5 db         LDA $db,X     
00e691 99 00 02      STA $0200,Y     
00e694 18            CLC      
00e695 69 08         ADC #$08     
00e697 99 04 02      STA $0204,Y     
00e69a ad b3 03      LDA $03b3     	; 
00e69d 99 03 02      STA $0203,Y     
00e6a0 99 07 02      STA $0207,Y     
00e6a3 a5 09         LDA $09     
00e6a5 4a            LSR      
00e6a6 29 03         AND #$03     
00e6a8 aa            TAX      
00e6a9 bd 82 e6      LDA $e682,X     
00e6ac c8            INY      
00e6ad 20 c1 e5      JSR $e5c1     	; 
00e6b0 88            DEY      
00e6b1 a9 02         LDA #$02     
00e6b3 99 02 02      STA $0202,Y     
00e6b6 a9 82         LDA #$82     
00e6b8 99 06 02      STA $0206,Y     
00e6bb a6 08         LDX $08     
00e6bd 60            RTS      
00e6be 76 77         ROR $77,X     
00e6c0 78            SEI      
00e6c1 79 d6 d6      ADC $d6d6,Y     
00e6c4 d9 d9 8d      CMP $8dd9,Y     
00e6c7 8d e4 e4      STA $e4e4     	; 
00e6ca 76 77         ROR $77,X     
00e6cc 78            SEI      
00e6cd 79 02 01      ADC $0102,Y     
00e6d0 02 01         COP $01     
00e6d2 ac ea 06      LDY $06ea     	; 
00e6d5 ad b9 03      LDA $03b9     	; 
00e6d8 18            CLC      
00e6d9 69 08         ADC #$08     
00e6db 85 02         STA $02     
00e6dd ad ae 03      LDA $03ae     	; 
00e6e0 85 05         STA $05     
00e6e2 a6 39         LDX $39     
00e6e4 bd ce e6      LDA $e6ce,X     
00e6e7 0d ca 03      ORA $03ca     	; 
00e6ea 85 04         STA $04     
00e6ec 8a            TXA      
00e6ed 48            PHA      
00e6ee 0a            ASL      
00e6ef 0a            ASL      
00e6f0 aa            TAX      
00e6f1 a9 01         LDA #$01     
00e6f3 85 07         STA $07     
00e6f5 85 03         STA $03     
00e6f7 bd be e6      LDA $e6be,X     
00e6fa 85 00         STA $00     
00e6fc bd bf e6      LDA $e6bf,X     
00e6ff 20 b2 eb      JSR $ebb2     	; 
00e702 c6 07         DEC $07     
00e704 10 f1         BPL $e6f7     
00e706 ac ea 06      LDY $06ea     	; 
00e709 68            PLA      
00e70a f0 2f         BEQ $e73b     
00e70c c9 03         CMP #$03     
00e70e f0 2b         BEQ $e73b     
00e710 85 00         STA $00     
00e712 a5 09         LDA $09     
00e714 4a            LSR      
00e715 29 03         AND #$03     
00e717 0d ca 03      ORA $03ca     	; 
00e71a 99 02 02      STA $0202,Y     
00e71d 99 06 02      STA $0206,Y     
00e720 a6 00         LDX $00     
00e722 ca            DEX      
00e723 f0 06         BEQ $e72b     
00e725 99 0a 02      STA $020a,Y     
00e728 99 0e 02      STA $020e,Y     
00e72b b9 06 02      LDA $0206,Y     
00e72e 09 40         ORA #$40     
00e730 99 06 02      STA $0206,Y     
00e733 b9 0e 02      LDA $020e,Y     
00e736 09 40         ORA #$40     
00e738 99 0e 02      STA $020e,Y     
00e73b 4c 64 eb      JMP $eb64     	;


;8*16 OAM Table??
00e73e fc fc aa      JSR ($aafc,X)     
00e741 ab            PLB      
00e742 ac ad fc      LDY $fcad     	; 
00e745 fc ae af      JSR ($afae,X)     
00e748 b0 b1         BCS $e6fb     
00e74a fc a5 a6      JSR ($a6a5,X)     
00e74d a7 a8         LDA [$a8]     
00e74f a9 fc         LDA #$fc     
00e751 a0 a1         LDY #$a1     
00e753 a2 a3         LDX #$a3     
00e755 a4 69         LDY $69     
00e757 a5 6a         LDA $6a     
00e759 a7 a8         LDA [$a8]     
00e75b a9 6b         LDA #$6b     
00e75d a0 6c         LDY #$6c     
00e75f a2 a3         LDX #$a3     
00e761 a4 fc         LDY $fc     
00e763 fc 96 97      JSR ($9796,X)     
00e766 98            TYA      
00e767 99 fc fc      STA $fcfc,Y     
00e76a 9a            TXS      
00e76b 9b            TXY      
00e76c 9c 9d fc      STZ $fc9d     	; 
00e76f fc 8f 8e      JSR ($8e8f,X)     
00e772 8e 8f fc      STX $fc8f     	; 
00e775 fc 95 94      JSR ($9495,X)     
00e778 94 95         STY $95,X     
00e77a fc fc dc      JSR ($dcfc,X)     
00e77d dc df df      JML ($dfdf)     
00e780 dc dc dd      JML ($dddc)     
00e783 dd de de      CMP $dede,X     
00e786 fc fc b2      JSR ($b2fc,X)     
00e789 b3 b4         LDA ($b4,S),Y     
00e78b b5 fc         LDA $fc,X     
00e78d fc b6 b3      JSR ($b3b6,X)     
00e790 b7 b5         LDA [$b5],Y     
00e792 fc fc 70      JSR ($70fc,X)     
00e795 71 72         ADC ($72),Y     
00e797 73 fc         ADC ($fc,S),Y     
00e799 fc 6e 6e      JSR ($6e6e,X)     
00e79c 6f 6f fc fc   ADC $fcfc6f     
00e7a0 6d 6d 6f      ADC $6f6d     	; 
00e7a3 6f fc fc 6f   ADC $6ffcfc     
00e7a7 6f 6e 6e fc   ADC $fc6e6e     
00e7ab fc 6f 6f      JSR ($6f6f,X)     
00e7ae 6d 6d fc      ADC $fc6d     	; 
00e7b1 fc f4 f4      JSR ($f4f4,X)     
00e7b4 f5 f5         SBC $f5,X     
00e7b6 fc fc f4      JSR ($f4fc,X)     
00e7b9 f4 f5 f5      PEA $f5f5     	; 
00e7bc fc fc f5      JSR ($f5fc,X)     
00e7bf f5 f4         SBC $f4,X     
00e7c1 f4 fc fc      PEA $fcfc     	; 
00e7c4 f5 f5         SBC $f5,X     
00e7c6 f4 f4 fc      PEA $fcf4     	; 
00e7c9 fc fc fc      JSR ($fcfc,X)     
00e7cc ef ef b9 b8   SBC $b8b9ef     
00e7d0 bb            TYX      
00e7d1 ba            TSX      
00e7d2 bc bc fc      LDY $fcbc,X     
00e7d5 fc bd bd      JSR ($bdbd,X)     
00e7d8 bc bc 7a      LDY $7abc,X     
00e7db 7b            TDC      
00e7dc da            PHX      
00e7dd db            STP      
00e7de d8            CLD      
00e7df d8            CLD      
00e7e0 cd cd ce      CMP $cecd     	; 
00e7e3 ce cf cf      DEC $cfcf     	; 
00e7e6 7d 7c d1      ADC $d17c,X     
00e7e9 8c d3 d2      STY $d2d3     	; 
00e7ec 7d 7c 89      ADC $897c,X     
00e7ef 88            DEY      
00e7f0 8b            PHB      
00e7f1 8a            TXA      
00e7f2 d5 d4         CMP $d4,X     
00e7f4 e3 e2         SBC $e2,S     
00e7f6 d3 d2         CMP ($d2,S),Y     
00e7f8 d5 d4         CMP $d4,X     
00e7fa e3 e2         SBC $e2,S     
00e7fc 8b            PHB      
00e7fd 8a            TXA      
00e7fe e5 e5         SBC $e5     
00e800 e6 e6         INC $e6     
00e802 eb            XBA      
00e803 eb            XBA      
00e804 ec ec ed      CPX $edec     	; 
00e807 ed ee ee      SBC $eeee     	; 
00e80a fc fc d0      JSR ($d0fc,X)     
00e80d d0 d7         BNE $e7e6     
00e80f d7 bf         CMP [$bf],Y     
00e811 be c1 c0      LDX $c0c1,Y     
00e814 c2 fc         REP #$fc     	; Index (16 bit) Accum (16 bit)
00e816 c4 c3         CPY $c3     
00e818 c6 c5         DEC $c5     
00e81a c8            INY      
00e81b c7 bf         CMP [$bf]     
00e81d be ca c9      LDX $c9ca,Y     
00e820 c2 fc         REP #$fc     	; Index (16 bit) Accum (16 bit)
00e822 c4 c3         CPY $c3     
00e824 c6 c5         DEC $c5     
00e826 cc cb fc      CPY $fccb     	; 
00e829 fc e8 e7      JSR ($e7e8,X)     
00e82c ea            NOP      
00e82d e9 f2         SBC #$f2     
00e82f f2 f3         SBC ($f3)     
00e831 f3 f2         SBC ($f2,S),Y     
00e833 f2 f1         SBC ($f1)     
00e835 f1 f1         SBC ($f1),Y     
00e837 f1 fc         SBC ($fc),Y     
00e839 fc f0 f0      JSR ($f0f0,X)     
00e83c fc fc fc      JSR ($fcfc,X)     
00e83f fc 0c 0c      JSR ($0c0c,X)     
00e842 00 0c         BRK $0c     
00e844 0c a8 54      TSB $54a8     	; 
00e847 3c ea 18      BIT $18ea,X     
00e84a 48            PHA      
00e84b 48            PHA      
00e84c cc c0 18      CPY $18c0     	; 
00e84f 18            CLC      
00e850 18            CLC      
00e851 90 24         BCC $e877     
00e853 ff 48 9c d2   SBC $d29c48,X     
00e857 d8            CLD      
00e858 f0 f6         BEQ $e850     
00e85a fc

00e85b 01 02      JSR ($0201,X)
00e85d 03 02         ORA $2,S     
00e85f 01 01         ORA ($01,X)     
00e861 03 03         ORA $3,S     
00e863 03 01         ORA $1,S     
00e865 01 02         ORA ($02,X)     
00e867 02 21         COP $21     
00e869 01 02         ORA ($02,X)     
00e86b 01 01         ORA ($01,X)     
00e86d 02 ff         COP $ff     
00e86f 02 02         COP $02     
00e871 01 01         ORA ($01,X)     
00e873 02 02         COP $02     
00e875 02 08         COP $08     
00e877 18            CLC

00e878 18            CLC      
00e879 19 1a 19      ORA $191a,Y     
00e87c 18            CLC

00e87d b5 cf         LDA $cf,X     
00e87f 85 02         STA $02     
00e881 ad ae 03      LDA $03ae     	; 
00e884 85 05         STA $05     
00e886 bc e5 06      LDY $06e5,X     
00e889 84 eb         STY $eb     
00e88b a9 00         LDA #$00     
00e88d 8d 09 01      STA $0109     	; 
00e890 b5 46         LDA $46,X     
00e892 85 03         STA $03     
00e894 bd c5 03      LDA $03c5,X     
00e897 85 04         STA $04     
00e899 b5 16         LDA $16,X     
00e89b c9 0d         CMP #$0d     
00e89d d0 0a         BNE $e8a9     
00e89f b4 58         LDY $58,X     
00e8a1 30 06         BMI $e8a9     
00e8a3 bc 8a 07      LDY $078a,X     
00e8a6 f0 01         BEQ $e8a9     
00e8a8 60            RTS      
00e8a9 b5 1e         LDA $1e,X     
00e8ab 85 ed         STA $ed     
00e8ad 29 1f         AND #$1f     
00e8af a8            TAY      
00e8b0 b5 16         LDA $16,X     
00e8b2 c9 35         CMP #$35     
00e8b4 d0 08         BNE $e8be     
00e8b6 a0 00         LDY #$00     
00e8b8 a9 01         LDA #$01     
00e8ba 85 03         STA $03     
00e8bc a9 15         LDA #$15     
00e8be c9 33         CMP #$33     
00e8c0 d0 13         BNE $e8d5     
00e8c2 c6 02         DEC $02     
00e8c4 a9 03         LDA #$03     
00e8c6 bc 8a 07      LDY $078a,X     
00e8c9 f0 02         BEQ $e8cd     
00e8cb 09 20         ORA #$20     
00e8cd 85 04         STA $04     
00e8cf a0 00         LDY #$00     
00e8d1 84 ed         STY $ed     
00e8d3 a9 08         LDA #$08     
00e8d5 c9 32         CMP #$32     
00e8d7 d0 08         BNE $e8e1     
00e8d9 a0 03         LDY #$03     
00e8db ae 0e 07      LDX $070e     	; 
00e8de bd 78 e8      LDA $e878,X     
00e8e1 85 ef         STA $ef     
00e8e3 84 ec         STY $ec     
00e8e5 a6 08         LDX $08     
00e8e7 c9 0c         CMP #$0c     
00e8e9 d0 07         BNE $e8f2     
00e8eb b5 a0         LDA $a0,X     
00e8ed 30 03         BMI $e8f2     
00e8ef ee 09 01      INC $0109     	; 
00e8f2 ad 6a 03      LDA $036a     	; 
00e8f5 f0 09         BEQ $e900     
00e8f7 a0 16         LDY #$16     
00e8f9 c9 01         CMP #$01     
00e8fb f0 01         BEQ $e8fe     
00e8fd c8            INY      
00e8fe 84 ef         STY $ef     
00e900 a4 ef         LDY $ef     
00e902 c0 06         CPY #$06     
00e904 d0 1d         BNE $e923     
00e906 b5 1e         LDA $1e,X     
00e908 c9 02         CMP #$02     
00e90a 90 04         BCC $e910     
00e90c a2 04         LDX #$04     
00e90e 86 ec         STX $ec     
00e910 29 20         AND #$20     
00e912 0d 47 07      ORA $0747     	; 
00e915 d0 0c         BNE $e923     
00e917 a5 09         LDA $09     
00e919 29 08         AND #$08     
00e91b d0 06         BNE $e923     
00e91d a5 03         LDA $03     
00e91f 49 03         EOR #$03     
00e921 85 03         STA $03     
00e923 b9 5b e8      LDA $e85b,Y     
00e926 05 04         ORA $04     
00e928 85 04         STA $04     
00e92a b9 40 e8      LDA $e840,Y     
00e92d aa            TAX      
00e92e a4 ec         LDY $ec     
00e930 ad 6a 03      LDA $036a     	; 
00e933 f0 30         BEQ $e965     
00e935 c9 01         CMP #$01     
00e937 d0 13         BNE $e94c     
00e939 ad 63 03      LDA $0363     	; 
00e93c 10 02         BPL $e940     
00e93e a2 de         LDX #$de     
00e940 a5 ed         LDA $ed     
00e942 29 20         AND #$20     
00e944 f0 03         BEQ $e949     
00e946 8e 09 01      STX $0109     	; 
00e949 4c 4b ea      JMP $ea4b     	; 
00e94c ad 63 03      LDA $0363     	; 
00e94f 29 01         AND #$01     
00e951 f0 02         BEQ $e955     
00e953 a2 e4         LDX #$e4     
00e955 a5 ed         LDA $ed     
00e957 29 20         AND #$20     
00e959 f0 ee         BEQ $e949     
00e95b a5 02         LDA $02     
00e95d 38            SEC      
00e95e e9 10         SBC #$10     
00e960 85 02         STA $02     
00e962 4c 46 e9      JMP $e946     	; 
00e965 e0 24         CPX #$24     
00e967 d0 11         BNE $e97a     
00e969 c0 05         CPY #$05     
00e96b d0 0a         BNE $e977     
00e96d a2 30         LDX #$30     
00e96f a9 02         LDA #$02     
00e971 85 03         STA $03     
00e973 a9 05         LDA #$05     
00e975 85 ec         STA $ec     
00e977 4c ca e9      JMP $e9ca     	; 
00e97a e0 90         CPX #$90     
00e97c d0 12         BNE $e990     
00e97e a5 ed         LDA $ed     
00e980 29 20         AND #$20     
00e982 d0 09         BNE $e98d     
00e984 ad 8f 07      LDA $078f     	; 
00e987 c9 10         CMP #$10     
00e989 b0 02         BCS $e98d     
00e98b a2 96         LDX #$96     
00e98d 4c 37 ea      JMP $ea37     	; 
00e990 a5 ef         LDA $ef     
00e992 c9 04         CMP #$04     
00e994 b0 10         BCS $e9a6     
00e996 c0 02         CPY #$02     
00e998 90 0c         BCC $e9a6     
00e99a a2 5a         LDX #$5a     
00e99c a4 ef         LDY $ef     
00e99e c0 02         CPY #$02     
00e9a0 d0 04         BNE $e9a6     
00e9a2 a2 7e         LDX #$7e     
00e9a4 e6 02         INC $02     
00e9a6 a5 ec         LDA $ec     
00e9a8 c9 04         CMP #$04     
00e9aa d0 1e         BNE $e9ca     
00e9ac a2 72         LDX #$72     
00e9ae e6 02         INC $02     
00e9b0 a4 ef         LDY $ef     
00e9b2 c0 02         CPY #$02     
00e9b4 f0 04         BEQ $e9ba     
00e9b6 a2 66         LDX #$66     
00e9b8 e6 02         INC $02     
00e9ba c0 06         CPY #$06     
00e9bc d0 0c         BNE $e9ca     
00e9be a2 54         LDX #$54     
00e9c0 a5 ed         LDA $ed     
00e9c2 29 20         AND #$20     
00e9c4 d0 04         BNE $e9ca     
00e9c6 a2 8a         LDX #$8a     
00e9c8 c6 02         DEC $02     
00e9ca a4 08         LDY $08     
00e9cc a5 ef         LDA $ef     
00e9ce c9 05         CMP #$05     
00e9d0 d0 0c         BNE $e9de     
00e9d2 a5 ed         LDA $ed     
00e9d4 f0 24         BEQ $e9fa     
00e9d6 29 08         AND #$08     
00e9d8 f0 5d         BEQ $ea37     
00e9da a2 b4         LDX #$b4     
00e9dc d0 1c         BNE $e9fa     
00e9de e0 48         CPX #$48     
00e9e0 f0 18         BEQ $e9fa     
00e9e2 b9 96 07      LDA $0796,Y     
00e9e5 c9 05         CMP #$05     
00e9e7 b0 4e         BCS $ea37     
00e9e9 e0 3c         CPX #$3c     
00e9eb d0 0d         BNE $e9fa     
00e9ed c9 01         CMP #$01     
00e9ef f0 46         BEQ $ea37     
00e9f1 e6 02         INC $02     
00e9f3 e6 02         INC $02     
00e9f5 e6 02         INC $02     
00e9f7 4c 29 ea      JMP $ea29     	; 
00e9fa a5 ef         LDA $ef     
00e9fc c9 06         CMP #$06     
00e9fe f0 37         BEQ $ea37     
00ea00 c9 08         CMP #$08     
00ea02 f0 33         BEQ $ea37     
00ea04 c9 0c         CMP #$0c     
00ea06 f0 2f         BEQ $ea37     
00ea08 c9 18         CMP #$18     
00ea0a b0 2b         BCS $ea37     
00ea0c a0 00         LDY #$00     
00ea0e c9 15         CMP #$15     
00ea10 d0 10         BNE $ea22     
00ea12 c8            INY      
00ea13 ad 5f 07      LDA $075f     	; 
00ea16 c9 07         CMP #$07     
00ea18 b0 1d         BCS $ea37     
00ea1a a2 a2         LDX #$a2     
00ea1c a9 03         LDA #$03     
00ea1e 85 ec         STA $ec     
00ea20 d0 15         BNE $ea37     
00ea22 a5 09         LDA $09     
00ea24 39 76 e8      AND $e876,Y     
00ea27 d0 0e         BNE $ea37     
00ea29 a5 ed         LDA $ed     
00ea2b 29 a0         AND #$a0     
00ea2d 0d 47 07      ORA $0747     	; 
00ea30 d0 05         BNE $ea37     
00ea32 8a            TXA      
00ea33 18            CLC      
00ea34 69 06         ADC #$06     
00ea36 aa            TAX      
00ea37 a5 ed         LDA $ed     
00ea39 29 20         AND #$20     
00ea3b f0 0e         BEQ $ea4b     
00ea3d a5 ef         LDA $ef     
00ea3f c9 04         CMP #$04     
00ea41 90 08         BCC $ea4b     
00ea43 a0 01         LDY #$01     
00ea45 8c 09 01      STY $0109     	; 
00ea48 88            DEY      
00ea49 84 ec         STY $ec     
00ea4b a4 eb         LDY $eb     
00ea4d 20 aa eb      JSR $ebaa     	; 
00ea50 20 aa eb      JSR $ebaa     	; 
00ea53 20 aa eb      JSR $ebaa     	; 
00ea56 a6 08         LDX $08     
00ea58 bc e5 06      LDY $06e5,X     
00ea5b a5 ef         LDA $ef     
00ea5d c9 08         CMP #$08     
00ea5f d0 03         BNE $ea64     
00ea61 4c 64 eb      JMP $eb64     	; 
00ea64 ad 09 01      LDA $0109     	; 
00ea67 f0 3d         BEQ $eaa6     
00ea69 b9 02 02      LDA $0202,Y     
00ea6c 09 80         ORA #$80     
00ea6e c8            INY      
00ea6f c8            INY      
00ea70 20 b5 e5      JSR $e5b5     	; 
00ea73 88            DEY      
00ea74 88            DEY      
00ea75 98            TYA      
00ea76 aa            TAX      
00ea77 a5 ef         LDA $ef     
00ea79 c9 05         CMP #$05     
00ea7b f0 0d         BEQ $ea8a     
00ea7d c9 11         CMP #$11     
00ea7f f0 09         BEQ $ea8a     
00ea81 c9 15         CMP #$15     
00ea83 b0 05         BCS $ea8a     
00ea85 8a            TXA      
00ea86 18            CLC      
00ea87 69 08         ADC #$08     
00ea89 aa            TAX      
00ea8a bd 01 02      LDA $0201,X     
00ea8d 48            PHA      
00ea8e bd 05 02      LDA $0205,X     
00ea91 48            PHA      
00ea92 b9 11 02      LDA $0211,Y     
00ea95 9d 01 02      STA $0201,X     
00ea98 b9 15 02      LDA $0215,Y     
00ea9b 9d 05 02      STA $0205,X     
00ea9e 68            PLA      
00ea9f 99 15 02      STA $0215,Y     
00eaa2 68            PLA      
00eaa3 99 11 02      STA $0211,Y     
00eaa6 ad 6a 03      LDA $036a     	; 
00eaa9 d0 b6         BNE $ea61     
00eaab a5 ef         LDA $ef     
00eaad a6 ec         LDX $ec     
00eaaf c9 05         CMP #$05     
00eab1 d0 03         BNE $eab6     
00eab3 4c 64 eb      JMP $eb64     	; 
00eab6 c9 07         CMP #$07     
00eab8 f0 1d         BEQ $ead7     
00eaba c9 0d         CMP #$0d     
00eabc f0 19         BEQ $ead7     
00eabe c9 0c         CMP #$0c     
00eac0 f0 15         BEQ $ead7     
00eac2 c9 12         CMP #$12     
00eac4 d0 04         BNE $eaca     
00eac6 e0 05         CPX #$05     
00eac8 d0 48         BNE $eb12     
00eaca c9 15         CMP #$15     
00eacc d0 05         BNE $ead3     
00eace a9 42         LDA #$42     
00ead0 99 16 02      STA $0216,Y     
00ead3 e0 02         CPX #$02     
00ead5 90 3b         BCC $eb12     
00ead7 ad 6a 03      LDA $036a     	; 
00eada d0 36         BNE $eb12     
00eadc b9 02 02      LDA $0202,Y     
00eadf 29 a3         AND #$a3     
00eae1 99 02 02      STA $0202,Y     
00eae4 99 0a 02      STA $020a,Y     
00eae7 99 12 02      STA $0212,Y     
00eaea 09 40         ORA #$40     
00eaec e0 05         CPX #$05     
00eaee d0 02         BNE $eaf2     
00eaf0 09 80         ORA #$80     
00eaf2 99 06 02      STA $0206,Y     
00eaf5 99 0e 02      STA $020e,Y     
00eaf8 99 16 02      STA $0216,Y     
00eafb e0 04         CPX #$04     
00eafd d0 13         BNE $eb12     
00eaff b9 0a 02      LDA $020a,Y     
00eb02 09 80         ORA #$80     
00eb04 99 0a 02      STA $020a,Y     
00eb07 99 12 02      STA $0212,Y     
00eb0a 09 40         ORA #$40     
00eb0c 99 0e 02      STA $020e,Y     
00eb0f 99 16 02      STA $0216,Y     
00eb12 a5 ef         LDA $ef     
00eb14 c9 11         CMP #$11     
00eb16 d0 36         BNE $eb4e     
00eb18 ad 09 01      LDA $0109     	; 
00eb1b d0 21         BNE $eb3e     
00eb1d b9 12 02      LDA $0212,Y     
00eb20 29 81         AND #$81     
00eb22 99 12 02      STA $0212,Y     
00eb25 b9 16 02      LDA $0216,Y     
00eb28 09 41         ORA #$41     
00eb2a 99 16 02      STA $0216,Y     
00eb2d ae 8f 07      LDX $078f     	; 
00eb30 e0 10         CPX #$10     
00eb32 b0 30         BCS $eb64     
00eb34 99 0e 02      STA $020e,Y     
00eb37 29 81         AND #$81     
00eb39 99 0a 02      STA $020a,Y     
00eb3c 90 26         BCC $eb64     
00eb3e b9 02 02      LDA $0202,Y     
00eb41 29 81         AND #$81     
00eb43 99 02 02      STA $0202,Y     
00eb46 b9 06 02      LDA $0206,Y     
00eb49 09 41         ORA #$41     
00eb4b 99 06 02      STA $0206,Y     
00eb4e a5 ef         LDA $ef     
00eb50 c9 18         CMP #$18     
00eb52 90 10         BCC $eb64     
00eb54 a9 82         LDA #$82     
00eb56 99 0a 02      STA $020a,Y     
00eb59 99 12 02      STA $0212,Y     
00eb5c 09 40         ORA #$40     
00eb5e 99 0e 02      STA $020e,Y     
00eb61 99 16 02      STA $0216,Y     
00eb64 a6 08         LDX $08     
00eb66 ad d1 03      LDA $03d1     	; 
00eb69 4a            LSR      
00eb6a 4a            LSR      
00eb6b 4a            LSR      
00eb6c 48            PHA      
00eb6d 90 05         BCC $eb74     
00eb6f a9 04         LDA #$04     
00eb71 20 c1 eb      JSR $ebc1     	; 
00eb74 68            PLA      
00eb75 4a            LSR      
00eb76 48            PHA      
00eb77 90 05         BCC $eb7e     
00eb79 a9 00         LDA #$00     
00eb7b 20 c1 eb      JSR $ebc1     	; 
00eb7e 68            PLA      
00eb7f 4a            LSR      
00eb80 4a            LSR      
00eb81 48            PHA      
00eb82 90 05         BCC $eb89     
00eb84 a9 10         LDA #$10     
00eb86 20 b7 eb      JSR $ebb7     	; 
00eb89 68            PLA      
00eb8a 4a            LSR      
00eb8b 48            PHA      
00eb8c 90 05         BCC $eb93     
00eb8e a9 08         LDA #$08     
00eb90 20 b7 eb      JSR $ebb7     	; 
00eb93 68            PLA      
00eb94 4a            LSR      
00eb95 90 12         BCC $eba9     
00eb97 20 b7 eb      JSR $ebb7     	; 
00eb9a b5 16         LDA $16,X     
00eb9c c9 0c         CMP #$0c     
00eb9e f0 09         BEQ $eba9     
00eba0 b5 b6         LDA $b6,X     
00eba2 c9 02         CMP #$02     
00eba4 d0 03         BNE $eba9     
00eba6 20 98 c9      JSR $c998     	; 
00eba9 60            RTS


; this makes an 8*16 sprite.
00ebaa bd 3e e7      LDA $e73e,X     
00ebad 85 00         STA $00            ; sprite tile index
00ebaf bd 3f e7      LDA $e73f,X

00ebb2 85 01         STA $01            ; sprite tile index.
00ebb4 4c 82 f2      JMP $f282          ; Place sprite in oam table and rts.

00ebb7 18            CLC      
00ebb8 7d e5 06      ADC $06e5,X     
00ebbb a8            TAY      
00ebbc a9 f8         LDA #$f8     
00ebbe 4c c1 e5      JMP $e5c1     	; 
00ebc1 18            CLC      
00ebc2 7d e5 06      ADC $06e5,X     
00ebc5 a8            TAY      
00ebc6 20 4a ec      JSR $ec4a     	; 
00ebc9 99 10 02      STA $0210,Y     
00ebcc 60            RTS

00ebcd 85 85         STA $85     
00ebcf 86 86         STX $86     
00ebd1 ad bc 03      LDA $03bc     	; 
00ebd4 85 02         STA $02     
00ebd6 ad b1 03      LDA $03b1     	; 
00ebd9 85 05         STA $05     
00ebdb a9 03         LDA #$03     
00ebdd 85 04         STA $04     
00ebdf 4a            LSR      
00ebe0 85 03         STA $03     
00ebe2 bc ec 06      LDY $06ec,X     
00ebe5 a2 00         LDX #$00     
00ebe7 bd cd eb      LDA $ebcd,X     
00ebea 85 00         STA $00     
00ebec bd ce eb      LDA $ebce,X     
00ebef 20 b2 eb      JSR $ebb2     	; 
00ebf2 e0 04         CPX #$04     
00ebf4 d0 f1         BNE $ebe7     
00ebf6 a6 08         LDX $08     
00ebf8 bc ec 06      LDY $06ec,X     
00ebfb ad 4e 07      LDA $074e     	; 
00ebfe c9 01         CMP #$01     
00ec00 f0 08         BEQ $ec0a     
00ec02 a9 86         LDA #$86     
00ec04 99 01 02      STA $0201,Y     
00ec07 99 05 02      STA $0205,Y     
00ec0a bd e8 03      LDA $03e8,X     
00ec0d c9 c4         CMP #$c4     
00ec0f d0 24         BNE $ec35     
00ec11 a9 87         LDA #$87     
00ec13 c8            INY      
00ec14 20 bb e5      JSR $e5bb     	; 
00ec17 88            DEY      
00ec18 a9 03         LDA #$03     
00ec1a ae 4e 07      LDX $074e     	; 
00ec1d ca            DEX      
00ec1e f0 01         BEQ $ec21     
00ec20 4a            LSR      
00ec21 a6 08         LDX $08     
00ec23 99 02 02      STA $0202,Y     
00ec26 09 40         ORA #$40     
00ec28 99 06 02      STA $0206,Y     
00ec2b 09 80         ORA #$80     
00ec2d 99 0e 02      STA $020e,Y     
00ec30 29 83         AND #$83     
00ec32 99 0a 02      STA $020a,Y     
00ec35 ad d4 03      LDA $03d4     	; 
00ec38 48            PHA      
00ec39 29 04         AND #$04     
00ec3b f0 08         BEQ $ec45     
00ec3d a9 f8         LDA #$f8     
00ec3f 99 04 02      STA $0204,Y     
00ec42 99 0c 02      STA $020c,Y     
00ec45 68            PLA      
00ec46 29 08         AND #$08     
00ec48 f0 08         BEQ $ec52     
00ec4a a9 f8         LDA #$f8     
00ec4c 99 00 02      STA $0200,Y     
00ec4f 99 08 02      STA $0208,Y     
00ec52 60            RTS      
00ec53 a9 02         LDA #$02     
00ec55 85 00         STA $00     
00ec57 a9 75         LDA #$75     
00ec59 a4 0e         LDY $0e     
00ec5b c0 05         CPY #$05     
00ec5d f0 06         BEQ $ec65     
00ec5f a9 03         LDA #$03     
00ec61 85 00         STA $00     
00ec63 a9 84         LDA #$84     
00ec65 bc ec 06      LDY $06ec,X     
00ec68 c8            INY      
00ec69 20 bb e5      JSR $e5bb     	; 
00ec6c a5 09         LDA $09     
00ec6e 0a            ASL      
00ec6f 0a            ASL      
00ec70 0a            ASL      
00ec71 0a            ASL      
00ec72 29 c0         AND #$c0     
00ec74 05 00         ORA $00     
00ec76 c8            INY      
00ec77 20 bb e5      JSR $e5bb     	; 
00ec7a 88            DEY      
00ec7b 88            DEY      
00ec7c ad bc 03      LDA $03bc     	; 
00ec7f 20 c1 e5      JSR $e5c1     	; 
00ec82 ad b1 03      LDA $03b1     	; 
00ec85 99 03 02      STA $0203,Y     
00ec88 bd f1 03      LDA $03f1,X     
00ec8b 38            SEC      
00ec8c ed 1c 07      SBC $071c     	; 
00ec8f 85 00         STA $00     
00ec91 38            SEC      
00ec92 ed b1 03      SBC $03b1     	; 
00ec95 65 00         ADC $00     
00ec97 69 06         ADC #$06     
00ec99 99 07 02      STA $0207,Y     
00ec9c ad bd 03      LDA $03bd     	; 
00ec9f 99 08 02      STA $0208,Y     
00eca2 99 0c 02      STA $020c,Y     
00eca5 ad b2 03      LDA $03b2     	; 
00eca8 99 0b 02      STA $020b,Y     
00ecab a5 00         LDA $00     
00ecad 38            SEC      
00ecae ed b2 03      SBC $03b2     	; 
00ecb1 65 00         ADC $00     
00ecb3 69 06         ADC #$06     
00ecb5 99 0f 02      STA $020f,Y     
00ecb8 ad d4 03      LDA $03d4     	; 
00ecbb 20 46 ec      JSR $ec46     	; 
00ecbe ad d4 03      LDA $03d4     	; 
00ecc1 0a            ASL      
00ecc2 90 05         BCC $ecc9     
00ecc4 a9 f8         LDA #$f8     
00ecc6 20 c1 e5      JSR $e5c1     	; 
00ecc9 a5 00         LDA $00     
00eccb 10 10         BPL $ecdd     
00eccd b9 03 02      LDA $0203,Y     
00ecd0 d9 07 02      CMP $0207,Y     
00ecd3 90 08         BCC $ecdd     
00ecd5 a9 f8         LDA #$f8     
00ecd7 99 04 02      STA $0204,Y     
00ecda 99 0c 02      STA $020c,Y     
00ecdd 60            RTS

00ecde bc f1 06      LDY $06f1,X     
00ece1 ad ba 03      LDA $03ba     	; 
00ece4 99 00 02      STA $0200,Y     
00ece7 ad af 03      LDA $03af     	; 
00ecea 99 03 02      STA $0203,Y     
00eced a5 09         LDA $09     
00ecef 4a            LSR      
00ecf0 4a            LSR      
00ecf1 48            PHA      
00ecf2 29 01         AND #$01     
00ecf4 49 64         EOR #$64     
00ecf6 99 01 02      STA $0201,Y     
00ecf9 68            PLA      
00ecfa 4a            LSR      
00ecfb 4a            LSR      
00ecfc a9 02         LDA #$02     
00ecfe 90 02         BCC $ed02     
00ed00 09 c0         ORA #$c0     
00ed02 99 02 02      STA $0202,Y     
00ed05 60            RTS

00ed06 68            PLA      
00ed07 67 66         ADC [$66]     
00ed09 bc ec 06      LDY $06ec,X     
00ed0c b5 24         LDA $24,X     
00ed0e f6 24         INC $24,X     
00ed10 4a            LSR      
00ed11 29 07         AND #$07     
00ed13 c9 03         CMP #$03     
00ed15 b0 4a         BCS $ed61     
00ed17 aa            TAX      
00ed18 bd 06 ed      LDA $ed06,X     
00ed1b c8            INY      
00ed1c 20 bb e5      JSR $e5bb     	; 
00ed1f 88            DEY      
00ed20 a6 08         LDX $08     
00ed22 ad ba 03      LDA $03ba     	; 
00ed25 38            SEC      
00ed26 e9 04         SBC #$04     
00ed28 99 00 02      STA $0200,Y     
00ed2b 99 08 02      STA $0208,Y     
00ed2e 18            CLC      
00ed2f 69 08         ADC #$08     
00ed31 99 04 02      STA $0204,Y     
00ed34 99 0c 02      STA $020c,Y     
00ed37 ad af 03      LDA $03af     	; 
00ed3a 38            SEC      
00ed3b e9 04         SBC #$04     
00ed3d 99 03 02      STA $0203,Y     
00ed40 99 07 02      STA $0207,Y     
00ed43 18            CLC      
00ed44 69 08         ADC #$08     
00ed46 99 0b 02      STA $020b,Y     
00ed49 99 0f 02      STA $020f,Y     
00ed4c a9 02         LDA #$02     
00ed4e 99 02 02      STA $0202,Y     
00ed51 a9 82         LDA #$82     
00ed53 99 06 02      STA $0206,Y     
00ed56 a9 42         LDA #$42     
00ed58 99 0a 02      STA $020a,Y     
00ed5b a9 c2         LDA #$c2     
00ed5d 99 0e 02      STA $020e,Y     
00ed60 60            RTS


00ed61 a9 00         LDA #$00     
00ed63 95 24         STA $24,X     
00ed65 60            RTS      
00ed66 bc e5 06      LDY $06e5,X     
00ed69 a9 5b         LDA #$5b     
00ed6b c8            INY      
00ed6c 20 b5 e5      JSR $e5b5     	; 
00ed6f c8            INY      
00ed70 a9 02         LDA #$02     
00ed72 20 b5 e5      JSR $e5b5     	; 
00ed75 88            DEY      
00ed76 88            DEY      
00ed77 ad ae 03      LDA $03ae     	; 
00ed7a 99 03 02      STA $0203,Y     
00ed7d 99 0f 02      STA $020f,Y     
00ed80 18            CLC      
00ed81 69 08         ADC #$08     
00ed83 99 07 02      STA $0207,Y     
00ed86 99 13 02      STA $0213,Y     
00ed89 18            CLC      
00ed8a 69 08         ADC #$08     
00ed8c 99 0b 02      STA $020b,Y     
00ed8f 99 17 02      STA $0217,Y     
00ed92 b5 cf         LDA $cf,X     
00ed94 aa            TAX      
00ed95 48            PHA      
00ed96 e0 20         CPX #$20     
00ed98 b0 02         BCS $ed9c     
00ed9a a9 f8         LDA #$f8     
00ed9c 20 be e5      JSR $e5be     	; 
00ed9f 68            PLA      
00eda0 18            CLC      
00eda1 69 80         ADC #$80     
00eda3 aa            TAX      
00eda4 e0 20         CPX #$20     
00eda6 b0 02         BCS $edaa     
00eda8 a9 f8         LDA #$f8     
00edaa 99 0c 02      STA $020c,Y     
00edad 99 10 02      STA $0210,Y     
00edb0 99 14 02      STA $0214,Y     
00edb3 ad d1 03      LDA $03d1     	; 
00edb6 48            PHA      
00edb7 29 08         AND #$08     
00edb9 f0 08         BEQ $edc3     
00edbb a9 f8         LDA #$f8     
00edbd 99 00 02      STA $0200,Y     
00edc0 99 0c 02      STA $020c,Y     
00edc3 68            PLA      
00edc4 48            PHA      
00edc5 29 04         AND #$04     
00edc7 f0 08         BEQ $edd1     
00edc9 a9 f8         LDA #$f8     
00edcb 99 04 02      STA $0204,Y     
00edce 99 10 02      STA $0210,Y     
00edd1 68            PLA      
00edd2 29 02         AND #$02     
00edd4 f0 08         BEQ $edde     
00edd6 a9 f8         LDA #$f8     
00edd8 99 08 02      STA $0208,Y     
00eddb 99 14 02      STA $0214,Y     
00edde a6 08         LDX $08     
00ede0 60            RTS



00ede1 a4 b5         LDY $b5     
00ede3 88            DEY      
00ede4 d0 20         BNE $ee06     
00ede6 ad d3 03      LDA $03d3     	; 
00ede9 29 08         AND #$08     
00edeb d0 19         BNE $ee06     
00eded bc ee 06      LDY $06ee,X     
00edf0 ad b0 03      LDA $03b0     	; 
00edf3 99 03 02      STA $0203,Y     
00edf6 ad bb 03      LDA $03bb     	; 
00edf9 99 00 02      STA $0200,Y     
00edfc a9 74         LDA #$74     
00edfe 99 01 02      STA $0201,Y     
00ee01 a9 02         LDA #$02     
00ee03 99 02 02      STA $0202,Y     
00ee06 60            RTS

00ee07 20 28 c8      JSR $c828     	; 
00ee0a 18            CLC      
00ee0b 00 40         BRK $40     
00ee0d 50 58         BVC $ee67     
00ee0f 80 88         BRA $ed99     
00ee11 b8            CLV      
00ee12 78            SEI      
00ee13 60            RTS      
00ee14 a0 b0         LDY #$b0     
00ee16 b8            CLV      
00ee17 00 01         BRK $01     
00ee19 02 03         COP $03     
00ee1b 04 05         TSB $05     
00ee1d 06 07         ASL $07     
00ee1f 08            PHP      
00ee20 09 0a         ORA #$0a     
00ee22 0b            PHD      
00ee23 0c 0d 0e      TSB $0e0d     	; 
00ee26 0f 10 11 12   ORA $121110     
00ee2a 13 14         ORA ($14,S),Y     
00ee2c 15 16         ORA $16,X     
00ee2e 17 18         ORA [$18],Y     
00ee30 19 1a 1b      ORA $1b1a,Y     
00ee33 1c 1d 1e      TRB $1e1d     	; 
00ee36 1f 20 21 22   ORA $222120,X     
00ee3a 23 24         AND $24,S     
00ee3c 25 26         AND $26     
00ee3e 27 08         AND [$08]     
00ee40 09 28         ORA #$28     
00ee42 29 2a         AND #$2a     
00ee44 2b            PLD      
00ee45 2c 2d 08      BIT $082d     	; 
00ee48 09 0a         ORA #$0a     
00ee4a 0b            PHD      
00ee4b 0c 30 2c      TSB $2c30     	; 
00ee4e 2d 08 09      AND $0908     	; 
00ee51 0a            ASL      
00ee52 0b            PHD      
00ee53 2e 2f 2c      ROL $2c2f     	; 
00ee56 2d 08 09      AND $0908     	; 
00ee59 28            PLP      
00ee5a 29 2a         AND #$2a     
00ee5c 2b            PLD      
00ee5d 5c 5d 08 09   JML $09085d     
00ee61 0a            ASL      
00ee62 0b            PHD      
00ee63 0c 0d 5e      TSB $5e0d     	; 
00ee66 5f fc fc 08   EOR $08fcfc,X     
00ee6a 09 58         ORA #$58     
00ee6c 59 5a 5a      EOR $5a5a,Y     
00ee6f 08            PHP      
00ee70 09 28         ORA #$28     
00ee72 29 2a         AND #$2a     
00ee74 2b            PLD      
00ee75 0e 0f fc      ASL $fc0f     	; 
00ee78 fc fc fc      JSR ($fcfc,X)     
00ee7b 32 33         AND ($33)     
00ee7d 34 35         BIT $35,X     
00ee7f fc fc fc      JSR ($fcfc,X)     
00ee82 fc 36 37      JSR ($3736,X)     
00ee85 38            SEC      
00ee86 39 fc fc      AND $fcfc,Y     
00ee89 fc fc 3a      JSR ($3afc,X)     
00ee8c 37 3b         AND [$3b],Y     
00ee8e 3c fc fc      BIT $fcfc,X     
00ee91 fc fc 3d      JSR ($3dfc,X)     
00ee94 3e 3f 40      ROL $403f,X     
00ee97 fc fc fc      JSR ($fcfc,X)     
00ee9a fc 32 41      JSR ($4132,X)     
00ee9d 42 43         WDM $43     
00ee9f fc fc fc      JSR ($fcfc,X)     
00eea2 fc 32 33      JSR ($3332,X)     
00eea5 44 45 fc      MVP $45,$fc     
00eea8 fc fc fc      JSR ($fcfc,X)     
00eeab 32 33         AND ($33)     
00eead 44 47 fc      MVP $47,$fc     
00eeb0 fc fc fc      JSR ($fcfc,X)     
00eeb3 32 33         AND ($33)     
00eeb5 48            PHA      
00eeb6 49 fc         EOR #$fc     
00eeb8 fc fc fc      JSR ($fcfc,X)     
00eebb 32 33         AND ($33)     
00eebd 90 91         BCC $ee50     
00eebf fc fc fc      JSR ($fcfc,X)     
00eec2 fc 3a 37      JSR ($373a,X)     
00eec5 92 93         STA ($93)     
00eec7 fc fc fc      JSR ($fcfc,X)     
00eeca fc 9e 9e      JSR ($9e9e,X)     
00eecd 9f 9f fc fc   STA $fcfc9f,X     
00eed1 fc fc 3a      JSR ($3afc,X)     
00eed4 37 4f         AND [$4f],Y     
00eed6 4f fc fc 00   EOR $00fcfc     
00eeda 01 4c         ORA ($4c,X)     
00eedc 4d 4e 4e      EOR $4e4e     	; 
00eedf 00 01         BRK $01     
00eee1 4c 4d 4a      JMP $4a4d     	; 
00eee4 4a            LSR      
00eee5 4b            PHK      
00eee6 4b            PHK      
00eee7 31 46         AND ($46),Y


00eee9 ad 9e 07      LDA $079e     	; 
00eeec f0 05         BEQ $eef3     
00eeee a5 09         LDA $09     
00eef0 4a            LSR      
00eef1 b0 40         BCS $ef33

00eef3 a5 0e         LDA $0e     
00eef5 c9 0b         CMP #$0b     
00eef7 f0 47         BEQ $ef40     
00eef9 ad 0b 07      LDA $070b     	; 
00eefc d0 3c         BNE $ef3a     
00eefe ac 04 07      LDY $0704     	; 
00ef01 f0 31         BEQ $ef34     
00ef03 a5 1d         LDA $1d     
00ef05 c9 00         CMP #$00     
00ef07 f0 2b         BEQ $ef34     
00ef09 20 34 ef      JSR $ef34     	; 
00ef0c a5 09         LDA $09     
00ef0e 29 04         AND #$04     
00ef10 d0 21         BNE $ef33     
00ef12 aa            TAX      
00ef13 ac e4 06      LDY $06e4     	; 
00ef16 a5 33         LDA $33     
00ef18 4a            LSR      
00ef19 b0 04         BCS $ef1f     
00ef1b c8            INY      
00ef1c c8            INY      
00ef1d c8            INY      
00ef1e c8            INY      
00ef1f ad 54 07      LDA $0754     	; 
00ef22 f0 09         BEQ $ef2d     
00ef24 b9 19 02      LDA $0219,Y     
00ef27 cd b5 ee      CMP $eeb5     	; 
00ef2a f0 07         BEQ $ef33     
00ef2c e8            INX      
00ef2d bd e7 ee      LDA $eee7,X     
00ef30 99 19 02      STA $0219,Y     
00ef33 60            RTS


00ef34 20 ec ef      JSR $efec     	; 
00ef37 4c 45 ef      JMP $ef45     	; 
00ef3a 20 b0 f0      JSR $f0b0     	; 
00ef3d 4c 45 ef      JMP $ef45     	; 
00ef40 a0 0e         LDY #$0e     
00ef42 b9 07 ee      LDA $ee07,Y     
00ef45 8d d5 06      STA $06d5     	; 
00ef48 a9 04         LDA #$04     
00ef4a 20 be ef      JSR $efbe     	; 
00ef4d 20 e9 f0      JSR $f0e9     	; 
00ef50 ad 11 07      LDA $0711     	; 
00ef53 f0 25         BEQ $ef7a     
00ef55 a0 00         LDY #$00     
00ef57 ad 81 07      LDA $0781     	; 
00ef5a cd 11 07      CMP $0711     	; 
00ef5d 8c 11 07      STY $0711     	; 
00ef60 b0 18         BCS $ef7a     
00ef62 8d 11 07      STA $0711     	; 
00ef65 a0 07         LDY #$07     
00ef67 b9 07 ee      LDA $ee07,Y     
00ef6a 8d d5 06      STA $06d5     	; 
00ef6d a0 04         LDY #$04     
00ef6f a5 57         LDA $57     
00ef71 05 0c         ORA $0c     
00ef73 f0 01         BEQ $ef76     
00ef75 88            DEY      
00ef76 98            TYA      
00ef77 20 be ef      JSR $efbe     	; 
00ef7a ad d0 03      LDA $03d0     	; 
00ef7d 4a            LSR      
00ef7e 4a            LSR      
00ef7f 4a            LSR      
00ef80 4a            LSR      
00ef81 85 00         STA $00     
00ef83 a2 03         LDX #$03     
00ef85 ad e4 06      LDA $06e4     	; 
00ef88 18            CLC      
00ef89 69 18         ADC #$18     
00ef8b a8            TAY      
00ef8c a9 f8         LDA #$f8     
00ef8e 46 00         LSR $00     
00ef90 90 03         BCC $ef95     
00ef92 20 c1 e5      JSR $e5c1     	; 
00ef95 98            TYA      
00ef96 38            SEC      
00ef97 e9 08         SBC #$08     
00ef99 a8            TAY      
00ef9a ca            DEX      
00ef9b 10 ef         BPL $ef8c     
00ef9d 60            RTS      
00ef9e 58            CLI      
00ef9f 01 00         ORA ($00,X)     
00efa1 60            RTS      
00efa2 ff 04 a2 05   SBC $05a204,X     
00efa6 bd 9e ef      LDA $ef9e,X     
00efa9 95 02         STA $02,X     
00efab ca            DEX      
00efac 10 f8         BPL $efa6     
00efae a2 b8         LDX #$b8     
00efb0 a0 04         LDY #$04     
00efb2 20 dc ef      JSR $efdc     	; 
00efb5 ad 26 02      LDA $0226     	; 
00efb8 09 40         ORA #$40     
00efba 8d 22 02      STA $0222     	; 
00efbd 60            RTS      
00efbe 85 07         STA $07     
00efc0 ad ad 03      LDA $03ad     	; 
00efc3 8d 55 07      STA $0755     	; 
00efc6 85 05         STA $05     
00efc8 ad b8 03      LDA $03b8     	; 
00efcb 85 02         STA $02     
00efcd a5 33         LDA $33     
00efcf 85 03         STA $03     
00efd1 ad c4 03      LDA $03c4     	; 
00efd4 85 04         STA $04     
00efd6 ae d5 06      LDX $06d5     	; 
00efd9 ac e4 06      LDY $06e4     	; 
00efdc bd 17 ee      LDA $ee17,X     
00efdf 85 00         STA $00     
00efe1 bd 18 ee      LDA $ee18,X     
00efe4 20 b2 eb      JSR $ebb2     	; 
00efe7 c6 07         DEC $07     
00efe9 d0 f1         BNE $efdc     
00efeb 60            RTS      
00efec a5 1d         LDA $1d     
00efee c9 03         CMP #$03     
00eff0 f0 52         BEQ $f044     
00eff2 c9 02         CMP #$02     
00eff4 f0 3e         BEQ $f034     
00eff6 c9 01         CMP #$01     
00eff8 d0 11         BNE $f00b     
00effa ad 04 07      LDA $0704     	; 
00effd d0 51         BNE $f050     
00efff a0 06         LDY #$06     
00f001 ad 14 07      LDA $0714     	; 
00f004 d0 22         BNE $f028     
00f006 a0 00         LDY #$00     
00f008 4c 28 f0      JMP $f028     	; 
00f00b a0 06         LDY #$06     
00f00d ad 14 07      LDA $0714     	; 
00f010 d0 16         BNE $f028     
00f012 a0 02         LDY #$02     
00f014 a5 57         LDA $57     
00f016 05 0c         ORA $0c     
00f018 f0 0e         BEQ $f028     
00f01a ad 00 07      LDA $0700     	; 
00f01d c9 09         CMP #$09     
00f01f 90 1b         BCC $f03c     
00f021 a5 45         LDA $45     
00f023 25 33         AND $33     
00f025 d0 15         BNE $f03c     
00f027 c8            INY      
00f028 20 91 f0      JSR $f091     	; 
00f02b a9 00         LDA #$00     
00f02d 8d 0d 07      STA $070d     	; 
00f030 b9 07 ee      LDA $ee07,Y     
00f033 60            RTS      
00f034 a0 04         LDY #$04     
00f036 20 91 f0      JSR $f091     	; 
00f039 4c 62 f0      JMP $f062     	; 
00f03c a0 04         LDY #$04     
00f03e 20 91 f0      JSR $f091     	; 
00f041 4c 68 f0      JMP $f068     	; 
00f044 a0 05         LDY #$05     
00f046 a5 9f         LDA $9f     
00f048 f0 de         BEQ $f028     
00f04a 20 91 f0      JSR $f091     	; 
00f04d 4c 6d f0      JMP $f06d     	; 
00f050 a0 01         LDY #$01     
00f052 20 91 f0      JSR $f091     	; 
00f055 ad 82 07      LDA $0782     	; 
00f058 0d 0d 07      ORA $070d     	; 
00f05b d0 0b         BNE $f068     
00f05d a5 0a         LDA $0a     
00f05f 0a            ASL      
00f060 b0 06         BCS $f068     
00f062 ad 0d 07      LDA $070d     	; 
00f065 4c d0 f0      JMP $f0d0     	; 
00f068 a9 03         LDA #$03     
00f06a 4c 6f f0      JMP $f06f     	; 
00f06d a9 02         LDA #$02     
00f06f 85 00         STA $00     
00f071 20 62 f0      JSR $f062     	; 
00f074 48            PHA      
00f075 ad 81 07      LDA $0781     	; 
00f078 d0 15         BNE $f08f     
00f07a ad 0c 07      LDA $070c     	; 
00f07d 8d 81 07      STA $0781     	; 
00f080 ad 0d 07      LDA $070d     	; 
00f083 18            CLC      
00f084 69 01         ADC #$01     
00f086 c5 00         CMP $00     
00f088 90 02         BCC $f08c     
00f08a a9 00         LDA #$00     
00f08c 8d 0d 07      STA $070d     	; 
00f08f 68            PLA      
00f090 60            RTS

00f091 ad 54 07      LDA $0754     	; 
00f094 f0 05         BEQ $f09b     
00f096 98            TYA      
00f097 18            CLC      
00f098 69 08         ADC #$08     
00f09a a8            TAY      
00f09b 60            RTS      
00f09c 00 01         BRK $01     
00f09e 00 01         BRK $01     
00f0a0 00 01         BRK $01     
00f0a2 02 00         COP $00     
00f0a4 01 02         ORA ($02,X)     
00f0a6 02 00         COP $00     
00f0a8 02 00         COP $00     
00f0aa 02 00         COP $00     
00f0ac 02 00         COP $00     
00f0ae 02 00         COP $00     
00f0b0 ac 0d 07      LDY $070d     	; 
00f0b3 a5 09         LDA $09     
00f0b5 29 03         AND #$03     
00f0b7 d0 0d         BNE $f0c6     
00f0b9 c8            INY      
00f0ba c0 0a         CPY #$0a     
00f0bc 90 05         BCC $f0c3     
00f0be a0 00         LDY #$00     
00f0c0 8c 0b 07      STY $070b     	; 
00f0c3 8c 0d 07      STY $070d     	; 
00f0c6 ad 54 07      LDA $0754     	; 
00f0c9 d0 0c         BNE $f0d7     
00f0cb b9 9c f0      LDA $f09c,Y     
00f0ce a0 0f         LDY #$0f     
00f0d0 0a            ASL      
00f0d1 0a            ASL      
00f0d2 0a            ASL      
00f0d3 79 07 ee      ADC $ee07,Y     
00f0d6 60            RTS      
00f0d7 98            TYA      
00f0d8 18            CLC      
00f0d9 69 0a         ADC #$0a     
00f0db aa            TAX      
00f0dc a0 09         LDY #$09     
00f0de bd 9c f0      LDA $f09c,X     
00f0e1 d0 02         BNE $f0e5     
00f0e3 a0 01         LDY #$01     
00f0e5 b9 07 ee      LDA $ee07,Y     
00f0e8 60            RTS


00f0e9 ac e4 06      LDY $06e4     	; 
00f0ec a5 0e         LDA $0e     
00f0ee c9 0b         CMP #$0b     
00f0f0 f0 13         BEQ $f105     
00f0f2 ad d5 06      LDA $06d5     	; 
00f0f5 c9 50         CMP #$50     
00f0f7 f0 1e         BEQ $f117     
00f0f9 c9 b8         CMP #$b8     
00f0fb f0 1a         BEQ $f117     
00f0fd c9 c0         CMP #$c0     
00f0ff f0 16         BEQ $f117     
00f101 c9 c8         CMP #$c8     
00f103 d0 24         BNE $f129     
00f105 b9 12 02      LDA $0212,Y     
00f108 29 3f         AND #$3f     
00f10a 99 12 02      STA $0212,Y     
00f10d b9 16 02      LDA $0216,Y     
00f110 29 3f         AND #$3f     
00f112 09 40         ORA #$40     
00f114 99 16 02      STA $0216,Y     
00f117 b9 1a 02      LDA $021a,Y     
00f11a 29 3f         AND #$3f     
00f11c 99 1a 02      STA $021a,Y     
00f11f b9 1e 02      LDA $021e,Y     
00f122 29 3f         AND #$3f     
00f124 09 40         ORA #$40     
00f126 99 1e 02      STA $021e,Y     
00f129 60            RTS


00f12a a2 00         LDX #$00     
00f12c a0 00         LDY #$00     
00f12e 4c 42 f1      JMP $f142     	; 
00f131 a0 01         LDY #$01     
00f133 20 a8 f1      JSR $f1a8     	; 
00f136 a0 03         LDY #$03     
00f138 4c 42 f1      JMP $f142     	; 
00f13b a0 00         LDY #$00     
00f13d 20 a8 f1      JSR $f1a8     	; 
00f140 a0 02         LDY #$02     
00f142 20 71 f1      JSR $f171     	; 
00f145 a6 08         LDX $08     
00f147 60            RTS      
00f148 a0 02         LDY #$02     
00f14a 20 a8 f1      JSR $f1a8     	; 
00f14d a0 06         LDY #$06     
00f14f 4c 42 f1      JMP $f142     	; 
00f152 a9 01         LDA #$01     
00f154 a0 01         LDY #$01     
00f156 4c 65 f1      JMP $f165     	; 
00f159 a9 09         LDA #$09     
00f15b a0 04         LDY #$04     
00f15d 20 65 f1      JSR $f165     	; 
00f160 e8            INX      
00f161 e8            INX      
00f162 a9 09         LDA #$09     
00f164 c8            INY      
00f165 86 00         STX $00     
00f167 18            CLC      
00f168 65 00         ADC $00     
00f16a aa            TAX      
00f16b 20 71 f1      JSR $f171     	; 
00f16e a6 08         LDX $08     
00f170 60            RTS      
00f171 b5 ce         LDA $ce,X     
00f173 99 b8 03      STA $03b8,Y     
00f176 b5 86         LDA $86,X     
00f178 38            SEC      
00f179 ed 1c 07      SBC $071c     	; 
00f17c 99 ad 03      STA $03ad,Y     
00f17f 60            RTS      
00f180 a2 00         LDX #$00     
00f182 a0 00         LDY #$00     
00f184 4c c0 f1      JMP $f1c0     	; 
00f187 a0 00         LDY #$00     
00f189 20 a8 f1      JSR $f1a8     	; 
00f18c a0 02         LDY #$02     
00f18e 4c c0 f1      JMP $f1c0     	; 
00f191 a0 01         LDY #$01     
00f193 20 a8 f1      JSR $f1a8     	; 
00f196 a0 03         LDY #$03     
00f198 4c c0 f1      JMP $f1c0     	; 
00f19b a0 02         LDY #$02     
00f19d 20 a8 f1      JSR $f1a8     	; 
00f1a0 a0 06         LDY #$06     
00f1a2 4c c0 f1      JMP $f1c0     	; 
00f1a5 07 16         ORA [$16]     
00f1a7 0d 8a 18      ORA $188a     	; 
00f1aa 79 a5 f1      ADC $f1a5,Y     
00f1ad aa            TAX      
00f1ae 60            RTS


00f1af a9 01         LDA #$01     
00f1b1 a0 01         LDY #$01     
00f1b3 4c ba f1      JMP $f1ba     	; 
00f1b6 a9 09         LDA #$09     
00f1b8 a0 04         LDY #$04     
00f1ba 86 00         STX $00     
00f1bc 18            CLC      
00f1bd 65 00         ADC $00     
00f1bf aa            TAX      
00f1c0 98            TYA      
00f1c1 48            PHA      
00f1c2 20 d7 f1      JSR $f1d7     	; 
00f1c5 0a            ASL      
00f1c6 0a            ASL      
00f1c7 0a            ASL      
00f1c8 0a            ASL      
00f1c9 05 00         ORA $00     
00f1cb 85 00         STA $00     
00f1cd 68            PLA      
00f1ce a8            TAY      
00f1cf a5 00         LDA $00     
00f1d1 99 d0 03      STA $03d0,Y     
00f1d4 a6 08         LDX $08     
00f1d6 60            RTS

00f1d7 20 f6 f1      JSR $f1f6     	; 
00f1da 4a            LSR      
00f1db 4a            LSR      
00f1dc 4a            LSR      
00f1dd 4a            LSR      
00f1de 85 00         STA $00     
00f1e0 4c 39 f2      JMP $f239     	;


00f1e3 7f 3f 1f 0f   ADC $0f1f3f,X     
00f1e7 07 03         ORA [$03]     
00f1e9 01 00         ORA ($00,X)

00f1eb 80 c0         BRA $f1ad     
00f1ed e0 f0         CPX #$f0     
00f1ef f8            SED      
00f1f0 fc fe ff      JSR ($fffe,X)     
00f1f3 07 0f         ORA [$0f]     
00f1f5 07 

00f1f6 86 04         STX $04     
00f1f8 a0 01         LDY #$01     
00f1fa b9 1c 07      LDA $071c,Y     
00f1fd 38            SEC      
00f1fe f5 86         SBC $86,X     
00f200 85 07         STA $07     
00f202 b9 1a 07      LDA $071a,Y     
00f205 f5 6d         SBC $6d,X     
00f207 be f3 f1      LDX $f1f3,Y     
00f20a c9 00         CMP #$00     
00f20c 30 10         BMI $f21e     
00f20e be f4 f1      LDX $f1f4,Y     
00f211 c9 01         CMP #$01     
00f213 10 09         BPL $f21e     
00f215 a9 38         LDA #$38     
00f217 85 06         STA $06     
00f219 a9 08         LDA #$08     
00f21b 20 6d f2      JSR $f26d     	;

00f21e bd e3 f1      LDA $f1e3,X     
00f221 a6 04         LDX $04     
00f223 c9 00         CMP #$00     
00f225 d0 03         BNE $f22a     
00f227 88            DEY      
00f228 10 d0         BPL $f1fa     
00f22a 60            RTS      


00f22b 00 08         BRK $08     
00f22d 0c 0e 0f      TSB $0f0e     	; 
00f230 07 03         ORA [$03]     
00f232 01 00         ORA ($00,X)     
00f234 04 00         TSB $00     
00f236 04 ff         TSB $ff     
00f238 00 86         BRK $86     
00f23a 04 a0         TSB $a0     
00f23c 01 b9         ORA ($b9,X)     
00f23e 37 f2         AND [$f2],Y     
00f240 38            SEC      
00f241 f5 ce         SBC $ce,X     
00f243 85 07         STA $07     
00f245 a9 01         LDA #$01     
00f247 f5 b5         SBC $b5,X     
00f249 be 34 f2      LDX $f234,Y     
00f24c c9 00         CMP #$00     
00f24e 30 10         BMI $f260     
00f250 be 35 f2      LDX $f235,Y     
00f253 c9 01         CMP #$01     
00f255 10 09         BPL $f260     
00f257 a9 20         LDA #$20     
00f259 85 06         STA $06     
00f25b a9 04         LDA #$04     
00f25d 20 6d f2      JSR $f26d     	; 
00f260 bd 2b f2      LDA $f22b,X     
00f263 a6 04         LDX $04     
00f265 c9 00         CMP #$00     
00f267 d0 03         BNE $f26c     
00f269 88            DEY      
00f26a 10 d1         BPL $f23d     
00f26c 60            RTS

00f26d 85 05         STA $05     
00f26f a5 07         LDA $07     
00f271 c5 06         CMP $06     
00f273 b0 0c         BCS $f281
00f275 4a            LSR      
00f276 4a            LSR      
00f277 4a            LSR      
00f278 29 07         AND #$07     
00f27a c0 01         CPY #$01     
00f27c b0 02         BCS $f280     
00f27e 65 05         ADC $05     
00f280 aa            TAX      
00f281 60            RTS

;--------------------------------------------------------------------

00f282 a5 03         LDA $03            ; use bit1 of this.
00f284 4a            LSR      
00f285 4a            LSR      
00f286 a5 00         LDA $00            ;sprite tile index temp hold.
00f288 90 0c         BCC $f296          ; if set, use modified val in accum.
00f28a 99 05 02      STA $0205,Y     ;Sprite Tile index.
00f28d a5 01         LDA $01     
00f28f 99 01 02      STA $0201,Y     ;Sprite Tile index.

;ooh, so clever!  Value for horizontal flip and it allows the unconditional
;branch!
00f292 a9 40         LDA #$40        
00f294 d0 0a         BNE $f2a0          ; "bra".. ok!? :)

00f296 99 01 02      STA $0201,Y     ;Sprite Tile index.
00f299 a5 01         LDA $01     
00f29b 99 05 02      STA $0205,Y     ;Sprite Tile index.

00f29e a9 00         LDA #$00

00f2a0 05 04         ORA $04     
00f2a2 99 02 02      STA $0202,Y     ;Col/Attrib.
00f2a5 99 06 02      STA $0206,Y     ;Col/Attrib.
00f2a8 a5 02         LDA $02     
00f2aa 99 00 02      STA $0200,Y     ;Y-coord.
00f2ad 99 04 02      STA $0204,Y     ;Y-coord.

00f2b0 a5 05         LDA $05     
00f2b2 99 03 02      STA $0203,Y     ;X-coord.
00f2b5 18            CLC      
00f2b6 69 08         ADC #$08     
00f2b8 99 07 02      STA $0207,Y     ;X-coord.

00f2bb a5 02         LDA $02            ; move Y-coord?
00f2bd 18            CLC      
00f2be 69 08         ADC #$08     
00f2c0 85 02         STA $02

00f2c2 98            TYA                ;move oambuff index to next element.
00f2c3 18            CLC      
00f2c4 69 08         ADC #$08     
00f2c6 a8            TAY

00f2c7 e8            INX      
00f2c8 e8            INX      
00f2c9 60            RTS

;-------------------------------------------------------

00f2ca ff ff ff ff   SBC $ffffff,X     
00f2ce ff ff

00f2d0 ad 70 07      LDA $0770
00f2d3 d0 04         BNE $f2d8
00f2d4 8d 15 40      STA $4015
00f2d8 60            RTS


00f2d9 a9 ff         LDA #$ff     
00f2db 8d 17 40      STA $4017     	; Serial JoyPort (In: D0=Joy1, D1=Joy3)JoyPort #1 Register Reading:(???STeed) - Writing:(????eej)
00f2de a9 0f         LDA #$0f     
00f2e0 8d 15 40      STA $4015     	; Sound Control Register (---abcde)
00f2e3 ad c6 07      LDA $07c6     	; 
00f2e6 d0 06         BNE $f2ee     
00f2e8 a5 fa         LDA $fa     
00f2ea c9 01         CMP #$01     
00f2ec d0 5d         BNE $f34b     
00f2ee ad b2 07      LDA $07b2     	; 
00f2f1 d0 23         BNE $f316     
00f2f3 a5 fa         LDA $fa     
00f2f5 f0 66         BEQ $f35d     
00f2f7 8d b2 07      STA $07b2     	; 
00f2fa 8d c6 07      STA $07c6     	; 
00f2fd a9 00         LDA #$00     
00f2ff 8d 15 40      STA $4015     	; Sound Control Register (---abcde)
00f302 85 f1         STA $f1     
00f304 85 f2         STA $f2     
00f306 85 f3         STA $f3     
00f308 a9 0f         LDA #$0f     
00f30a 8d 15 40      STA $4015     	; Sound Control Register (---abcde)
00f30d a9 2a         LDA #$2a     
00f30f 8d bb 07      STA $07bb     	; 
00f312 a9 44         LDA #$44     
00f314 d0 11         BNE $f327     
00f316 ad bb 07      LDA $07bb     	; 
00f319 c9 24         CMP #$24     
00f31b f0 08         BEQ $f325     
00f31d c9 1e         CMP #$1e     
00f31f f0 f1         BEQ $f312     
00f321 c9 18         CMP #$18     
00f323 d0 09         BNE $f32e     
00f325 a9 64         LDA #$64     
00f327 a2 84         LDX #$84     
00f329 a0 7f         LDY #$7f     
00f32b 20 88 f3      JSR $f388     	; 
00f32e ce bb 07      DEC $07bb     	; 
00f331 d0 2a         BNE $f35d     
00f333 a9 00         LDA #$00     
00f335 8d 15 40      STA $4015     	; Sound Control Register (---abcde)
00f338 ad b2 07      LDA $07b2     	; 
00f33b c9 02         CMP #$02     
00f33d d0 05         BNE $f344     
00f33f a9 00         LDA #$00     
00f341 8d c6 07      STA $07c6     	; 
00f344 a9 00         LDA #$00     
00f346 8d b2 07      STA $07b2     	; 
00f349 f0 12         BEQ $f35d     
00f34b 20 1b f4      JSR $f41b     	; 
00f34e 20 7c f5      JSR $f57c     	; 
00f351 20 67 f6      JSR $f667     	; 
00f354 20 94 f6      JSR $f694     	; 
00f357 a9 00         LDA #$00           ; No tune.
00f359 85 fb         STA $fb            ; Tune number.
00f35b 85 fc         STA $fc     
00f35d a9 00         LDA #$00     
00f35f 85 ff         STA $ff     
00f361 85 fe         STA $fe     
00f363 85 fd         STA $fd     
00f365 85 fa         STA $fa     
00f367 ac c0 07      LDY $07c0     	; 
00f36a a5 f4         LDA $f4     
00f36c 29 03         AND #$03     
00f36e f0 07         BEQ $f377     
00f370 ee c0 07      INC $07c0     	; 
00f373 c0 30         CPY #$30     
00f375 90 06         BCC $f37d     
00f377 98            TYA      
00f378 f0 03         BEQ $f37d     
00f37a ce c0 07      DEC $07c0     	; 
00f37d 8c 11 40      STY $4011     	; PCM Volume Control Register (vvvvvvvv)
00f380 60            RTS

00f381 8c 01 40      STY $4001     	; Square Wave Control Register #2 (fsssHrrr)
00f384 8e 00 40      STX $4000     	; Square Wave Control Register #1 (CChessss)
00f387 60            RTS

00f388 20 81 f3      JSR $f381     	; 
00f38b a2 00         LDX #$00     
00f38d a8            TAY      
00f38e b9 01 ff      LDA $ff01,Y     
00f391 f0 0b         BEQ $f39e     
00f393 9d 02 40      STA $4002,X     
00f396 b9 00 ff      LDA $ff00,Y     
00f399 09 08         ORA #$08     
00f39b 9d 03 40      STA $4003,X     
00f39e 60            RTS

00f39f 8e 04 40      STX $4004     	; Square Wave Control Register #1 (CChessss)
00f3a2 8c 05 40      STY $4005     	; Square Wave Control Register #2 (fsssHrrr)
00f3a5 60            RTS

00f3a6 20 9f f3      JSR $f39f     	; 
00f3a9 a2 04         LDX #$04     
00f3ab d0 e0         BNE $f38d     
00f3ad a2 08         LDX #$08     
00f3af d0

00f3b0 dc         
00f3b1 9f 9b 98 96   STA $96989b,X     
00f3b5 95 94         STA $94,X     
00f3b7 92 90         STA ($90)     
00f3b9 90 9a         BCC $f355     
00f3bb 97 95         STA [$95],Y     
00f3bd 93 92         STA ($92,S),Y     
00f3bf a9 40         LDA #$40     
00f3c1 8d bb 07      STA $07bb     	; 
00f3c4 a9 62         LDA #$62     
00f3c6 20 8b f3      JSR $f38b     	; 
00f3c9 a2 99         LDX #$99     
00f3cb d0 25         BNE $f3f2     
00f3cd a9 26         LDA #$26     
00f3cf d0 02         BNE $f3d3     
00f3d1 a9 18         LDA #$18     
00f3d3 a2 82         LDX #$82     
00f3d5 a0 a7         LDY #$a7     
00f3d7 20 88 f3      JSR $f388     	; 
00f3da a9 28         LDA #$28     
00f3dc 8d bb 07      STA $07bb     	; 
00f3df ad bb 07      LDA $07bb     	; 
00f3e2 c9 25         CMP #$25     
00f3e4 d0 06         BNE $f3ec     
00f3e6 a2 5f         LDX #$5f     
00f3e8 a0 f6         LDY #$f6     
00f3ea d0 08         BNE $f3f4     
00f3ec c9 20         CMP #$20     
00f3ee d0 29         BNE $f419     
00f3f0 a2 48         LDX #$48     
00f3f2 a0 bc         LDY #$bc     
00f3f4 20 81 f3      JSR $f381     	; 
00f3f7 d0 20         BNE $f419     
00f3f9 a9 05         LDA #$05     
00f3fb a0 99         LDY #$99     
00f3fd d0 04         BNE $f403     
00f3ff a9 0a         LDA #$0a     
00f401 a0 93         LDY #$93     
00f403 a2 9e         LDX #$9e     
00f405 8d bb 07      STA $07bb     	; 
00f408 a9 0c         LDA #$0c     
00f40a 20 88 f3      JSR $f388     	; 
00f40d ad bb 07      LDA $07bb     	; 
00f410 c9 06         CMP #$06     
00f412 d0 05         BNE $f419     
00f414 a9 bb         LDA #$bb     
00f416 8d 01 40      STA $4001     	; Square Wave Control Register #2 (fsssHrrr)
00f419 d0 60         BNE $f47b     
00f41b a4 ff         LDY $ff     
00f41d f0 20         BEQ $f43f     
00f41f 84 f1         STY $f1     
00f421 30 aa         BMI $f3cd     
00f423 46 ff         LSR $ff     
00f425 b0 aa         BCS $f3d1     
00f427 46 ff         LSR $ff     
00f429 b0 d4         BCS $f3ff     
00f42b 46 ff         LSR $ff     
00f42d b0 2c         BCS $f45b     
00f42f 46 ff         LSR $ff     
00f431 b0 4a         BCS $f47d     
00f433 46 ff         LSR $ff     
00f435 b0 7f         BCS $f4b6     
00f437 46 ff         LSR $ff     
00f439 b0 be         BCS $f3f9     
00f43b 46 ff         LSR $ff     
00f43d b0 80         BCS $f3bf     
00f43f a5 f1         LDA $f1     
00f441 f0 17         BEQ $f45a     
00f443 30 9a         BMI $f3df     
00f445 4a            LSR      
00f446 b0 97         BCS $f3df     
00f448 4a            LSR      
00f449 b0 c2         BCS $f40d     
00f44b 4a            LSR      
00f44c b0 1b         BCS $f469     
00f44e 4a            LSR      
00f44f b0 3c         BCS $f48d     
00f451 4a            LSR      
00f452 b0 67         BCS $f4bb     
00f454 4a            LSR      
00f455 b0 b6         BCS $f40d     
00f457 4a            LSR      
00f458 b0 48         BCS $f4a2     
00f45a 60            RTS      
00f45b a9 0e         LDA #$0e     
00f45d 8d bb 07      STA $07bb     	; 
00f460 a0 9c         LDY #$9c     
00f462 a2 9e         LDX #$9e     
00f464 a9 26         LDA #$26     
00f466 20 88 f3      JSR $f388     	; 
00f469 ac bb 07      LDY $07bb     	; 
00f46c b9 b0 f3      LDA $f3b0,Y     
00f46f 8d 00 40      STA $4000     	; Square Wave Control Register #1 (CChessss)
00f472 c0 06         CPY #$06     
00f474 d0 05         BNE $f47b     
00f476 a9 9e         LDA #$9e     
00f478 8d 02 40      STA $4002     	; Square Wave Frequency Value Register #1 (dddddddd)
00f47b d0 25         BNE $f4a2     
00f47d a9 0e         LDA #$0e     
00f47f a0 cb         LDY #$cb     
00f481 a2 9f         LDX #$9f     
00f483 8d bb 07      STA $07bb     	; 
00f486 a9 28         LDA #$28     
00f488 20 88 f3      JSR $f388     	; 
00f48b d0 15         BNE $f4a2     
00f48d ac bb 07      LDY $07bb     	; 
00f490 c0 08         CPY #$08     
00f492 d0 09         BNE $f49d     
00f494 a9 a0         LDA #$a0     
00f496 8d 02 40      STA $4002     	; Square Wave Frequency Value Register #1 (dddddddd)
00f499 a9 9f         LDA #$9f     
00f49b d0 02         BNE $f49f     
00f49d a9 90         LDA #$90     
00f49f 8d 00 40      STA $4000     	; Square Wave Control Register #1 (CChessss)
00f4a2 ce bb 07      DEC $07bb     	; 
00f4a5 d0 0e         BNE $f4b5     
00f4a7 a2 00         LDX #$00     
00f4a9 86 f1         STX $f1     
00f4ab a2 0e         LDX #$0e     
00f4ad 8e 15 40      STX $4015     	; Sound Control Register (---abcde)
00f4b0 a2 0f         LDX #$0f     
00f4b2 8e 15 40      STX $4015     	; Sound Control Register (---abcde)
00f4b5 60            RTS      
00f4b6 a9 2f         LDA #$2f     
00f4b8 8d bb 07      STA $07bb     	; 
00f4bb ad bb 07      LDA $07bb     	; 
00f4be 4a            LSR      
00f4bf b0 10         BCS $f4d1     
00f4c1 4a            LSR      
00f4c2 b0 0d         BCS $f4d1     
00f4c4 29 02         AND #$02     
00f4c6 f0 09         BEQ $f4d1     
00f4c8 a0 91         LDY #$91     
00f4ca a2 9a         LDX #$9a     
00f4cc a9 44         LDA #$44     
00f4ce 20 88 f3      JSR $f388     	; 
00f4d1 4c a2 f4      JMP $f4a2     	;

00f4d4 58            CLI      
00f4d5 02 54         COP $54     
00f4d7 56 4e         LSR $4e,X


00f4d9 44 4c 52      MVP $4c,$52     
00f4dc 4c 48 3e      JMP $3e48     	; 
00f4df 36 3e         ROL $3e,X     
00f4e1 36 30         ROL $30,X     
00f4e3 28            PLP      
00f4e4 4a            LSR      
00f4e5 50 4a         BVC $f531     
00f4e7 64 3c         STZ $3c     
00f4e9 32 3c         AND ($3c)     
00f4eb 32 2c         AND ($2c)     
00f4ed 24 3a         BIT $3a     
00f4ef 64 3a         STZ $3a     
00f4f1 34 2c         BIT $2c,X     
00f4f3 22 2c 22 1c   JSL $1c222c     
00f4f7 14 14         TRB $14     
00f4f9 04 22         TSB $22     
00f4fb 24 16         BIT $16     
00f4fd 04 24         TSB $24     
00f4ff 26 18         ROL $18     
00f501 04 26         TSB $26     
00f503 28            PLP      
00f504 1a            INC      
00f505 04 28         TSB $28     
00f507 2a            ROL      
00f508 1c 04 2a      TRB $2a04     	; 
00f50b 2c 1e 04      BIT $041e     	; 
00f50e 2c 2e 20      BIT $202e     	; 
00f511 04 2e         TSB $2e     
00f513 30 22         BMI $f537     
00f515 04 30         TSB $30     
00f517 32

00f518 a9 35         LDA #$35
00f51a a2 8d         LDX #$8d
00f51c d0 04         BNE $f522

00f51e a9 06         LDA #$06     
00f520 a2 98         LDX #$98     
00f522 8d bd 07      STA $07bd     	; 
00f525 a0 7f         LDY #$7f     
00f527 a9 42         LDA #$42     
00f529 20 a6 f3      JSR $f3a6     	; 
00f52c ad bd 07      LDA $07bd     	; 
00f52f c9 30         CMP #$30     
00f531 d0 05         BNE $f538     
00f533 a9 54         LDA #$54     
00f535 8d 06 40      STA $4006     	; Square Wave Frequency Value Register #1 (dddddddd)
00f538 d0 2e         BNE $f568     
00f53a a9 20         LDA #$20     
00f53c 8d bd 07      STA $07bd     	; 
00f53f a0 94         LDY #$94     
00f541 a9 5e         LDA #$5e     
00f543 d0 0b         BNE $f550     
00f545 ad bd 07      LDA $07bd     	; 
00f548 c9 18         CMP #$18     
00f54a d0 1c         BNE $f568     
00f54c a0 93         LDY #$93     
00f54e a9 18         LDA #$18     
00f550 d0 7f         BNE $f5d1     
00f552 a9 36         LDA #$36     
00f554 8d bd 07      STA $07bd     	; 
00f557 ad bd 07      LDA $07bd     	; 
00f55a 4a            LSR      
00f55b b0 0b         BCS $f568     
00f55d a8            TAY      
00f55e b9 d9 f4      LDA $f4d9,Y     
00f561 a2 5d         LDX #$5d     
00f563 a0 7f         LDY #$7f     
00f565 20 a6 f3      JSR $f3a6     	; 
00f568 ce bd 07      DEC $07bd     	; 
00f56b d0 0e         BNE $f57b     
00f56d a2 00         LDX #$00     
00f56f 86 f2         STX $f2     
00f571 a2 0d         LDX #$0d     
00f573 8e 15 40      STX $4015     	; Sound Control Register (---abcde)
00f576 a2 0f         LDX #$0f     
00f578 8e 15 40      STX $4015     	; Sound Control Register (---abcde)
00f57b 60            RTS      
00f57c a5 f2         LDA $f2     
00f57e 29 40         AND #$40     
00f580 d0 65         BNE $f5e7     
00f582 a4 fe         LDY $fe     
00f584 f0 20         BEQ $f5a6     
00f586 84 f2         STY $f2     
00f588 30 3e         BMI $f5c8     
00f58a 46 fe         LSR $fe     
00f58c b0 8a         BCS $f518     
00f58e 46 fe         LSR $fe     
00f590 b0 6a         BCS $f5fc     
00f592 46 fe         LSR $fe     
00f594 b0 6a         BCS $f600     
00f596 46 fe         LSR $fe     
00f598 b0 a0         BCS $f53a     
00f59a 46 fe         LSR $fe     
00f59c b0 80         BCS $f51e     
00f59e 46 fe         LSR $fe     
00f5a0 b0 b0         BCS $f552     
00f5a2 46 fe         LSR $fe     
00f5a4 b0 3c         BCS $f5e2     
00f5a6 a5 f2         LDA $f2     
00f5a8 f0 17         BEQ $f5c1     
00f5aa 30 27         BMI $f5d3     
00f5ac 4a            LSR      
00f5ad b0 13         BCS $f5c2     
00f5af 4a            LSR      
00f5b0 b0 5d         BCS $f60f     
00f5b2 4a            LSR      
00f5b3 b0 5a         BCS $f60f     
00f5b5 4a            LSR      
00f5b6 b0 8d         BCS $f545     
00f5b8 4a            LSR      
00f5b9 b0 07         BCS $f5c2     
00f5bb 4a            LSR      
00f5bc b0 99         BCS $f557     
00f5be 4a            LSR      
00f5bf b0 26         BCS $f5e7     
00f5c1 60            RTS      
00f5c2 4c 2c f5      JMP $f52c     	; 
00f5c5 4c 68 f5      JMP $f568     	; 
00f5c8 a9 38         LDA #$38     
00f5ca 8d bd 07      STA $07bd     	; 
00f5cd a0 c4         LDY #$c4     
00f5cf a9 18         LDA #$18     
00f5d1 d0 0b         BNE $f5de     
00f5d3 ad bd 07      LDA $07bd     	; 
00f5d6 c9 08         CMP #$08     
00f5d8 d0 8e         BNE $f568     
00f5da a0 a4         LDY #$a4     
00f5dc a9 5a         LDA #$5a     
00f5de a2 9f         LDX #$9f     
00f5e0 d0 83         BNE $f565     
00f5e2 a9 30         LDA #$30     
00f5e4 8d bd 07      STA $07bd     	; 
00f5e7 ad bd 07      LDA $07bd     	; 
00f5ea a2 03         LDX #$03     
00f5ec 4a            LSR      
00f5ed b0 d6         BCS $f5c5     
00f5ef ca            DEX      
00f5f0 d0 fa         BNE $f5ec     
00f5f2 a8            TAY      
00f5f3 b9 d3 f4      LDA $f4d3,Y     
00f5f6 a2 82         LDX #$82     
00f5f8 a0 7f         LDY #$7f     
00f5fa d0 e4         BNE $f5e0     
00f5fc a9 10         LDA #$10     
00f5fe d0 02         BNE $f602     
00f600 a9 20         LDA #$20     
00f602 8d bd 07      STA $07bd     	; 
00f605 a9 7f         LDA #$7f     
00f607 8d 05 40      STA $4005     	; Square Wave Control Register #2 (fsssHrrr)
00f60a a9 00         LDA #$00     
00f60c 8d be 07      STA $07be     	; 
00f60f ee be 07      INC $07be     	; 
00f612 ad be 07      LDA $07be     	; 
00f615 4a            LSR      
00f616 a8            TAY      
00f617 cc bd 07      CPY $07bd     	; 
00f61a f0 0c         BEQ $f628     
00f61c a9 9d         LDA #$9d     
00f61e 8d 04 40      STA $4004     	; Square Wave Control Register #1 (CChessss)
00f621 b9 f8 f4      LDA $f4f8,Y     
00f624 20 a9 f3      JSR $f3a9     	; 
00f627 60            RTS
00f628 4c 6d f5      JMP $f56d     	;

;Indexes to $ffea table.
00f62b 01 0e         ORA ($0e,X)     
00f62d 0e 0d 0b      ASL $0b0d     	; 
00f630 06 0c         ASL $0c     
00f632 0f 0a 09 03   ORA $03090a     
00f636 0d 08 0d      ORA $0d08     	;


00f639 06 0c         ASL $0c
00f63b a9 20         LDA #$20     
00f63d 8d bf 07      STA $07bf     	; 
00f640 ad bf 07      LDA $07bf     	; 
00f643 4a            LSR      
00f644 90 12         BCC $f658     
00f646 a8            TAY      
00f647 be 2b f6      LDX $f62b,Y     
00f64a b9 ea ff      LDA $ffea,Y     
00f64d 8d 0c 40      STA $400c     	; Noise Control Register #1 (CChessss)
00f650 8e 0e 40      STX $400e     	; Frequency Value Register #1 (dddddddd)
00f653 a9 18         LDA #$18           ; set freq val data.
00f655 8d 0f 40      STA $400f     	; Frequency Value Register #2 (tttttddd)
00f658 ce bf 07      DEC $07bf     	; 
00f65b d0 09         BNE $f666          ; exit if not 0.
00f65d a9 f0         LDA #$f0           ; duty,holdnote,Evelope fix.
00f65f 8d 0c 40      STA $400c     	; Noise Control Register #1 (CChessss)
00f662 a9 00         LDA #$00     
00f664 85 f3         STA $f3     
00f666 60            RTS

00f667 a4 fd         LDY $fd     
00f669 f0 0a         BEQ $f675     
00f66b 84 f3         STY $f3     
00f66d 46 fd         LSR $fd     
00f66f b0 ca         BCS $f63b     
00f671 46 fd         LSR $fd     
00f673 b0 0b         BCS $f680     
00f675 a5 f3         LDA $f3     
00f677 f0 06         BEQ $f67f     
00f679 4a            LSR      
00f67a b0 c4         BCS $f640     
00f67c 4a            LSR      
00f67d b0 06         BCS $f685     
00f67f 60            RTS

00f680 a9 40         LDA #$40     
00f682 8d bf 07      STA $07bf     	; 
00f685 ad bf 07      LDA $07bf     	; 
00f688 4a            LSR      
00f689 a8            TAY      
00f68a a2 0f         LDX #$0f     
00f68c b9 c9 ff      LDA $ffc9,Y     
00f68f d0 bc         BNE $f64d     
00f691 4c 3a f7      JMP $f73a     	; 
00f694 a5 fc         LDA $fc     
00f696 d0 0c         BNE $f6a4     
00f698 a5 fb         LDA $fb            ; Load tune number.
00f69a d0 2c         BNE $f6c8          ; Branch if there's a tune.
00f69c ad b1 07      LDA $07b1     	; 
00f69f 05 f4         ORA $f4     
00f6a1 d0 ee         BNE $f691     
00f6a3 60            RTS

00f6a4 8d b1 07      STA $07b1     	; 
00f6a7 c9 01         CMP #$01     
00f6a9 d0 06         BNE $f6b1     
00f6ab 20 a7 f4      JSR $f4a7     	; 
00f6ae 20 71 f5      JSR $f571     	; 
00f6b1 a6 f4         LDX $f4     
00f6b3 8e c5 07      STX $07c5     	; 
00f6b6 a0 00         LDY #$00     
00f6b8 8c c4 07      STY $07c4     	; 
00f6bb 84 f4         STY $f4     
00f6bd c9 40         CMP #$40     
00f6bf d0 30         BNE $f6f1     
00f6c1 a2 08         LDX #$08     
00f6c3 8e c4 07      STX $07c4     	; 
00f6c6 d0 29         BNE $f6f1

00f6c8 c9 04         CMP #$04           ; Check if tune is this.
00f6ca d0 03         BNE $f6cf          ; Branch if no.
00f6cc 20 a7 f4      JSR $f4a7          ; Do this.
00f6cf a0 10         LDY #$10           ; Setup pointer.
00f6d1 8c c7 07      STY $07c7     	;

;loop back here when $f4 != 0.
00f6d4 a0 00         LDY #$00     
00f6d6 8c b1 07      STY $07b1     	; 
00f6d9 85 f4         STA $f4     
00f6db c9 01         CMP #$01           ; check tune number.
00f6dd d0 0e         BNE $f6ed

;a=1.
00f6df ee c7 07      INC $07c7          ; Adjust pointer.
00f6e2 ac c7 07      LDY $07c7     	; 
00f6e5 c0 32         CPY #$32     
00f6e7 d0 0c         BNE $f6f5

00f6e9 a0 11         LDY #$11           ;
00f6eb d0 e4         BNE $f6d1          ; 'BRA'.

00f6ed a0 08         LDY #$08           ; load a count of 8 bits.
00f6ef 84 f7         STY $f7            

00f6f1 c8            INY                ; adjust Y
00f6f2 4a            LSR                ; shift tune number.
00f6f3 90 fc         BCC $f6f1          ; loop if tune not found.

;join here when y != #$32
00f6f5 b9 0c f9      LDA $f90c,Y        ; Fetch index.
00f6f8 a8            TAY                ; Pass to Y.

00f6f9 b9 0d f9      LDA $f90d,Y     
00f6fc 85 f0         STA $f0

;setup pointer.
00f6fe b9 0e f9      LDA $f90e,Y     
00f701 85 f5         STA $f5
00f703 b9 0f f9      LDA $f90f,Y     
00f706 85 f6         STA $f6


00f708 b9 10 f9      LDA $f910,Y     
00f70b 85 f9         STA $f9

00f70d b9 11 f9      LDA $f911,Y     
00f710 85 f8         STA $f8

00f712 b9 12 f9      LDA $f912,Y     
00f715 8d b0 07      STA $07b0     	; 
00f718 8d c1 07      STA $07c1     	;

00f71b a9 01         LDA #$01     
00f71d 8d b4 07      STA $07b4     	; 
00f720 8d b6 07      STA $07b6     	; 
00f723 8d b9 07      STA $07b9     	; 
00f726 8d ba 07      STA $07ba     	;

00f729 a9 00         LDA #$00     
00f72b 85 f7         STA $f7            ; Zero indirect index.
00f72d 8d ca 07      STA $07ca     	;

00f730 a9 0b         LDA #$0b     
00f732 8d 15 40      STA $4015     	; Sound Control Register (---abcde)
00f735 a9 0f         LDA #$0f     
00f737 8d 15 40      STA $4015     	; Sound Control Register (---abcde)

00f73a ce b4 07      DEC $07b4     	; 
00f73d d0 5f         BNE $f79e

00f73f a4 f7         LDY $f7            ; Indirect index.
00f741 e6 f7         INC $f7            ; adjust.
00f743 b1 f5         LDA ($f5),Y     
00f745 f0 04         BEQ $f74b          ; branch if zero.
00f747 10 3d         BPL $f786          ; branch if bit7=1.
00f749 d0 2f         BNE $f77a          ; "bra".

;here if fetched byte is 0.
00f74b ad b1 07      LDA $07b1     	; 
00f74e c9 40         CMP #$40     
00f750 d0 05         BNE $f757

;here when value $07b1 is #$40.
00f752 ad c5 07      LDA $07c5     	; 
00f755 d0 1d         BNE $f774     
00f757 29 04         AND #$04     
00f759 d0 1c         BNE $f777

00f75b a5 f4         LDA $f4     
00f75d 29 5f         AND #$5f     
00f75f d0 13         BNE $f774

00f761 a9 00         LDA #$00     
00f763 85 f4         STA $f4     
00f765 8d b1 07      STA $07b1     	; 
00f768 8d 08 40      STA $4008     	; Triangle Wave Control Register #2 (CChessss)

00f76b a9 90         LDA #$90     
00f76d 8d 00 40      STA $4000     	; Square Wave Control Register #1 (CChessss)
00f770 8d 04 40      STA $4004     	; Square Wave Control Register #1 (CChessss)
00f773 60            RTS

00f774 4c d4 f6      JMP $f6d4          ; here when $f4 is != 0.
00f777 4c a4 f6      JMP $f6a4     	;

;here when fetched byte is -ve.
00f77a 20 cb f8      JSR $f8cb     	; 
00f77d 8d b3 07      STA $07b3     	; 
00f780 a4 f7         LDY $f7            ; Indirect Index.
00f782 e6 f7         INC $f7            ; adjust.
00f784 b1 f5         LDA ($f5),Y

00f786 a6 f2         LDX $f2     
00f788 d0 0e         BNE $f798

00f78a 20 a9 f3      JSR $f3a9     	; 
00f78d f0 03         BEQ $f792     
00f78f 20 d8 f8      JSR $f8d8     	; 
00f792 8d b5 07      STA $07b5     	; 
00f795 20 9f f3      JSR $f39f     	; 
00f798 ad b3 07      LDA $07b3     	; 
00f79b 8d b4 07      STA $07b4     	;

00f79e a5 f2         LDA $f2     
00f7a0 d0 1a         BNE $f7bc

00f7a2 ad b1 07      LDA $07b1     	; 
00f7a5 29 91         AND #$91     
00f7a7 d0 13         BNE $f7bc     
00f7a9 ac b5 07      LDY $07b5     	; 
00f7ac f0 03         BEQ $f7b1     
00f7ae ce b5 07      DEC $07b5     	; 
00f7b1 20 f4 f8      JSR $f8f4     	; 
00f7b4 8d 04 40      STA $4004     	; Square Wave Control Register #1 (CChessss)

00f7b7 a2 7f         LDX #$7f     
00f7b9 8e 05 40      STX $4005     	; Square Wave Control Register #2 (fsssHrrr)

00f7bc a4 f8         LDY $f8     
00f7be f0 5a         BEQ $f81a     
00f7c0 ce b6 07      DEC $07b6     	; 
00f7c3 d0 32         BNE $f7f7     
00f7c5 a4 f8         LDY $f8     
00f7c7 e6 f8         INC $f8     
00f7c9 b1 f5         LDA ($f5),Y     
00f7cb d0 0f         BNE $f7dc

00f7cd a9 83         LDA #$83     
00f7cf 8d 00 40      STA $4000     	; Square Wave Control Register #1 (CChessss)

00f7d2 a9 94         LDA #$94     
00f7d4 8d 01 40      STA $4001     	; Square Wave Control Register #2 (fsssHrrr)
00f7d7 8d ca 07      STA $07ca     	; 
00f7da d0 e9         BNE $f7c5

00f7dc 20 c5 f8      JSR $f8c5     	; 
00f7df 8d b6 07      STA $07b6     	; 
00f7e2 a4 f1         LDY $f1     
00f7e4 d0 34         BNE $f81a     
00f7e6 8a            TXA      
00f7e7 29 3e         AND #$3e     
00f7e9 20 8b f3      JSR $f38b     	; 
00f7ec f0 03         BEQ $f7f1     
00f7ee 20 d8 f8      JSR $f8d8     	; 
00f7f1 8d b7 07      STA $07b7     	; 
00f7f4 20 81 f3      JSR $f381     	; 
00f7f7 a5 f1         LDA $f1     
00f7f9 d0 1f         BNE $f81a     
00f7fb ad b1 07      LDA $07b1     	; 
00f7fe 29 91         AND #$91     
00f800 d0 0e         BNE $f810     
00f802 ac b7 07      LDY $07b7     	; 
00f805 f0 03         BEQ $f80a     
00f807 ce b7 07      DEC $07b7     	; 
00f80a 20 f4 f8      JSR $f8f4     	; 
00f80d 8d 00 40      STA $4000     	; Square Wave Control Register #1 (CChessss)
00f810 ad ca 07      LDA $07ca     	; 
00f813 d0 02         BNE $f817     
00f815 a9 7f         LDA #$7f     
00f817 8d 01 40      STA $4001     	; Square Wave Control Register #2 (fsssHrrr)
00f81a a5 f9         LDA $f9     
00f81c ce b9 07      DEC $07b9     	; 
00f81f d0 4c         BNE $f86d     
00f821 a4 f9         LDY $f9     
00f823 e6 f9         INC $f9     
00f825 b1 f5         LDA ($f5),Y     
00f827 f0 41         BEQ $f86a     
00f829 10 13         BPL $f83e     
00f82b 20 cb f8      JSR $f8cb     	; 
00f82e 8d b8 07      STA $07b8     	; 
00f831 a9 1f         LDA #$1f     
00f833 8d 08 40      STA $4008     	; Triangle Wave Control Register #2 (CChessss)
00f836 a4 f9         LDY $f9     
00f838 e6 f9         INC $f9     
00f83a b1 f5         LDA ($f5),Y     
00f83c f0 2c         BEQ $f86a     
00f83e 20 ad f3      JSR $f3ad     	; 
00f841 ae b8 07      LDX $07b8     	; 
00f844 8e b9 07      STX $07b9     	; 
00f847 ad b1 07      LDA $07b1     	; 
00f84a 29 6e         AND #$6e     
00f84c d0 06         BNE $f854     
00f84e a5 f4         LDA $f4     
00f850 29 0a         AND #$0a     
00f852 f0 19         BEQ $f86d     
00f854 8a            TXA      
00f855 c9 12         CMP #$12     
00f857 b0 0f         BCS $f868     
00f859 ad b1 07      LDA $07b1     	; 
00f85c 29 08         AND #$08     
00f85e f0 04         BEQ $f864     
00f860 a9 0f         LDA #$0f     
00f862 d0 06         BNE $f86a     
00f864 a9 1f         LDA #$1f     
00f866 d0 02         BNE $f86a     
00f868 a9 ff         LDA #$ff     
00f86a 8d 08 40      STA $4008     	; Triangle Wave Control Register #2 (CChessss)
00f86d a5 f4         LDA $f4     
00f86f 29 f3         AND #$f3     
00f871 f0 51         BEQ $f8c4     
00f873 ce ba 07      DEC $07ba     	; 
00f876 d0 4c         BNE $f8c4

00f878 ac b0 07      LDY $07b0     	; 
00f87b ee b0 07      INC $07b0     	; 
00f87e b1 f5         LDA ($f5),Y     
00f880 d0 08         BNE $f88a          ; branch if something to process.
00f882 ad c1 07      LDA $07c1     	; 
00f885 8d b0 07      STA $07b0     	; 
00f888 d0 ee         BNE $f878

00f88a 20 c5 f8      JSR $f8c5     	; 
00f88d 8d ba 07      STA $07ba     	; 
00f890 8a            TXA      
00f891 29 3e         AND #$3e     
00f893 f0 24         BEQ $f8b9     
00f895 c9 30         CMP #$30     
00f897 f0 18         BEQ $f8b1          ; default setting #1.
00f899 c9 20         CMP #$20     
00f89b f0 0c         BEQ $f8a9          ; default setting #2.
00f89d 29 10         AND #$10     
00f89f f0 18         BEQ $f8b9          ; if bit4 is 0: then used fixed env.

00f8a1 a9 1c         LDA #$1c     
00f8a3 a2 03         LDX #$03     
00f8a5 a0 18         LDY #$18     
00f8a7 d0 12         BNE $f8bb

00f8a9 a9 1c         LDA #$1c     
00f8ab a2 0c         LDX #$0c     
00f8ad a0 18         LDY #$18     
00f8af d0 0a         BNE $f8bb          ; effective 'BRA'.

00f8b1 a9 1c         LDA #$1c           ; 'Envelope fixed' and Duty Cycle.
00f8b3 a2 03         LDX #$03           ; Set active time length (low).
00f8b5 a0 58         LDY #$58           ; Set active time length (high).
00f8b7 d0 02         BNE $f8bb          ; effective 'BRA'.

00f8b9 a9 10         LDA #$10           ; Select "Envelope Fixed".
00f8bb 8d 0c 40      STA $400c     	; Noise Control Register #1 (CChessss)
00f8be 8e 0e 40      STX $400e     	; Frequency Value Register #1 (dddddddd)
00f8c1 8c 0f 40      STY $400f     	; Frequency Value Register #2 (tttttddd)
00f8c4 60            RTS

00f8c5 aa            TAX      
00f8c6 6a            ROR      
00f8c7 8a            TXA      
00f8c8 2a            ROL      
00f8c9 2a            ROL      
00f8ca 2a            ROL      
00f8cb 29 07         AND #$07     
00f8cd 18            CLC      
00f8ce 65 f0         ADC $f0     
00f8d0 6d c4 07      ADC $07c4     	; 
00f8d3 a8            TAY      
00f8d4 b9 66 ff      LDA $ff66,Y     
00f8d7 60            RTS

00f8d8 ad b1 07      LDA $07b1     	; 
00f8db 29 08         AND #$08     
00f8dd f0 04         BEQ $f8e3     
00f8df a9 04         LDA #$04     
00f8e1 d0 0c         BNE $f8ef     
00f8e3 a5 f4         LDA $f4     
00f8e5 29 7d         AND #$7d     
00f8e7 f0 04         BEQ $f8ed     
00f8e9 a9 08         LDA #$08     
00f8eb d0 02         BNE $f8ef     
00f8ed a9 28         LDA #$28     
00f8ef a2 82         LDX #$82     
00f8f1 a0 7f         LDY #$7f     
00f8f3 60            RTS

00f8f4 ad b1 07      LDA $07b1     	; 
00f8f7 29 08         AND #$08     
00f8f9 f0 04         BEQ $f8ff     
00f8fb b9 96 ff      LDA $ff96,Y     
00f8fe 60            RTS

00f8ff a5 f4         LDA $f4     
00f901 29 7d         AND #$7d     
00f903 f0 04         BEQ $f909     
00f905 b9 9a ff      LDA $ff9a,Y     
00f908 60            RTS

00f909 b9 a2 ff      LDA $ffa2,Y
00f90c 60            RTS

00f90d a5 59         LDA $59     
00f90f 54 64 59      MVN $64,$59     
00f912 3c 31 4b      BIT $4b31,X

00f915 69 5e         ADC #$5e     
00f917 46 4f         LSR $4f     
00f919 36 8d         ROL $8d,X

00f91b 36 4b         ROL $4b,X
00f91d 8d 69 69      STA $6969     	; 
00f920 6f 75 6f 7b   ADC $7b6f75     
00f924 6f 75 6f 7b   ADC $7b6f75     
00f928 81 87         STA ($87,X)     
00f92a 81 8d         STA ($8d,X)     
00f92c 69 69         ADC #$69     
00f92e 93 99         STA ($99,S),Y     
00f930 93 9f         STA ($9f,S),Y     
00f932 93 99         STA ($99,S),Y     
00f934 93 9f         STA ($9f,S),Y     
00f936 81 87         STA ($87,X)     
00f938 81 8d         STA ($8d,X)     
00f93a 93 99         STA ($99,S),Y     
00f93c 93 9f         STA ($9f,S),Y     
00f93e 08            PHP      
00f93f 72 fc         ADC ($fc)     
00f941 27 18         AND [$18]     
00f943 20 b8 f9      JSR $f9b8     	; 
00f946 2e 1a 40      ROL $401a     	; 
00f949 20 b0 fc      JSR $fcb0     	; 
00f94c 3d 21 20      AND $2021,X     
00f94f c4 fc         CPY $fc     
00f951 3f 1d 18 11   AND $11181d,X     
00f955 fd 00 00      SBC $0000,X     
00f958 08            PHP      
00f959 1c fa 00      TRB $00fa     
00f95c 00 a4         BRK $a4     
00f95e fb            XCE      
00f95f 93 62         STA ($62,S),Y     
00f961 10 c8         BPL $f92b     
00f963 fe 24 14      INC $1424,X     
00f966 18            CLC      
00f967 45 fc         EOR $fc     
00f969 1e 14 08      ASL $0814,X     
00f96c 52 fd         EOR ($fd)     
00f96e a0 70         LDY #$70     
00f970 68            PLA      
00f971 08            PHP      
00f972 51 fe         EOR ($fe),Y     
00f974 4c 24 18      JMP $1824     	; 
00f977 01 fa         ORA ($fa,X)     
00f979 2d 1c b8      AND $b81c     	; 
00f97c 18            CLC      
00f97d 49 fa         EOR #$fa     
00f97f 20 12 70      JSR $7012     	; 
00f982 18            CLC      
00f983 75 fa         ADC $fa,X     
00f985 1b            TCS      
00f986 10 44         BPL $f9cc     
00f988 18            CLC      
00f989 9d fa 11      STA $11fa,X     
00f98c 0a            ASL      
00f98d 1c 18 c2      TRB $c218     	; 
00f990 fa            PLX      
00f991 2d 10 58      AND $5810     	; 
00f994 18            CLC      
00f995 db            STP      
00f996 fa            PLX      
00f997 14 0d         TRB $0d     
00f999 3f 18 f9 fa   AND $faf918,X     
00f99d 15 0d         ORA $0d,X     
00f99f 21 18         AND ($18,X)     
00f9a1 25 fb         AND $fb     
00f9a3 18            CLC      
00f9a4 10 7a         BPL $fa20     
00f9a6 18            CLC      
00f9a7 4b            PHK      
00f9a8 fb            XCE      
00f9a9 19 0f 54      ORA $540f,Y     
00f9ac 18            CLC      
00f9ad 74 fb         STZ $fb,X     
00f9af 1e 12 2b      ASL $2b12,X     
00f9b2 18            CLC      
00f9b3 72 fb         ADC ($fb)     
00f9b5 1e 0f 2d      ASL $2d0f,X     
00f9b8 84 2c         STY $2c     
00f9ba 2c 2c 82      BIT $822c     	; 
00f9bd 04 2c         TSB $2c     
00f9bf 04 85         TSB $85     
00f9c1 2c 84 2c      BIT $2c84     	; 
00f9c4 2c 2a 2a      BIT $2a2a     	; 
00f9c7 2a            ROL      
00f9c8 82 04 2a      BRL $0123cf     
00f9cb 04 85         TSB $85     
00f9cd 2a            ROL      
00f9ce 84 2a         STY $2a     
00f9d0 2a            ROL      
00f9d1 00 1f         BRK $1f     
00f9d3 1f 1f 98 1f   ORA $1f981f,X     
00f9d7 1f 98 9e 98   ORA $989e98,X     
00f9db 1f 1d 1d 1d   ORA $1d1d1d,X     
00f9df 94 1d         STY $1d,X     
00f9e1 1d 94 9c      ORA $9c94,X     
00f9e4 94 1d         STY $1d,X     
00f9e6 86 18         STX $18     
00f9e8 85 26         STA $26     
00f9ea 30 84         BMI $f970     
00f9ec 04 26         TSB $26     
00f9ee 30 86         BMI $f976     
00f9f0 14 85         TRB $85     
00f9f2 22 2c 84 04   JSL $04842c     
00f9f6 22 2c 21 d0   JSL $d0212c     
00f9fa c4 d0         CPY $d0     
00f9fc 31 d0         AND ($d0),Y     
00f9fe c4 d0         CPY $d0     
00fa00 00 85         BRK $85     
00fa02 2c 22 1c      BIT $1c22     	; 
00fa05 84 26         STY $26     
00fa07 2a            ROL      
00fa08 82 28 26      BRL $012033     
00fa0b 04 87         TSB $87     
00fa0d 22 34 3a 82   JSL $823a34     
00fa11 40            RTI      
00fa12 04 36         TSB $36     
00fa14 84 3a         STY $3a     
00fa16 34 82         BIT $82,X     
00fa18 2c 30 85      BIT $8530     	; 
00fa1b 2a            ROL      
00fa1c 00 5d         BRK $5d     
00fa1e 55 4d         EOR $4d,X     
00fa20 15 19         ORA $19,X     
00fa22 96 15         STX $15,X     
00fa24 d5 e3         CMP $e3,X     
00fa26 eb            XBA      
00fa27 2d a6 2b      AND $2ba6     	; 
00fa2a 27 9c         AND [$9c]     
00fa2c 9e 59 85      STZ $8559,X     
00fa2f 22 1c 14 84   JSL $84141c     
00fa33 1e 22 82      ASL $8222,X     
00fa36 20 1e 04      JSR $041e     	; 
00fa39 87 1c         STA [$1c]     
00fa3b 2c 34 82      BIT $8234     	; 
00fa3e 36 04         ROL $04,X     
00fa40 30 34         BMI $fa76     
00fa42 04 2c         TSB $2c     
00fa44 04 26         TSB $26     
00fa46 2a            ROL      
00fa47 85 22         STA $22     
00fa49 84 04         STY $04     
00fa4b 82 3a 38      BRL $013288     
00fa4e 36 32         ROL $32,X     
00fa50 04 34         TSB $34     
00fa52 04 24         TSB $24     
00fa54 26 2c         ROL $2c     
00fa56 04 26         TSB $26     
00fa58 2c 30 00      BIT $0030     
00fa5b 05 b4         ORA $b4     
00fa5d b2 b0         LDA ($b0)     
00fa5f 2b            PLD      
00fa60 ac 84 9c      LDY $9c84     	; 
00fa63 9e a2 84      STZ $84a2,X     
00fa66 94 9c         STY $9c,X     
00fa68 9e 85 14      STZ $1485,X     
00fa6b 22 84 2c 85   JSL $852c84     
00fa6f 1e 82 2c      ASL $2c82,X     
00fa72 84 2c         STY $2c     
00fa74 1e 84 04      ASL $0484,X     
00fa77 82 3a 38      BRL $0132b4     
00fa7a 36 32         ROL $32,X     
00fa7c 04 34         TSB $34     
00fa7e 04 64         TSB $64     
00fa80 04 64         TSB $64     
00fa82 86 64         STX $64     
00fa84 00 05         BRK $05     
00fa86 b4 b2         LDY $b2,X     
00fa88 b0 2b         BCS $fab5     
00fa8a ac 84 37      LDY $3784     	; 
00fa8d b6 b6         LDX $b6,Y     
00fa8f 45 85         EOR $85     
00fa91 14 1c         TRB $1c     
00fa93 82 22 84      BRL $007eb8     
00fa96 2c 4e 82      BIT $824e     	; 
00fa99 4e 84 4e      LSR $4e84     	; 
00fa9c 22 84 04 85   JSL $850484     
00faa0 32 85         AND ($85)     
00faa2 30 86         BMI $fa2a     
00faa4 2c 04 00      BIT $0004     
00faa7 05 a4         ORA $a4     
00faa9 05 9e         ORA $9e     
00faab 05 9d         ORA $9d     
00faad 85 84         STA $84     
00faaf 14 85         TRB $85     
00fab1 24 28         BIT $28     
00fab3 2c 82 22      BIT $2282     	; 
00fab6 84 22         STY $22     
00fab8 14 21         TRB $21     
00faba d0 c4         BNE $fa80     
00fabc d0 31         BNE $faef     
00fabe d0 c4         BNE $fa84     
00fac0 d0 00         BNE $fac2     
00fac2 82 2c 84      BRL $007ef1     
00fac5 2c 2c 82      BIT $822c     	; 
00fac8 2c 30 04      BIT $0430     	; 
00facb 34 2c         BIT $2c,X     
00facd 04 26         TSB $26     
00facf 86 22         STX $22     
00fad1 00 a4         BRK $a4     
00fad3 25 25         AND $25     
00fad5 a4 29         LDY $29     
00fad7 a2 1d         LDX #$1d     
00fad9 9c 95 82      STZ $8295     	; 
00fadc 2c 2c 04      BIT $042c     	; 
00fadf 2c 04 2c      BIT $2c04     	; 
00fae2 30 85         BMI $fa69     
00fae4 34 04         BIT $04,X     
00fae6 04 00         TSB $00     
00fae8 a4 25         LDY $25     
00faea 25 a4         AND $a4     
00faec a8            TAY      
00faed 63 04         ADC $4,S     
00faef 85 0e         STA $0e     
00faf1 1a            INC      
00faf2 84 24         STY $24     
00faf4 85 22         STA $22     
00faf6 14 84         TRB $84     
00faf8 0c 82 34      TSB $3482     	; 
00fafb 84 34         STY $34     
00fafd 34 82         BIT $82,X     
00faff 2c 84 34      BIT $3484     	; 
00fb02 86 3a         STX $3a     
00fb04 04 00         TSB $00     
00fb06 a0 21         LDY #$21     
00fb08 21 a0         AND ($a0,X)     
00fb0a 21 2b         AND ($2b,X)     
00fb0c 05 a3         ORA $a3     
00fb0e 82 18 84      BRL $007f29     
00fb11 18            CLC      
00fb12 18            CLC      
00fb13 82 18 18      BRL $01132e     
00fb16 04 86         TSB $86     
00fb18 3a            DEC      
00fb19 22 31 90 31   JSL $319031     
00fb1d 90 31         BCC $fb50     
00fb1f 71 31         ADC ($31),Y     
00fb21 90 90         BCC $fab3     
00fb23 90 00         BCC $fb25     
00fb25 82 34 84      BRL $007f5c     
00fb28 2c 85 22      BIT $2285     	; 
00fb2b 84 24         STY $24     
00fb2d 82 26 36      BRL $013156     
00fb30 04 36         TSB $36     
00fb32 86 26         STX $26     
00fb34 00 ac         BRK $ac     
00fb36 27 5d         AND [$5d]     
00fb38 1d 9e 2d      ORA $2d9e,X     
00fb3b ac 9f 85      LDY $859f     	; 
00fb3e 14 82         TRB $82     
00fb40 20 84 22      JSR $2284     	; 
00fb43 2c 1e 1e      BIT $1e1e     	; 
00fb46 82 2c 2c      BRL $012775     
00fb49 1e 04 87      ASL $8704,X     
00fb4c 2a            ROL      
00fb4d 40            RTI      
00fb4e 40            RTI      
00fb4f 40            RTI      
00fb50 3a            DEC      
00fb51 36 82         ROL $82,X     
00fb53 34 2c         BIT $2c,X     
00fb55 04 26         TSB $26     
00fb57 86 22         STX $22     
00fb59 00 e3         BRK $e3     
00fb5b f7 f7         SBC [$f7],Y     
00fb5d f7 f5         SBC [$f5],Y     
00fb5f f1 ac         SBC ($ac),Y     
00fb61 27 9e         AND [$9e]     
00fb63 9d 85 18      STA $1885,X     
00fb66 82 1e 84      BRL $007f87     
00fb69 22 2a 22 22   JSL $22222a     
00fb6d 82 2c 2c      BRL $01279c     
00fb70 22 04 86 04   JSL $048604     
00fb74 82 2a 36      BRL $0131a1     
00fb77 04 36         TSB $36     
00fb79 87 36         STA [$36]     
00fb7b 34 30         BIT $30,X     
00fb7d 86 2c         STX $2c     
00fb7f 04 00         TSB $00     
00fb81 00 68         BRK $68     
00fb83 6a            ROR      
00fb84 6c 45 a2      JMP ($a245)     
00fb87 31 b0         AND ($b0),Y     
00fb89 f1 ed         SBC ($ed),Y     
00fb8b eb            XBA      
00fb8c a2 1d         LDX #$1d     
00fb8e 9c 95 86      STZ $8695     	; 
00fb91 04 85         TSB $85     
00fb93 22 82 22 87   JSL $872282     
00fb97 22 26 2a 84   JSL $842a26     
00fb9b 2c 22 86      BIT $8622     	; 
00fb9e 14 51         TRB $51     
00fba0 90 31         BCC $fbd3     
00fba2 11 00         ORA ($00),Y     
00fba4 80 22         BRA $fbc8     
00fba6 28            PLP      
00fba7 22 26 22 24   JSL $242226     
00fbab 22 26 22 28   JSL $282226     
00fbaf 22 2a 22 28   JSL $28222a     
00fbb3 22 26 22 28   JSL $282226     
00fbb7 22 26 22 24   JSL $242226     
00fbbb 22 26 22 28   JSL $282226     
00fbbf 22 2a 22 28   JSL $28222a     
00fbc3 22 26 20 26   JSL $262026     
00fbc7 20 24 20      JSR $2024     	; 
00fbca 26 20         ROL $20     
00fbcc 28            PLP      
00fbcd 20 26 20      JSR $2026     	; 
00fbd0 28            PLP      
00fbd1 20 26 20      JSR $2026     	; 
00fbd4 24 20         BIT $20     
00fbd6 26 20         ROL $20     
00fbd8 24 20         BIT $20     
00fbda 26 20         ROL $20     
00fbdc 28            PLP      
00fbdd 20 26 20      JSR $2026     	; 
00fbe0 28            PLP      
00fbe1 20 26 20      JSR $2026     	; 
00fbe4 24 28         BIT $28     
00fbe6 30 28         BMI $fc10     
00fbe8 32 28         AND ($28)     
00fbea 30 28         BMI $fc14     
00fbec 2e 28 30      ROL $3028     	; 
00fbef 28            PLP      
00fbf0 2e 28 2c      ROL $2c28     	; 
00fbf3 28            PLP      
00fbf4 2e 28 30      ROL $3028     	; 
00fbf7 28            PLP      
00fbf8 32 28         AND ($28)     
00fbfa 30 28         BMI $fc24     
00fbfc 2e 28 30      ROL $3028     	; 
00fbff 28            PLP      
00fc00 2e 28 2c      ROL $2c28     	; 
00fc03 28            PLP      
00fc04 2e 00 04      ROL $0400     	; 
00fc07 70 6e         BVS $fc77     
00fc09 6c 6e 70      JMP ($706e)     
00fc0c 72 70         ADC ($70)     
00fc0e 6e 70         ROR #$70     
00fc10 6e 6c         ROR #$6c     
00fc12 6e 70         ROR #$70     
00fc14 72 70         ADC ($70)     
00fc16 6e 6e         ROR #$6e     
00fc18 6c 6e 70      JMP ($706e)     
00fc1b 6e 70         ROR #$70     
00fc1d 6e 6c         ROR #$6c     
00fc1f 6e 6c         ROR #$6c     
00fc21 6e 70         ROR #$70     
00fc23 6e 70         ROR #$70     
00fc25 6e 6c         ROR #$6c     
00fc27 76 78         ROR $78,X     
00fc29 76 74         ROR $74,X     
00fc2b 76 74         ROR $74,X     
00fc2d 72 74         ADC ($74)     
00fc2f 76 78         ROR $78,X     
00fc31 76 74         ROR $74,X     
00fc33 76 74         ROR $74,X     
00fc35 72 74         ADC ($74)     
00fc37 84 1a         STY $1a     
00fc39 83 18         STA $18,S     
00fc3b 20 84 1e      JSR $1e84     	; 
00fc3e 83 1c         STA $1c,S     
00fc40 28            PLP      
00fc41 26 1c         ROL $1c     
00fc43 1a            INC      
00fc44 1c 82 2c      TRB $2c82     	; 
00fc47 04 04         TSB $04     
00fc49 22 04 04 84   JSL $840404     
00fc4d 1c 87 26      TRB $2687     	; 
00fc50 2a            ROL      
00fc51 26 84         ROL $84     
00fc53 24 28         BIT $28     
00fc55 24 80         BIT $80     
00fc57 22 00 9c 05   JSL $059c00     
00fc5b 94 05         STY $05,X     
00fc5d 0d 9f 1e      ORA $1e9f     	; 
00fc60 9c 98 9d      STZ $9d98     	; 
00fc63 82 22 04      BRL $010088     
00fc66 04 1c         TSB $1c     
00fc68 04 04         TSB $04     
00fc6a 84 14         STY $14     
00fc6c 86 1e         STX $1e     
00fc6e 80 16         BRA $fc86     
00fc70 80 14         BRA $fc86     
00fc72 81 1c         STA ($1c,X)     
00fc74 30 04         BMI $fc7a     
00fc76 30 30         BMI $fca8     
00fc78 04 1e         TSB $1e     
00fc7a 32 04         AND ($04)     
00fc7c 32 32         AND ($32)     
00fc7e 04 20         TSB $20     
00fc80 34 04         BIT $04,X     
00fc82 34 34         BIT $34,X     
00fc84 04 36         TSB $36     
00fc86 04 84         TSB $84     
00fc88 36 00         ROL $00,X     
00fc8a 46 a4         LSR $a4     
00fc8c 64 a4         STZ $a4     
00fc8e 48            PHA      
00fc8f a6 66         LDX $66     
00fc91 a6 4a         LDX $4a     
00fc93 a8            TAY      
00fc94 68            PLA      
00fc95 a8            TAY      
00fc96 6a            ROR      
00fc97 44 2b 81      MVP $2b,$81     
00fc9a 2a            ROL      
00fc9b 42 04         WDM $04     
00fc9d 42 42         WDM $42     
00fc9f 04 2c         TSB $2c     
00fca1 64 04         STZ $04     
00fca3 64 64         STZ $64     
00fca5 04 2e         TSB $2e     
00fca7 46 04         LSR $04     
00fca9 46 46         LSR $46     
00fcab 04 22         TSB $22     
00fcad 04 84         TSB $84     
00fcaf 22 87 04 06   JSL $060487     
00fcb3 0c 14 1c      TSB $1c14     	; 
00fcb6 22 86 2c 22   JSL $222c86     
00fcba 87 04         STA [$04]     
00fcbc 60            RTS      
00fcbd 0e 14 1a      ASL $1a14     	; 
00fcc0 24 86         BIT $86     
00fcc2 2c 24 87      BIT $8724     	; 
00fcc5 04 08         TSB $08     
00fcc7 10 18         BPL $fce1     
00fcc9 1e 28 86      ASL $8628,X     
00fccc 30 30         BMI $fcfe     
00fcce 80 64         BRA $fd34     
00fcd0 00 cd         BRK $cd     
00fcd2 d5 dd         CMP $dd,X     
00fcd4 e3 ed         SBC $ed,S     
00fcd6 f5 bb         SBC $bb,X     
00fcd8 b5 cf         LDA $cf,X     
00fcda d5 db         CMP $db,X     
00fcdc e5 ed         SBC $ed     
00fcde f3 bd         SBC ($bd,S),Y     
00fce0 b3 d1         LDA ($d1,S),Y     
00fce2 d9 df e9      CMP $e9df,Y     
00fce5 f1 f7         SBC ($f7),Y     
00fce7 bf ff ff ff   LDA $ffffff,X     
00fceb 34 00         BIT $00,X     
00fced 86 04         STX $04     
00fcef 87 14         STA [$14]     
00fcf1 1c 22 86      TRB $8622     	; 
00fcf4 34 84         BIT $84,X     
00fcf6 2c 04 04      BIT $0404     	; 
00fcf9 04 87         TSB $87     
00fcfb 14 1a         TRB $1a     
00fcfd 24 86         BIT $86     
00fcff 32 84         AND ($84)     
00fd01 2c 04 86      BIT $8604     	; 
00fd04 04 87         TSB $87     
00fd06 18            CLC      
00fd07 1e 28 86      ASL $8628,X     
00fd0a 36 87         ROL $87,X     
00fd0c 30 30         BMI $fd3e     
00fd0e 30 80         BMI $fc90     
00fd10 2c 82 14      BIT $1482     	; 
00fd13 2c 62 26      BIT $2662     	; 
00fd16 10 28         BPL $fd40     
00fd18 80 04         BRA $fd1e     
00fd1a 82 14 2c      BRL $012931     
00fd1d 62 26 10      PER #$1026     
00fd20 28            PLP      
00fd21 80 04         BRA $fd27     
00fd23 82 08 1e      BRL $011b2e     
00fd26 5e 18 60      LSR $6018,X     
00fd29 1a            INC      
00fd2a 80 04         BRA $fd30     
00fd2c 82 08 1e      BRL $011b37     
00fd2f 5e 18 60      LSR $6018,X     
00fd32 1a            INC      
00fd33 86 04         STX $04     
00fd35 83 1a         STA $1a,S     
00fd37 18            CLC      
00fd38 16 84         ASL $84,X     
00fd3a 14 1a         TRB $1a     
00fd3c 18            CLC      
00fd3d 0e 0c 16      ASL $160c     	; 
00fd40 83 14         STA $14,S     
00fd42 20 1e 1c      JSR $1c1e     	; 
00fd45 28            PLP      
00fd46 26 87         ROL $87     
00fd48 24 1a         BIT $1a     
00fd4a 12 10         ORA ($10)     
00fd4c 62 0e 80      PER #$800e     
00fd4f 04 04         TSB $04     
00fd51 00 82         BRK $82     
00fd53 18            CLC      
00fd54 1c 20 22      TRB $2220     	; 
00fd57 26 28         ROL $28     
00fd59 81 2a         STA ($2a,X)     
00fd5b 2a            ROL      
00fd5c 2a            ROL      
00fd5d 04 2a         TSB $2a     
00fd5f 04 83         TSB $83     
00fd61 2a            ROL      
00fd62 82 22 86      BRL $008387     
00fd65 34 32         BIT $32,X     
00fd67 34 81         BIT $81,X     
00fd69 04 22         TSB $22     
00fd6b 26 2a         ROL $2a     
00fd6d 2c 30 86      BIT $8630     	; 
00fd70 34 83         BIT $83,X     
00fd72 32 82         AND ($82)     
00fd74 36 84         ROL $84,X     
00fd76 34 85         BIT $85,X     
00fd78 04 81         TSB $81     
00fd7a 22 86 30 2e   JSL $2e3086     
00fd7e 30 81         BMI $fd01     
00fd80 04 22         TSB $22     
00fd82 26 2a         ROL $2a     
00fd84 2c 2e 86      BIT $862e     	; 
00fd87 30 83         BMI $fd0c     
00fd89 22 82 36 84   JSL $843682     
00fd8d 34 85         BIT $85,X     
00fd8f 04 81         TSB $81     
00fd91 22 86 3a 3a   JSL $3a3a86     
00fd95 3a            DEC      
00fd96 82 3a 81      BRL $007ed3     
00fd99 40            RTI      
00fd9a 82 04 81      BRL $007ea1     
00fd9d 3a            DEC      
00fd9e 86 36         STX $36     
00fda0 36 36         ROL $36,X     
00fda2 82 36 81      BRL $007edb     
00fda5 3a            DEC      
00fda6 82 04 81      BRL $007ead     
00fda9 36 86         ROL $86,X     
00fdab 34 82         BIT $82,X     
00fdad 26 2a         ROL $2a     
00fdaf 36 81         ROL $81,X     
00fdb1 34 34         BIT $34,X     
00fdb3 85 34         STA $34     
00fdb5 81 2a         STA ($2a,X)     
00fdb7 86 2c         STX $2c     
00fdb9 00 84         BRK $84     
00fdbb 90 b0         BCC $fd6d     
00fdbd 84 50         STY $50     
00fdbf 50 b0         BVC $fd71     
00fdc1 00 98         BRK $98     
00fdc3 96 94         STX $94,X     
00fdc5 92 94         STA ($94)     
00fdc7 96 58         STX $58,X     
00fdc9 58            CLI      
00fdca 58            CLI      
00fdcb 44 5c 44      MVP $5c,$44     
00fdce 9f a3 a1 a3   STA $a3a1a3,X     
00fdd2 85 a3         STA $a3     
00fdd4 e0 a6         CPX #$a6     
00fdd6 23 c4         AND $c4,S     
00fdd8 9f 9d 9f 85   STA $859f9d,X     
00fddc 9f d2 a6 23   STA $23a6d2,X     
00fde0 c4 b5         CPY $b5     
00fde2 b1 af         LDA ($af),Y     
00fde4 85 b1         STA $b1     
00fde6 af ad 85 95   LDA $9585ad     
00fdea 9e a2 aa      STZ $aaa2,X     
00fded 6a            ROR      
00fdee 6a            ROR      
00fdef 6b            RTL      
00fdf0 5e 9d 84      LSR $849d,X     
00fdf3 04 04         TSB $04     
00fdf5 82 22 86      BRL $00841a     
00fdf8 22 82 14 22   JSL $221482     
00fdfc 2c 12 22      BIT $2212     	; 
00fdff 2a            ROL      
00fe00 14 22         TRB $22     
00fe02 2c 1c 22      BIT $221c     	; 
00fe05 2c 14 22      BIT $2214     	; 
00fe08 2c 12 22      BIT $2212     	; 
00fe0b 2a            ROL      
00fe0c 14 22         TRB $22     
00fe0e 2c 1c 22      BIT $221c     	; 
00fe11 2c 18 22      BIT $2218     	; 
00fe14 2a            ROL      
00fe15 16 20         ASL $20,X     
00fe17 28            PLP      
00fe18 18            CLC      
00fe19 22 2a 12 22   JSL $22122a     
00fe1d 2a            ROL      
00fe1e 18            CLC      
00fe1f 22 2a 12 22   JSL $22122a     
00fe23 2a            ROL      
00fe24 14 22         TRB $22     
00fe26 2c 0c 22      BIT $220c     	; 
00fe29 2c 14 22      BIT $2214     	; 
00fe2c 34 12         BIT $12,X     
00fe2e 22 30 10 22   JSL $221030     
00fe32 2e 16 22      ROL $2216     	; 
00fe35 34 18         BIT $18,X     
00fe37 26 36         ROL $36     
00fe39 16 26         ASL $26,X     
00fe3b 36 14         ROL $14,X     
00fe3d 26 36         ROL $36     
00fe3f 12 22         ORA ($22)     
00fe41 36 5c         ROL $5c,X     
00fe43 22 34 0c 22   JSL $220c34     
00fe47 22 81 1e 1e   JSL $1e1e81     
00fe4b 85 1e         STA $1e     
00fe4d 81 12         STA ($12,X)     
00fe4f 86 14         STX $14     
00fe51 81 2c         STA ($2c,X)     
00fe53 22 1c 2c 22   JSL $222c1c     
00fe57 1c 85 2c      TRB $2c85     	; 
00fe5a 04 81         TSB $81     
00fe5c 2e 24 1e      ROL $1e24     	; 
00fe5f 2e 24 1e      ROL $1e24     	; 
00fe62 85 2e         STA $2e     
00fe64 04 81         TSB $81     
00fe66 32 28         AND ($28)     
00fe68 22 32 28 22   JSL $222832     
00fe6c 85 32         STA $32     
00fe6e 87 36         STA [$36]     
00fe70 36 36         ROL $36,X     
00fe72 84 3a         STY $3a     
00fe74 00 5c         BRK $5c     
00fe76 54 4c 5c      MVN $4c,$5c     
00fe79 54 4c 5c      MVN $4c,$5c     
00fe7c 1c 1c 5c      TRB $5c1c     	; 
00fe7f 5c 5c 5c 5e   JML $5e5c5c     
00fe83 56 4e         LSR $4e,X     
00fe85 5e 56 4e      LSR $4e56,X     
00fe88 5e 1e 1e      LSR $1e1e,X     
00fe8b 5e 5e 5e      LSR $5e5e,X     
00fe8e 5e 62 5a      LSR $5a62,X     
00fe91 50 62         BVC $fef5     
00fe93 5a            PHY      
00fe94 50 62         BVC $fef8     
00fe96 22 22 62 e7   JSL $e76222     
00fe9a e7 e7         SBC [$e7]     
00fe9c 2b            PLD      
00fe9d 86 14         STX $14     
00fe9f 81 14         STA ($14,X)     
00fea1 80 14         BRA $feb7     
00fea3 14 81         TRB $81     
00fea5 14 14         TRB $14     
00fea7 14 14         TRB $14     
00fea9 86 16         STX $16     
00feab 81 16         STA ($16,X)     
00fead 80 16         BRA $fec5     
00feaf 16 81         ASL $81,X     
00feb1 16 16         ASL $16,X     
00feb3 16 16         ASL $16,X     
00feb5 81 28         STA ($28,X)     
00feb7 22 1a 28 22   JSL $22281a     
00febb 1a            INC      
00febc 28            PLP      
00febd 80 28         BRA $fee7     
00febf 28            PLP      
00fec0 81 28         STA ($28,X)     
00fec2 87 2c         STA [$2c]     
00fec4 2c 2c 84      BIT $842c     	; 
00fec7 30 83         BMI $fe4c     
00fec9 04 84         TSB $84     
00fecb 0c 83 62      TSB $6283     	; 
00fece 10 84         BPL $fe54     
00fed0 12 83         ORA ($83)     
00fed2 1c 22 1e      TRB $1e22     	; 
00fed5 22 26 18 1e   JSL $1e1826     
00fed9 04 1c         TSB $1c     
00fedb 00 e3         BRK $e3     
00fedd e1 e3         SBC ($e3,X)     
00fedf 1d de e0      ORA $e0de,X     
00fee2 23 ec         AND $ec,S     
00fee4 75 74         ADC $74,X     
00fee6 f0 f4         BEQ $fedc     
00fee8 f6 ea         INC $ea,X     
00feea 31 2d         AND ($2d),Y     
00feec 83 12         STA $12,S     
00feee 14 04         TRB $04     
00fef0 18            CLC      
00fef1 1a            INC      
00fef2 1c 14 26      TRB $2614     	; 
00fef5 22 1e 1c 18   JSL $181c1e     
00fef9 1e 22 0c      ASL $0c22,X     
00fefc 14 ff         TRB $ff     
00fefe ff ff 00


00ff01 88   SBC $8800ff,X
00ff02 00 2f         BRK $2f     
00ff04 00 00         BRK $00     
00ff06 02 a6         COP $a6     
00ff08 02 80         COP $80     
00ff0a 02 5c         COP $5c     
00ff0c 02 3a         COP $3a     
00ff0e 02 1a         COP $1a     
00ff10 01 df         ORA ($df,X)     
00ff12 01 c4         ORA ($c4,X)     
00ff14 01 ab         ORA ($ab,X)     
00ff16 01 93         ORA ($93,X)     
00ff18 01 7c         ORA ($7c,X)     
00ff1a 01 67         ORA ($67,X)     
00ff1c 01 53         ORA ($53,X)     
00ff1e 01 40         ORA ($40,X)     
00ff20 01 2e         ORA ($2e,X)     
00ff22 01 1d         ORA ($1d,X)     
00ff24 01 0d         ORA ($0d,X)     
00ff26 00 fe         BRK $fe     
00ff28 00 ef         BRK $ef     
00ff2a 00 e2         BRK $e2     
00ff2c 00 d5         BRK $d5     
00ff2e 00 c9         BRK $c9     
00ff30 00 be         BRK $be     
00ff32 00 b3         BRK $b3     
00ff34 00 a9         BRK $a9     
00ff36 00 a0         BRK $a0     
00ff38 00 97         BRK $97     
00ff3a 00 8e         BRK $8e     
00ff3c 00 86         BRK $86     
00ff3e 00 77         BRK $77     
00ff40 00 7e         BRK $7e     
00ff42 00 71         BRK $71     
00ff44 00 54         BRK $54     
00ff46 00 64         BRK $64     
00ff48 00 5f         BRK $5f     
00ff4a 00 59         BRK $59     
00ff4c 00 50         BRK $50     
00ff4e 00 47         BRK $47     
00ff50 00 43         BRK $43     
00ff52 00 3b         BRK $3b     
00ff54 00 35         BRK $35     
00ff56 00 2a         BRK $2a     
00ff58 00 23         BRK $23     
00ff5a 04 75         TSB $75     
00ff5c 03 57         ORA $57,S     
00ff5e 02 f9         COP $f9     
00ff60 02 cf         COP $cf     
00ff62 01 fc         ORA ($fc,X)     
00ff64 00 6a         BRK $6a

00ff66 05 0a         ORA $0a     
00ff68 14 28         TRB $28     
00ff6a 50 1e         BVC $ff8a     
00ff6c 3c 02 04      BIT $0402,X     
00ff6f 08            PHP      
00ff70 10 20         BPL $ff92     
00ff72 40            RTI      
00ff73 18            CLC      
00ff74 30 0c         BMI $ff82     
00ff76 03 06         ORA $6,S     
00ff78 0c 18 30      TSB $3018     	; 
00ff7b 12 24         ORA ($24)     
00ff7d 08            PHP      
00ff7e 36 03         ROL $03,X     
00ff80 09 06         ORA #$06     
00ff82 12 1b         ORA ($1b)     
00ff84 24 0c         BIT $0c     
00ff86 24 02         BIT $02     
00ff88 06 04         ASL $04     
00ff8a 0c 12 18      TSB $1812     	; 
00ff8d 08            PHP      
00ff8e 12 01         ORA ($01)     
00ff90 03 02         ORA $2,S     
00ff92 06 09         ASL $09     
00ff94 0c 04

00ff96 98      
00ff97 99 9a 9b      STA $9b9a,Y


00ff9a 90 94         BCC $ff30     
00ff9c 94 95         STY $95,X     
00ff9e 95 96         STA $96,X     
00ffa0 97 98         STA [$98],Y

00ffa2 90 91         BCC $ff35     
00ffa4 92 92         STA ($92)     
00ffa6 93 93         STA ($93,S),Y     
00ffa8 93 94         STA ($94,S),Y     
00ffaa 94 94         STY $94,X     
00ffac 94 94         STY $94,X     
00ffae 94 95         STY $95,X     
00ffb0 95 95         STA $95,X     
00ffb2 95 95         STA $95,X     
00ffb4 95 96         STA $96,X     
00ffb6 96 96         STX $96,X     
00ffb8 96 96         STX $96,X     
00ffba 96 96         STX $96,X     
00ffbc 96 96         STX $96,X     
00ffbe 96 96         STX $96,X     
00ffc0 96 96         STX $96,X     
00ffc2 96 96         STX $96,X     
00ffc4 96 96         STX $96,X     
00ffc6 95 95         STA $95,X     
00ffc8 94 93         STY $93,X

00ffca 15 16         ORA $16,X     
00ffcc 16 17         ASL $17,X     
00ffce 17 18         ORA [$18],Y     
00ffd0 19 19 1a      ORA $1a19,Y     
00ffd3 1a            INC      
00ffd4 1c 1d 1d      TRB $1d1d     	; 
00ffd7 1e 1e 1f      ASL $1f1e,X     
00ffda 1f 1f 1f 1e   ORA $1e1f1f,X     
00ffde 1d 1c 1e      ORA $1e1c,X     
00ffe1 1f 1f 1e 1d   ORA $1d1e1f,X     
00ffe5 1c 1a 18      TRB $181a     	; 
00ffe8 16 14         ASL $14,X

00ffea c9 5a         CMP #$5a     
00ffec f0 04         BEQ $fff2     
00ffee 8d 6b 07      STA $076b     	; 
00fff1 60            RTS

00fff2 a9 00         LDA #$00     
00fff4 60            RTS

00fff5 ee ff 1e      INC $1eff     	; 
00fff8 1e 1f 82      ASL $821f,X     
